
atz.elf:     file format elf32-littlearm

Sections:
Idx Name          Size      VMA       LMA       File off  Algn
  0 .isr_vector   000000c0  08000000  08000000  00001000  2**0
                  CONTENTS, ALLOC, LOAD, READONLY, DATA
  1 .text         0000644c  080000c0  080000c0  000010c0  2**2
                  CONTENTS, ALLOC, LOAD, READONLY, CODE
  2 .rodata       0000015c  0800650c  0800650c  0000750c  2**2
                  CONTENTS, ALLOC, LOAD, READONLY, DATA
  3 .ARM.extab    00000000  08006668  08006668  00008060  2**0
                  CONTENTS, READONLY
  4 .ARM          00000008  08006668  08006668  00007668  2**2
                  CONTENTS, ALLOC, LOAD, READONLY, DATA
  5 .preinit_array 00000000  08006670  08006670  00008060  2**0
                  CONTENTS, ALLOC, LOAD, DATA
  6 .init_array   00000004  08006670  08006670  00007670  2**2
                  CONTENTS, ALLOC, LOAD, READONLY, DATA
  7 .fini_array   00000004  08006674  08006674  00007674  2**2
                  CONTENTS, ALLOC, LOAD, READONLY, DATA
  8 .data         00000060  20000000  08006678  00008000  2**2
                  CONTENTS, ALLOC, LOAD, DATA
  9 .bss          00000490  20000060  080066d8  00008060  2**2
                  ALLOC
 10 ._user_heap_stack 00002400  200004f0  080066d8  000084f0  2**0
                  ALLOC
 11 .ARM.attributes 00000028  00000000  00000000  00008060  2**0
                  CONTENTS, READONLY
 12 .debug_info   00011992  00000000  00000000  00008088  2**0
                  CONTENTS, READONLY, DEBUGGING, OCTETS
 13 .debug_abbrev 00002f73  00000000  00000000  00019a1a  2**0
                  CONTENTS, READONLY, DEBUGGING, OCTETS
 14 .debug_aranges 00000f40  00000000  00000000  0001c990  2**3
                  CONTENTS, READONLY, DEBUGGING, OCTETS
 15 .debug_rnglists 00000bbf  00000000  00000000  0001d8d0  2**0
                  CONTENTS, READONLY, DEBUGGING, OCTETS
 16 .debug_macro  00016a23  00000000  00000000  0001e48f  2**0
                  CONTENTS, READONLY, DEBUGGING, OCTETS
 17 .debug_line   00014a6a  00000000  00000000  00034eb2  2**0
                  CONTENTS, READONLY, DEBUGGING, OCTETS
 18 .debug_str    00086678  00000000  00000000  0004991c  2**0
                  CONTENTS, READONLY, DEBUGGING, OCTETS
 19 .comment      00000043  00000000  00000000  000cff94  2**0
                  CONTENTS, READONLY
 20 .debug_frame  00003a90  00000000  00000000  000cffd8  2**2
                  CONTENTS, READONLY, DEBUGGING, OCTETS
 21 .debug_line_str 0000005c  00000000  00000000  000d3a68  2**0
                  CONTENTS, READONLY, DEBUGGING, OCTETS

Disassembly of section .text:

080000c0 <__do_global_dtors_aux>:
 80000c0:	b510      	push	{r4, lr}
 80000c2:	4c06      	ldr	r4, [pc, #24]	@ (80000dc <__do_global_dtors_aux+0x1c>)
 80000c4:	7823      	ldrb	r3, [r4, #0]
 80000c6:	2b00      	cmp	r3, #0
 80000c8:	d107      	bne.n	80000da <__do_global_dtors_aux+0x1a>
 80000ca:	4b05      	ldr	r3, [pc, #20]	@ (80000e0 <__do_global_dtors_aux+0x20>)
 80000cc:	2b00      	cmp	r3, #0
 80000ce:	d002      	beq.n	80000d6 <__do_global_dtors_aux+0x16>
 80000d0:	4804      	ldr	r0, [pc, #16]	@ (80000e4 <__do_global_dtors_aux+0x24>)
 80000d2:	e000      	b.n	80000d6 <__do_global_dtors_aux+0x16>
 80000d4:	bf00      	nop
 80000d6:	2301      	movs	r3, #1
 80000d8:	7023      	strb	r3, [r4, #0]
 80000da:	bd10      	pop	{r4, pc}
 80000dc:	20000060 	.word	0x20000060
 80000e0:	00000000 	.word	0x00000000
 80000e4:	080064f4 	.word	0x080064f4

080000e8 <frame_dummy>:
 80000e8:	4b04      	ldr	r3, [pc, #16]	@ (80000fc <frame_dummy+0x14>)
 80000ea:	b510      	push	{r4, lr}
 80000ec:	2b00      	cmp	r3, #0
 80000ee:	d003      	beq.n	80000f8 <frame_dummy+0x10>
 80000f0:	4903      	ldr	r1, [pc, #12]	@ (8000100 <frame_dummy+0x18>)
 80000f2:	4804      	ldr	r0, [pc, #16]	@ (8000104 <frame_dummy+0x1c>)
 80000f4:	e000      	b.n	80000f8 <frame_dummy+0x10>
 80000f6:	bf00      	nop
 80000f8:	bd10      	pop	{r4, pc}
 80000fa:	46c0      	nop			@ (mov r8, r8)
 80000fc:	00000000 	.word	0x00000000
 8000100:	20000064 	.word	0x20000064
 8000104:	080064f4 	.word	0x080064f4

08000108 <strlen>:
 8000108:	2300      	movs	r3, #0
 800010a:	5cc2      	ldrb	r2, [r0, r3]
 800010c:	3301      	adds	r3, #1
 800010e:	2a00      	cmp	r2, #0
 8000110:	d1fb      	bne.n	800010a <strlen+0x2>
 8000112:	1e58      	subs	r0, r3, #1
 8000114:	4770      	bx	lr
	...

08000118 <__gnu_thumb1_case_shi>:
 8000118:	b403      	push	{r0, r1}
 800011a:	4671      	mov	r1, lr
 800011c:	0849      	lsrs	r1, r1, #1
 800011e:	0040      	lsls	r0, r0, #1
 8000120:	0049      	lsls	r1, r1, #1
 8000122:	5e09      	ldrsh	r1, [r1, r0]
 8000124:	0049      	lsls	r1, r1, #1
 8000126:	448e      	add	lr, r1
 8000128:	bc03      	pop	{r0, r1}
 800012a:	4770      	bx	lr

0800012c <__udivsi3>:
 800012c:	2200      	movs	r2, #0
 800012e:	0843      	lsrs	r3, r0, #1
 8000130:	428b      	cmp	r3, r1
 8000132:	d374      	bcc.n	800021e <__udivsi3+0xf2>
 8000134:	0903      	lsrs	r3, r0, #4
 8000136:	428b      	cmp	r3, r1
 8000138:	d35f      	bcc.n	80001fa <__udivsi3+0xce>
 800013a:	0a03      	lsrs	r3, r0, #8
 800013c:	428b      	cmp	r3, r1
 800013e:	d344      	bcc.n	80001ca <__udivsi3+0x9e>
 8000140:	0b03      	lsrs	r3, r0, #12
 8000142:	428b      	cmp	r3, r1
 8000144:	d328      	bcc.n	8000198 <__udivsi3+0x6c>
 8000146:	0c03      	lsrs	r3, r0, #16
 8000148:	428b      	cmp	r3, r1
 800014a:	d30d      	bcc.n	8000168 <__udivsi3+0x3c>
 800014c:	22ff      	movs	r2, #255	@ 0xff
 800014e:	0209      	lsls	r1, r1, #8
 8000150:	ba12      	rev	r2, r2
 8000152:	0c03      	lsrs	r3, r0, #16
 8000154:	428b      	cmp	r3, r1
 8000156:	d302      	bcc.n	800015e <__udivsi3+0x32>
 8000158:	1212      	asrs	r2, r2, #8
 800015a:	0209      	lsls	r1, r1, #8
 800015c:	d065      	beq.n	800022a <__udivsi3+0xfe>
 800015e:	0b03      	lsrs	r3, r0, #12
 8000160:	428b      	cmp	r3, r1
 8000162:	d319      	bcc.n	8000198 <__udivsi3+0x6c>
 8000164:	e000      	b.n	8000168 <__udivsi3+0x3c>
 8000166:	0a09      	lsrs	r1, r1, #8
 8000168:	0bc3      	lsrs	r3, r0, #15
 800016a:	428b      	cmp	r3, r1
 800016c:	d301      	bcc.n	8000172 <__udivsi3+0x46>
 800016e:	03cb      	lsls	r3, r1, #15
 8000170:	1ac0      	subs	r0, r0, r3
 8000172:	4152      	adcs	r2, r2
 8000174:	0b83      	lsrs	r3, r0, #14
 8000176:	428b      	cmp	r3, r1
 8000178:	d301      	bcc.n	800017e <__udivsi3+0x52>
 800017a:	038b      	lsls	r3, r1, #14
 800017c:	1ac0      	subs	r0, r0, r3
 800017e:	4152      	adcs	r2, r2
 8000180:	0b43      	lsrs	r3, r0, #13
 8000182:	428b      	cmp	r3, r1
 8000184:	d301      	bcc.n	800018a <__udivsi3+0x5e>
 8000186:	034b      	lsls	r3, r1, #13
 8000188:	1ac0      	subs	r0, r0, r3
 800018a:	4152      	adcs	r2, r2
 800018c:	0b03      	lsrs	r3, r0, #12
 800018e:	428b      	cmp	r3, r1
 8000190:	d301      	bcc.n	8000196 <__udivsi3+0x6a>
 8000192:	030b      	lsls	r3, r1, #12
 8000194:	1ac0      	subs	r0, r0, r3
 8000196:	4152      	adcs	r2, r2
 8000198:	0ac3      	lsrs	r3, r0, #11
 800019a:	428b      	cmp	r3, r1
 800019c:	d301      	bcc.n	80001a2 <__udivsi3+0x76>
 800019e:	02cb      	lsls	r3, r1, #11
 80001a0:	1ac0      	subs	r0, r0, r3
 80001a2:	4152      	adcs	r2, r2
 80001a4:	0a83      	lsrs	r3, r0, #10
 80001a6:	428b      	cmp	r3, r1
 80001a8:	d301      	bcc.n	80001ae <__udivsi3+0x82>
 80001aa:	028b      	lsls	r3, r1, #10
 80001ac:	1ac0      	subs	r0, r0, r3
 80001ae:	4152      	adcs	r2, r2
 80001b0:	0a43      	lsrs	r3, r0, #9
 80001b2:	428b      	cmp	r3, r1
 80001b4:	d301      	bcc.n	80001ba <__udivsi3+0x8e>
 80001b6:	024b      	lsls	r3, r1, #9
 80001b8:	1ac0      	subs	r0, r0, r3
 80001ba:	4152      	adcs	r2, r2
 80001bc:	0a03      	lsrs	r3, r0, #8
 80001be:	428b      	cmp	r3, r1
 80001c0:	d301      	bcc.n	80001c6 <__udivsi3+0x9a>
 80001c2:	020b      	lsls	r3, r1, #8
 80001c4:	1ac0      	subs	r0, r0, r3
 80001c6:	4152      	adcs	r2, r2
 80001c8:	d2cd      	bcs.n	8000166 <__udivsi3+0x3a>
 80001ca:	09c3      	lsrs	r3, r0, #7
 80001cc:	428b      	cmp	r3, r1
 80001ce:	d301      	bcc.n	80001d4 <__udivsi3+0xa8>
 80001d0:	01cb      	lsls	r3, r1, #7
 80001d2:	1ac0      	subs	r0, r0, r3
 80001d4:	4152      	adcs	r2, r2
 80001d6:	0983      	lsrs	r3, r0, #6
 80001d8:	428b      	cmp	r3, r1
 80001da:	d301      	bcc.n	80001e0 <__udivsi3+0xb4>
 80001dc:	018b      	lsls	r3, r1, #6
 80001de:	1ac0      	subs	r0, r0, r3
 80001e0:	4152      	adcs	r2, r2
 80001e2:	0943      	lsrs	r3, r0, #5
 80001e4:	428b      	cmp	r3, r1
 80001e6:	d301      	bcc.n	80001ec <__udivsi3+0xc0>
 80001e8:	014b      	lsls	r3, r1, #5
 80001ea:	1ac0      	subs	r0, r0, r3
 80001ec:	4152      	adcs	r2, r2
 80001ee:	0903      	lsrs	r3, r0, #4
 80001f0:	428b      	cmp	r3, r1
 80001f2:	d301      	bcc.n	80001f8 <__udivsi3+0xcc>
 80001f4:	010b      	lsls	r3, r1, #4
 80001f6:	1ac0      	subs	r0, r0, r3
 80001f8:	4152      	adcs	r2, r2
 80001fa:	08c3      	lsrs	r3, r0, #3
 80001fc:	428b      	cmp	r3, r1
 80001fe:	d301      	bcc.n	8000204 <__udivsi3+0xd8>
 8000200:	00cb      	lsls	r3, r1, #3
 8000202:	1ac0      	subs	r0, r0, r3
 8000204:	4152      	adcs	r2, r2
 8000206:	0883      	lsrs	r3, r0, #2
 8000208:	428b      	cmp	r3, r1
 800020a:	d301      	bcc.n	8000210 <__udivsi3+0xe4>
 800020c:	008b      	lsls	r3, r1, #2
 800020e:	1ac0      	subs	r0, r0, r3
 8000210:	4152      	adcs	r2, r2
 8000212:	0843      	lsrs	r3, r0, #1
 8000214:	428b      	cmp	r3, r1
 8000216:	d301      	bcc.n	800021c <__udivsi3+0xf0>
 8000218:	004b      	lsls	r3, r1, #1
 800021a:	1ac0      	subs	r0, r0, r3
 800021c:	4152      	adcs	r2, r2
 800021e:	1a41      	subs	r1, r0, r1
 8000220:	d200      	bcs.n	8000224 <__udivsi3+0xf8>
 8000222:	4601      	mov	r1, r0
 8000224:	4152      	adcs	r2, r2
 8000226:	4610      	mov	r0, r2
 8000228:	4770      	bx	lr
 800022a:	e7ff      	b.n	800022c <__udivsi3+0x100>
 800022c:	b501      	push	{r0, lr}
 800022e:	2000      	movs	r0, #0
 8000230:	f000 f806 	bl	8000240 <__aeabi_idiv0>
 8000234:	bd02      	pop	{r1, pc}
 8000236:	46c0      	nop			@ (mov r8, r8)

08000238 <__aeabi_uidivmod>:
 8000238:	2900      	cmp	r1, #0
 800023a:	d0f7      	beq.n	800022c <__udivsi3+0x100>
 800023c:	e776      	b.n	800012c <__udivsi3>
 800023e:	4770      	bx	lr

08000240 <__aeabi_idiv0>:
 8000240:	4770      	bx	lr
 8000242:	46c0      	nop			@ (mov r8, r8)

08000244 <__aeabi_uldivmod>:
 8000244:	2b00      	cmp	r3, #0
 8000246:	d111      	bne.n	800026c <__aeabi_uldivmod+0x28>
 8000248:	2a00      	cmp	r2, #0
 800024a:	d10f      	bne.n	800026c <__aeabi_uldivmod+0x28>
 800024c:	2900      	cmp	r1, #0
 800024e:	d100      	bne.n	8000252 <__aeabi_uldivmod+0xe>
 8000250:	2800      	cmp	r0, #0
 8000252:	d002      	beq.n	800025a <__aeabi_uldivmod+0x16>
 8000254:	2100      	movs	r1, #0
 8000256:	43c9      	mvns	r1, r1
 8000258:	0008      	movs	r0, r1
 800025a:	b407      	push	{r0, r1, r2}
 800025c:	4802      	ldr	r0, [pc, #8]	@ (8000268 <__aeabi_uldivmod+0x24>)
 800025e:	a102      	add	r1, pc, #8	@ (adr r1, 8000268 <__aeabi_uldivmod+0x24>)
 8000260:	1840      	adds	r0, r0, r1
 8000262:	9002      	str	r0, [sp, #8]
 8000264:	bd03      	pop	{r0, r1, pc}
 8000266:	46c0      	nop			@ (mov r8, r8)
 8000268:	ffffffd9 	.word	0xffffffd9
 800026c:	b403      	push	{r0, r1}
 800026e:	4668      	mov	r0, sp
 8000270:	b501      	push	{r0, lr}
 8000272:	9802      	ldr	r0, [sp, #8]
 8000274:	f000 f806 	bl	8000284 <__udivmoddi4>
 8000278:	9b01      	ldr	r3, [sp, #4]
 800027a:	469e      	mov	lr, r3
 800027c:	b002      	add	sp, #8
 800027e:	bc0c      	pop	{r2, r3}
 8000280:	4770      	bx	lr
 8000282:	46c0      	nop			@ (mov r8, r8)

08000284 <__udivmoddi4>:
 8000284:	b5f0      	push	{r4, r5, r6, r7, lr}
 8000286:	4657      	mov	r7, sl
 8000288:	464e      	mov	r6, r9
 800028a:	4645      	mov	r5, r8
 800028c:	46de      	mov	lr, fp
 800028e:	b5e0      	push	{r5, r6, r7, lr}
 8000290:	0004      	movs	r4, r0
 8000292:	000d      	movs	r5, r1
 8000294:	4692      	mov	sl, r2
 8000296:	4699      	mov	r9, r3
 8000298:	b083      	sub	sp, #12
 800029a:	428b      	cmp	r3, r1
 800029c:	d830      	bhi.n	8000300 <__udivmoddi4+0x7c>
 800029e:	d02d      	beq.n	80002fc <__udivmoddi4+0x78>
 80002a0:	4649      	mov	r1, r9
 80002a2:	4650      	mov	r0, sl
 80002a4:	f000 f8ba 	bl	800041c <__clzdi2>
 80002a8:	0029      	movs	r1, r5
 80002aa:	0006      	movs	r6, r0
 80002ac:	0020      	movs	r0, r4
 80002ae:	f000 f8b5 	bl	800041c <__clzdi2>
 80002b2:	1a33      	subs	r3, r6, r0
 80002b4:	4698      	mov	r8, r3
 80002b6:	3b20      	subs	r3, #32
 80002b8:	d434      	bmi.n	8000324 <__udivmoddi4+0xa0>
 80002ba:	469b      	mov	fp, r3
 80002bc:	4653      	mov	r3, sl
 80002be:	465a      	mov	r2, fp
 80002c0:	4093      	lsls	r3, r2
 80002c2:	4642      	mov	r2, r8
 80002c4:	001f      	movs	r7, r3
 80002c6:	4653      	mov	r3, sl
 80002c8:	4093      	lsls	r3, r2
 80002ca:	001e      	movs	r6, r3
 80002cc:	42af      	cmp	r7, r5
 80002ce:	d83b      	bhi.n	8000348 <__udivmoddi4+0xc4>
 80002d0:	42af      	cmp	r7, r5
 80002d2:	d100      	bne.n	80002d6 <__udivmoddi4+0x52>
 80002d4:	e079      	b.n	80003ca <__udivmoddi4+0x146>
 80002d6:	465b      	mov	r3, fp
 80002d8:	1ba4      	subs	r4, r4, r6
 80002da:	41bd      	sbcs	r5, r7
 80002dc:	2b00      	cmp	r3, #0
 80002de:	da00      	bge.n	80002e2 <__udivmoddi4+0x5e>
 80002e0:	e076      	b.n	80003d0 <__udivmoddi4+0x14c>
 80002e2:	2200      	movs	r2, #0
 80002e4:	2300      	movs	r3, #0
 80002e6:	9200      	str	r2, [sp, #0]
 80002e8:	9301      	str	r3, [sp, #4]
 80002ea:	2301      	movs	r3, #1
 80002ec:	465a      	mov	r2, fp
 80002ee:	4093      	lsls	r3, r2
 80002f0:	9301      	str	r3, [sp, #4]
 80002f2:	2301      	movs	r3, #1
 80002f4:	4642      	mov	r2, r8
 80002f6:	4093      	lsls	r3, r2
 80002f8:	9300      	str	r3, [sp, #0]
 80002fa:	e029      	b.n	8000350 <__udivmoddi4+0xcc>
 80002fc:	4282      	cmp	r2, r0
 80002fe:	d9cf      	bls.n	80002a0 <__udivmoddi4+0x1c>
 8000300:	2200      	movs	r2, #0
 8000302:	2300      	movs	r3, #0
 8000304:	9200      	str	r2, [sp, #0]
 8000306:	9301      	str	r3, [sp, #4]
 8000308:	9b0c      	ldr	r3, [sp, #48]	@ 0x30
 800030a:	2b00      	cmp	r3, #0
 800030c:	d001      	beq.n	8000312 <__udivmoddi4+0x8e>
 800030e:	601c      	str	r4, [r3, #0]
 8000310:	605d      	str	r5, [r3, #4]
 8000312:	9800      	ldr	r0, [sp, #0]
 8000314:	9901      	ldr	r1, [sp, #4]
 8000316:	b003      	add	sp, #12
 8000318:	bcf0      	pop	{r4, r5, r6, r7}
 800031a:	46bb      	mov	fp, r7
 800031c:	46b2      	mov	sl, r6
 800031e:	46a9      	mov	r9, r5
 8000320:	46a0      	mov	r8, r4
 8000322:	bdf0      	pop	{r4, r5, r6, r7, pc}
 8000324:	4642      	mov	r2, r8
 8000326:	469b      	mov	fp, r3
 8000328:	2320      	movs	r3, #32
 800032a:	1a9b      	subs	r3, r3, r2
 800032c:	4652      	mov	r2, sl
 800032e:	40da      	lsrs	r2, r3
 8000330:	4641      	mov	r1, r8
 8000332:	0013      	movs	r3, r2
 8000334:	464a      	mov	r2, r9
 8000336:	408a      	lsls	r2, r1
 8000338:	0017      	movs	r7, r2
 800033a:	4642      	mov	r2, r8
 800033c:	431f      	orrs	r7, r3
 800033e:	4653      	mov	r3, sl
 8000340:	4093      	lsls	r3, r2
 8000342:	001e      	movs	r6, r3
 8000344:	42af      	cmp	r7, r5
 8000346:	d9c3      	bls.n	80002d0 <__udivmoddi4+0x4c>
 8000348:	2200      	movs	r2, #0
 800034a:	2300      	movs	r3, #0
 800034c:	9200      	str	r2, [sp, #0]
 800034e:	9301      	str	r3, [sp, #4]
 8000350:	4643      	mov	r3, r8
 8000352:	2b00      	cmp	r3, #0
 8000354:	d0d8      	beq.n	8000308 <__udivmoddi4+0x84>
 8000356:	07fb      	lsls	r3, r7, #31
 8000358:	0872      	lsrs	r2, r6, #1
 800035a:	431a      	orrs	r2, r3
 800035c:	4646      	mov	r6, r8
 800035e:	087b      	lsrs	r3, r7, #1
 8000360:	e00e      	b.n	8000380 <__udivmoddi4+0xfc>
 8000362:	42ab      	cmp	r3, r5
 8000364:	d101      	bne.n	800036a <__udivmoddi4+0xe6>
 8000366:	42a2      	cmp	r2, r4
 8000368:	d80c      	bhi.n	8000384 <__udivmoddi4+0x100>
 800036a:	1aa4      	subs	r4, r4, r2
 800036c:	419d      	sbcs	r5, r3
 800036e:	2001      	movs	r0, #1
 8000370:	1924      	adds	r4, r4, r4
 8000372:	416d      	adcs	r5, r5
 8000374:	2100      	movs	r1, #0
 8000376:	3e01      	subs	r6, #1
 8000378:	1824      	adds	r4, r4, r0
 800037a:	414d      	adcs	r5, r1
 800037c:	2e00      	cmp	r6, #0
 800037e:	d006      	beq.n	800038e <__udivmoddi4+0x10a>
 8000380:	42ab      	cmp	r3, r5
 8000382:	d9ee      	bls.n	8000362 <__udivmoddi4+0xde>
 8000384:	3e01      	subs	r6, #1
 8000386:	1924      	adds	r4, r4, r4
 8000388:	416d      	adcs	r5, r5
 800038a:	2e00      	cmp	r6, #0
 800038c:	d1f8      	bne.n	8000380 <__udivmoddi4+0xfc>
 800038e:	9800      	ldr	r0, [sp, #0]
 8000390:	9901      	ldr	r1, [sp, #4]
 8000392:	465b      	mov	r3, fp
 8000394:	1900      	adds	r0, r0, r4
 8000396:	4169      	adcs	r1, r5
 8000398:	2b00      	cmp	r3, #0
 800039a:	db24      	blt.n	80003e6 <__udivmoddi4+0x162>
 800039c:	002b      	movs	r3, r5
 800039e:	465a      	mov	r2, fp
 80003a0:	4644      	mov	r4, r8
 80003a2:	40d3      	lsrs	r3, r2
 80003a4:	002a      	movs	r2, r5
 80003a6:	40e2      	lsrs	r2, r4
 80003a8:	001c      	movs	r4, r3
 80003aa:	465b      	mov	r3, fp
 80003ac:	0015      	movs	r5, r2
 80003ae:	2b00      	cmp	r3, #0
 80003b0:	db2a      	blt.n	8000408 <__udivmoddi4+0x184>
 80003b2:	0026      	movs	r6, r4
 80003b4:	409e      	lsls	r6, r3
 80003b6:	0033      	movs	r3, r6
 80003b8:	0026      	movs	r6, r4
 80003ba:	4647      	mov	r7, r8
 80003bc:	40be      	lsls	r6, r7
 80003be:	0032      	movs	r2, r6
 80003c0:	1a80      	subs	r0, r0, r2
 80003c2:	4199      	sbcs	r1, r3
 80003c4:	9000      	str	r0, [sp, #0]
 80003c6:	9101      	str	r1, [sp, #4]
 80003c8:	e79e      	b.n	8000308 <__udivmoddi4+0x84>
 80003ca:	42a3      	cmp	r3, r4
 80003cc:	d8bc      	bhi.n	8000348 <__udivmoddi4+0xc4>
 80003ce:	e782      	b.n	80002d6 <__udivmoddi4+0x52>
 80003d0:	4642      	mov	r2, r8
 80003d2:	2320      	movs	r3, #32
 80003d4:	2100      	movs	r1, #0
 80003d6:	1a9b      	subs	r3, r3, r2
 80003d8:	2200      	movs	r2, #0
 80003da:	9100      	str	r1, [sp, #0]
 80003dc:	9201      	str	r2, [sp, #4]
 80003de:	2201      	movs	r2, #1
 80003e0:	40da      	lsrs	r2, r3
 80003e2:	9201      	str	r2, [sp, #4]
 80003e4:	e785      	b.n	80002f2 <__udivmoddi4+0x6e>
 80003e6:	4642      	mov	r2, r8
 80003e8:	2320      	movs	r3, #32
 80003ea:	1a9b      	subs	r3, r3, r2
 80003ec:	002a      	movs	r2, r5
 80003ee:	4646      	mov	r6, r8
 80003f0:	409a      	lsls	r2, r3
 80003f2:	0023      	movs	r3, r4
 80003f4:	40f3      	lsrs	r3, r6
 80003f6:	4644      	mov	r4, r8
 80003f8:	4313      	orrs	r3, r2
 80003fa:	002a      	movs	r2, r5
 80003fc:	40e2      	lsrs	r2, r4
 80003fe:	001c      	movs	r4, r3
 8000400:	465b      	mov	r3, fp
 8000402:	0015      	movs	r5, r2
 8000404:	2b00      	cmp	r3, #0
 8000406:	dad4      	bge.n	80003b2 <__udivmoddi4+0x12e>
 8000408:	4642      	mov	r2, r8
 800040a:	002f      	movs	r7, r5
 800040c:	2320      	movs	r3, #32
 800040e:	0026      	movs	r6, r4
 8000410:	4097      	lsls	r7, r2
 8000412:	1a9b      	subs	r3, r3, r2
 8000414:	40de      	lsrs	r6, r3
 8000416:	003b      	movs	r3, r7
 8000418:	4333      	orrs	r3, r6
 800041a:	e7cd      	b.n	80003b8 <__udivmoddi4+0x134>

0800041c <__clzdi2>:
 800041c:	b510      	push	{r4, lr}
 800041e:	2900      	cmp	r1, #0
 8000420:	d103      	bne.n	800042a <__clzdi2+0xe>
 8000422:	f000 f807 	bl	8000434 <__clzsi2>
 8000426:	3020      	adds	r0, #32
 8000428:	e002      	b.n	8000430 <__clzdi2+0x14>
 800042a:	0008      	movs	r0, r1
 800042c:	f000 f802 	bl	8000434 <__clzsi2>
 8000430:	bd10      	pop	{r4, pc}
 8000432:	46c0      	nop			@ (mov r8, r8)

08000434 <__clzsi2>:
 8000434:	211c      	movs	r1, #28
 8000436:	2301      	movs	r3, #1
 8000438:	041b      	lsls	r3, r3, #16
 800043a:	4298      	cmp	r0, r3
 800043c:	d301      	bcc.n	8000442 <__clzsi2+0xe>
 800043e:	0c00      	lsrs	r0, r0, #16
 8000440:	3910      	subs	r1, #16
 8000442:	0a1b      	lsrs	r3, r3, #8
 8000444:	4298      	cmp	r0, r3
 8000446:	d301      	bcc.n	800044c <__clzsi2+0x18>
 8000448:	0a00      	lsrs	r0, r0, #8
 800044a:	3908      	subs	r1, #8
 800044c:	091b      	lsrs	r3, r3, #4
 800044e:	4298      	cmp	r0, r3
 8000450:	d301      	bcc.n	8000456 <__clzsi2+0x22>
 8000452:	0900      	lsrs	r0, r0, #4
 8000454:	3904      	subs	r1, #4
 8000456:	a202      	add	r2, pc, #8	@ (adr r2, 8000460 <__clzsi2+0x2c>)
 8000458:	5c10      	ldrb	r0, [r2, r0]
 800045a:	1840      	adds	r0, r0, r1
 800045c:	4770      	bx	lr
 800045e:	46c0      	nop			@ (mov r8, r8)
 8000460:	02020304 	.word	0x02020304
 8000464:	01010101 	.word	0x01010101
	...

08000470 <MX_DMA_Init>:
 8000470:	b580      	push	{r7, lr}
 8000472:	b082      	sub	sp, #8
 8000474:	af00      	add	r7, sp, #0
 8000476:	4b10      	ldr	r3, [pc, #64]	@ (80004b8 <MX_DMA_Init+0x48>)
 8000478:	6b1a      	ldr	r2, [r3, #48]	@ 0x30
 800047a:	4b0f      	ldr	r3, [pc, #60]	@ (80004b8 <MX_DMA_Init+0x48>)
 800047c:	2101      	movs	r1, #1
 800047e:	430a      	orrs	r2, r1
 8000480:	631a      	str	r2, [r3, #48]	@ 0x30
 8000482:	4b0d      	ldr	r3, [pc, #52]	@ (80004b8 <MX_DMA_Init+0x48>)
 8000484:	6b1b      	ldr	r3, [r3, #48]	@ 0x30
 8000486:	2201      	movs	r2, #1
 8000488:	4013      	ands	r3, r2
 800048a:	607b      	str	r3, [r7, #4]
 800048c:	687b      	ldr	r3, [r7, #4]
 800048e:	2200      	movs	r2, #0
 8000490:	2100      	movs	r1, #0
 8000492:	200a      	movs	r0, #10
 8000494:	f001 f80c 	bl	80014b0 <HAL_NVIC_SetPriority>
 8000498:	200a      	movs	r0, #10
 800049a:	f001 f81e 	bl	80014da <HAL_NVIC_EnableIRQ>
 800049e:	2200      	movs	r2, #0
 80004a0:	2100      	movs	r1, #0
 80004a2:	200b      	movs	r0, #11
 80004a4:	f001 f804 	bl	80014b0 <HAL_NVIC_SetPriority>
 80004a8:	200b      	movs	r0, #11
 80004aa:	f001 f816 	bl	80014da <HAL_NVIC_EnableIRQ>
 80004ae:	46c0      	nop			@ (mov r8, r8)
 80004b0:	46bd      	mov	sp, r7
 80004b2:	b002      	add	sp, #8
 80004b4:	bd80      	pop	{r7, pc}
 80004b6:	46c0      	nop			@ (mov r8, r8)
 80004b8:	40021000 	.word	0x40021000

080004bc <MX_GPIO_Init>:
 80004bc:	b590      	push	{r4, r7, lr}
 80004be:	b089      	sub	sp, #36	@ 0x24
 80004c0:	af00      	add	r7, sp, #0
 80004c2:	240c      	movs	r4, #12
 80004c4:	193b      	adds	r3, r7, r4
 80004c6:	0018      	movs	r0, r3
 80004c8:	2314      	movs	r3, #20
 80004ca:	001a      	movs	r2, r3
 80004cc:	2100      	movs	r1, #0
 80004ce:	f005 fc15 	bl	8005cfc <memset>
 80004d2:	4b28      	ldr	r3, [pc, #160]	@ (8000574 <MX_GPIO_Init+0xb8>)
 80004d4:	6ada      	ldr	r2, [r3, #44]	@ 0x2c
 80004d6:	4b27      	ldr	r3, [pc, #156]	@ (8000574 <MX_GPIO_Init+0xb8>)
 80004d8:	2104      	movs	r1, #4
 80004da:	430a      	orrs	r2, r1
 80004dc:	62da      	str	r2, [r3, #44]	@ 0x2c
 80004de:	4b25      	ldr	r3, [pc, #148]	@ (8000574 <MX_GPIO_Init+0xb8>)
 80004e0:	6adb      	ldr	r3, [r3, #44]	@ 0x2c
 80004e2:	2204      	movs	r2, #4
 80004e4:	4013      	ands	r3, r2
 80004e6:	60bb      	str	r3, [r7, #8]
 80004e8:	68bb      	ldr	r3, [r7, #8]
 80004ea:	4b22      	ldr	r3, [pc, #136]	@ (8000574 <MX_GPIO_Init+0xb8>)
 80004ec:	6ada      	ldr	r2, [r3, #44]	@ 0x2c
 80004ee:	4b21      	ldr	r3, [pc, #132]	@ (8000574 <MX_GPIO_Init+0xb8>)
 80004f0:	2101      	movs	r1, #1
 80004f2:	430a      	orrs	r2, r1
 80004f4:	62da      	str	r2, [r3, #44]	@ 0x2c
 80004f6:	4b1f      	ldr	r3, [pc, #124]	@ (8000574 <MX_GPIO_Init+0xb8>)
 80004f8:	6adb      	ldr	r3, [r3, #44]	@ 0x2c
 80004fa:	2201      	movs	r2, #1
 80004fc:	4013      	ands	r3, r2
 80004fe:	607b      	str	r3, [r7, #4]
 8000500:	687b      	ldr	r3, [r7, #4]
 8000502:	4b1c      	ldr	r3, [pc, #112]	@ (8000574 <MX_GPIO_Init+0xb8>)
 8000504:	6ada      	ldr	r2, [r3, #44]	@ 0x2c
 8000506:	4b1b      	ldr	r3, [pc, #108]	@ (8000574 <MX_GPIO_Init+0xb8>)
 8000508:	2102      	movs	r1, #2
 800050a:	430a      	orrs	r2, r1
 800050c:	62da      	str	r2, [r3, #44]	@ 0x2c
 800050e:	4b19      	ldr	r3, [pc, #100]	@ (8000574 <MX_GPIO_Init+0xb8>)
 8000510:	6adb      	ldr	r3, [r3, #44]	@ 0x2c
 8000512:	2202      	movs	r2, #2
 8000514:	4013      	ands	r3, r2
 8000516:	603b      	str	r3, [r7, #0]
 8000518:	683b      	ldr	r3, [r7, #0]
 800051a:	4b17      	ldr	r3, [pc, #92]	@ (8000578 <MX_GPIO_Init+0xbc>)
 800051c:	2200      	movs	r2, #0
 800051e:	2120      	movs	r1, #32
 8000520:	0018      	movs	r0, r3
 8000522:	f001 fd11 	bl	8001f48 <HAL_GPIO_WritePin>
 8000526:	193b      	adds	r3, r7, r4
 8000528:	2220      	movs	r2, #32
 800052a:	601a      	str	r2, [r3, #0]
 800052c:	193b      	adds	r3, r7, r4
 800052e:	2200      	movs	r2, #0
 8000530:	605a      	str	r2, [r3, #4]
 8000532:	193b      	adds	r3, r7, r4
 8000534:	2200      	movs	r2, #0
 8000536:	609a      	str	r2, [r3, #8]
 8000538:	193a      	adds	r2, r7, r4
 800053a:	23a0      	movs	r3, #160	@ 0xa0
 800053c:	05db      	lsls	r3, r3, #23
 800053e:	0011      	movs	r1, r2
 8000540:	0018      	movs	r0, r3
 8000542:	f001 faa1 	bl	8001a88 <HAL_GPIO_Init>
 8000546:	0021      	movs	r1, r4
 8000548:	187b      	adds	r3, r7, r1
 800054a:	2220      	movs	r2, #32
 800054c:	601a      	str	r2, [r3, #0]
 800054e:	187b      	adds	r3, r7, r1
 8000550:	2201      	movs	r2, #1
 8000552:	605a      	str	r2, [r3, #4]
 8000554:	187b      	adds	r3, r7, r1
 8000556:	2200      	movs	r2, #0
 8000558:	609a      	str	r2, [r3, #8]
 800055a:	187b      	adds	r3, r7, r1
 800055c:	2200      	movs	r2, #0
 800055e:	60da      	str	r2, [r3, #12]
 8000560:	187b      	adds	r3, r7, r1
 8000562:	4a05      	ldr	r2, [pc, #20]	@ (8000578 <MX_GPIO_Init+0xbc>)
 8000564:	0019      	movs	r1, r3
 8000566:	0010      	movs	r0, r2
 8000568:	f001 fa8e 	bl	8001a88 <HAL_GPIO_Init>
 800056c:	46c0      	nop			@ (mov r8, r8)
 800056e:	46bd      	mov	sp, r7
 8000570:	b009      	add	sp, #36	@ 0x24
 8000572:	bd90      	pop	{r4, r7, pc}
 8000574:	40021000 	.word	0x40021000
 8000578:	50000400 	.word	0x50000400

0800057c <MX_I2C1_Init>:
 800057c:	b580      	push	{r7, lr}
 800057e:	af00      	add	r7, sp, #0
 8000580:	4b1b      	ldr	r3, [pc, #108]	@ (80005f0 <MX_I2C1_Init+0x74>)
 8000582:	4a1c      	ldr	r2, [pc, #112]	@ (80005f4 <MX_I2C1_Init+0x78>)
 8000584:	601a      	str	r2, [r3, #0]
 8000586:	4b1a      	ldr	r3, [pc, #104]	@ (80005f0 <MX_I2C1_Init+0x74>)
 8000588:	4a1b      	ldr	r2, [pc, #108]	@ (80005f8 <MX_I2C1_Init+0x7c>)
 800058a:	605a      	str	r2, [r3, #4]
 800058c:	4b18      	ldr	r3, [pc, #96]	@ (80005f0 <MX_I2C1_Init+0x74>)
 800058e:	2200      	movs	r2, #0
 8000590:	609a      	str	r2, [r3, #8]
 8000592:	4b17      	ldr	r3, [pc, #92]	@ (80005f0 <MX_I2C1_Init+0x74>)
 8000594:	2201      	movs	r2, #1
 8000596:	60da      	str	r2, [r3, #12]
 8000598:	4b15      	ldr	r3, [pc, #84]	@ (80005f0 <MX_I2C1_Init+0x74>)
 800059a:	2200      	movs	r2, #0
 800059c:	611a      	str	r2, [r3, #16]
 800059e:	4b14      	ldr	r3, [pc, #80]	@ (80005f0 <MX_I2C1_Init+0x74>)
 80005a0:	2200      	movs	r2, #0
 80005a2:	615a      	str	r2, [r3, #20]
 80005a4:	4b12      	ldr	r3, [pc, #72]	@ (80005f0 <MX_I2C1_Init+0x74>)
 80005a6:	2200      	movs	r2, #0
 80005a8:	619a      	str	r2, [r3, #24]
 80005aa:	4b11      	ldr	r3, [pc, #68]	@ (80005f0 <MX_I2C1_Init+0x74>)
 80005ac:	2200      	movs	r2, #0
 80005ae:	61da      	str	r2, [r3, #28]
 80005b0:	4b0f      	ldr	r3, [pc, #60]	@ (80005f0 <MX_I2C1_Init+0x74>)
 80005b2:	2200      	movs	r2, #0
 80005b4:	621a      	str	r2, [r3, #32]
 80005b6:	4b0e      	ldr	r3, [pc, #56]	@ (80005f0 <MX_I2C1_Init+0x74>)
 80005b8:	0018      	movs	r0, r3
 80005ba:	f001 fce3 	bl	8001f84 <HAL_I2C_Init>
 80005be:	1e03      	subs	r3, r0, #0
 80005c0:	d001      	beq.n	80005c6 <MX_I2C1_Init+0x4a>
 80005c2:	f000 fb07 	bl	8000bd4 <Error_Handler>
 80005c6:	4b0a      	ldr	r3, [pc, #40]	@ (80005f0 <MX_I2C1_Init+0x74>)
 80005c8:	2100      	movs	r1, #0
 80005ca:	0018      	movs	r0, r3
 80005cc:	f001 fdb0 	bl	8002130 <HAL_I2CEx_ConfigAnalogFilter>
 80005d0:	1e03      	subs	r3, r0, #0
 80005d2:	d001      	beq.n	80005d8 <MX_I2C1_Init+0x5c>
 80005d4:	f000 fafe 	bl	8000bd4 <Error_Handler>
 80005d8:	4b05      	ldr	r3, [pc, #20]	@ (80005f0 <MX_I2C1_Init+0x74>)
 80005da:	2100      	movs	r1, #0
 80005dc:	0018      	movs	r0, r3
 80005de:	f001 fdf3 	bl	80021c8 <HAL_I2CEx_ConfigDigitalFilter>
 80005e2:	1e03      	subs	r3, r0, #0
 80005e4:	d001      	beq.n	80005ea <MX_I2C1_Init+0x6e>
 80005e6:	f000 faf5 	bl	8000bd4 <Error_Handler>
 80005ea:	46c0      	nop			@ (mov r8, r8)
 80005ec:	46bd      	mov	sp, r7
 80005ee:	bd80      	pop	{r7, pc}
 80005f0:	2000007c 	.word	0x2000007c
 80005f4:	40005400 	.word	0x40005400
 80005f8:	00000202 	.word	0x00000202

080005fc <HAL_I2C_MspInit>:
 80005fc:	b590      	push	{r4, r7, lr}
 80005fe:	b089      	sub	sp, #36	@ 0x24
 8000600:	af00      	add	r7, sp, #0
 8000602:	6078      	str	r0, [r7, #4]
 8000604:	240c      	movs	r4, #12
 8000606:	193b      	adds	r3, r7, r4
 8000608:	0018      	movs	r0, r3
 800060a:	2314      	movs	r3, #20
 800060c:	001a      	movs	r2, r3
 800060e:	2100      	movs	r1, #0
 8000610:	f005 fb74 	bl	8005cfc <memset>
 8000614:	687b      	ldr	r3, [r7, #4]
 8000616:	681b      	ldr	r3, [r3, #0]
 8000618:	4a17      	ldr	r2, [pc, #92]	@ (8000678 <HAL_I2C_MspInit+0x7c>)
 800061a:	4293      	cmp	r3, r2
 800061c:	d128      	bne.n	8000670 <HAL_I2C_MspInit+0x74>
 800061e:	4b17      	ldr	r3, [pc, #92]	@ (800067c <HAL_I2C_MspInit+0x80>)
 8000620:	6ada      	ldr	r2, [r3, #44]	@ 0x2c
 8000622:	4b16      	ldr	r3, [pc, #88]	@ (800067c <HAL_I2C_MspInit+0x80>)
 8000624:	2102      	movs	r1, #2
 8000626:	430a      	orrs	r2, r1
 8000628:	62da      	str	r2, [r3, #44]	@ 0x2c
 800062a:	4b14      	ldr	r3, [pc, #80]	@ (800067c <HAL_I2C_MspInit+0x80>)
 800062c:	6adb      	ldr	r3, [r3, #44]	@ 0x2c
 800062e:	2202      	movs	r2, #2
 8000630:	4013      	ands	r3, r2
 8000632:	60bb      	str	r3, [r7, #8]
 8000634:	68bb      	ldr	r3, [r7, #8]
 8000636:	0021      	movs	r1, r4
 8000638:	187b      	adds	r3, r7, r1
 800063a:	22c0      	movs	r2, #192	@ 0xc0
 800063c:	601a      	str	r2, [r3, #0]
 800063e:	187b      	adds	r3, r7, r1
 8000640:	2212      	movs	r2, #18
 8000642:	605a      	str	r2, [r3, #4]
 8000644:	187b      	adds	r3, r7, r1
 8000646:	2201      	movs	r2, #1
 8000648:	609a      	str	r2, [r3, #8]
 800064a:	187b      	adds	r3, r7, r1
 800064c:	2203      	movs	r2, #3
 800064e:	60da      	str	r2, [r3, #12]
 8000650:	187b      	adds	r3, r7, r1
 8000652:	2201      	movs	r2, #1
 8000654:	611a      	str	r2, [r3, #16]
 8000656:	187b      	adds	r3, r7, r1
 8000658:	4a09      	ldr	r2, [pc, #36]	@ (8000680 <HAL_I2C_MspInit+0x84>)
 800065a:	0019      	movs	r1, r3
 800065c:	0010      	movs	r0, r2
 800065e:	f001 fa13 	bl	8001a88 <HAL_GPIO_Init>
 8000662:	4b06      	ldr	r3, [pc, #24]	@ (800067c <HAL_I2C_MspInit+0x80>)
 8000664:	6b9a      	ldr	r2, [r3, #56]	@ 0x38
 8000666:	4b05      	ldr	r3, [pc, #20]	@ (800067c <HAL_I2C_MspInit+0x80>)
 8000668:	2180      	movs	r1, #128	@ 0x80
 800066a:	0389      	lsls	r1, r1, #14
 800066c:	430a      	orrs	r2, r1
 800066e:	639a      	str	r2, [r3, #56]	@ 0x38
 8000670:	46c0      	nop			@ (mov r8, r8)
 8000672:	46bd      	mov	sp, r7
 8000674:	b009      	add	sp, #36	@ 0x24
 8000676:	bd90      	pop	{r4, r7, pc}
 8000678:	40005400 	.word	0x40005400
 800067c:	40021000 	.word	0x40021000
 8000680:	50000400 	.word	0x50000400

08000684 <HAL_I2C_MspDeInit>:
 8000684:	b580      	push	{r7, lr}
 8000686:	b082      	sub	sp, #8
 8000688:	af00      	add	r7, sp, #0
 800068a:	6078      	str	r0, [r7, #4]
 800068c:	687b      	ldr	r3, [r7, #4]
 800068e:	681b      	ldr	r3, [r3, #0]
 8000690:	4a0b      	ldr	r2, [pc, #44]	@ (80006c0 <HAL_I2C_MspDeInit+0x3c>)
 8000692:	4293      	cmp	r3, r2
 8000694:	d10f      	bne.n	80006b6 <HAL_I2C_MspDeInit+0x32>
 8000696:	4b0b      	ldr	r3, [pc, #44]	@ (80006c4 <HAL_I2C_MspDeInit+0x40>)
 8000698:	6b9a      	ldr	r2, [r3, #56]	@ 0x38
 800069a:	4b0a      	ldr	r3, [pc, #40]	@ (80006c4 <HAL_I2C_MspDeInit+0x40>)
 800069c:	490a      	ldr	r1, [pc, #40]	@ (80006c8 <HAL_I2C_MspDeInit+0x44>)
 800069e:	400a      	ands	r2, r1
 80006a0:	639a      	str	r2, [r3, #56]	@ 0x38
 80006a2:	4b0a      	ldr	r3, [pc, #40]	@ (80006cc <HAL_I2C_MspDeInit+0x48>)
 80006a4:	2140      	movs	r1, #64	@ 0x40
 80006a6:	0018      	movs	r0, r3
 80006a8:	f001 fb6c 	bl	8001d84 <HAL_GPIO_DeInit>
 80006ac:	4b07      	ldr	r3, [pc, #28]	@ (80006cc <HAL_I2C_MspDeInit+0x48>)
 80006ae:	2180      	movs	r1, #128	@ 0x80
 80006b0:	0018      	movs	r0, r3
 80006b2:	f001 fb67 	bl	8001d84 <HAL_GPIO_DeInit>
 80006b6:	46c0      	nop			@ (mov r8, r8)
 80006b8:	46bd      	mov	sp, r7
 80006ba:	b002      	add	sp, #8
 80006bc:	bd80      	pop	{r7, pc}
 80006be:	46c0      	nop			@ (mov r8, r8)
 80006c0:	40005400 	.word	0x40005400
 80006c4:	40021000 	.word	0x40021000
 80006c8:	ffdfffff 	.word	0xffdfffff
 80006cc:	50000400 	.word	0x50000400

080006d0 <cb_WAKE>:
/* USER CODE END PFP */

/* Private user code ---------------------------------------------------------*/
/* USER CODE BEGIN 0 */
void cb_WAKE(const char* str)
{
 80006d0:	b580      	push	{r7, lr}
 80006d2:	b082      	sub	sp, #8
 80006d4:	af00      	add	r7, sp, #0
 80006d6:	6078      	str	r0, [r7, #4]
  __NOP();
 80006d8:	46c0      	nop			@ (mov r8, r8)
}
 80006da:	46c0      	nop			@ (mov r8, r8)
 80006dc:	46bd      	mov	sp, r7
 80006de:	b002      	add	sp, #8
 80006e0:	bd80      	pop	{r7, pc}

080006e2 <cb_OK>:
void cb_OK(const char* str)
{
 80006e2:	b580      	push	{r7, lr}
 80006e4:	b082      	sub	sp, #8
 80006e6:	af00      	add	r7, sp, #0
 80006e8:	6078      	str	r0, [r7, #4]
  __NOP();
 80006ea:	46c0      	nop			@ (mov r8, r8)
}
 80006ec:	46c0      	nop			@ (mov r8, r8)
 80006ee:	46bd      	mov	sp, r7
 80006f0:	b002      	add	sp, #8
 80006f2:	bd80      	pop	{r7, pc}

080006f4 <cb_JOIN>:
void cb_JOIN(const char* str)
{
 80006f4:	b580      	push	{r7, lr}
 80006f6:	b082      	sub	sp, #8
 80006f8:	af00      	add	r7, sp, #0
 80006fa:	6078      	str	r0, [r7, #4]
	switch (str[7]) {
 80006fc:	687b      	ldr	r3, [r7, #4]
 80006fe:	3307      	adds	r3, #7
 8000700:	781b      	ldrb	r3, [r3, #0]
 8000702:	2b46      	cmp	r3, #70	@ 0x46
 8000704:	d008      	beq.n	8000718 <cb_JOIN+0x24>
 8000706:	2b4f      	cmp	r3, #79	@ 0x4f
 8000708:	d10a      	bne.n	8000720 <cb_JOIN+0x2c>
		case 'O':
			joined = true;
 800070a:	4b0a      	ldr	r3, [pc, #40]	@ (8000734 <cb_JOIN+0x40>)
 800070c:	2201      	movs	r2, #1
 800070e:	701a      	strb	r2, [r3, #0]
			device_state = DEVICE_COLLECT_DATA;
 8000710:	4b09      	ldr	r3, [pc, #36]	@ (8000738 <cb_JOIN+0x44>)
 8000712:	2201      	movs	r2, #1
 8000714:	701a      	strb	r2, [r3, #0]
			break;
 8000716:	e004      	b.n	8000722 <cb_JOIN+0x2e>
		case 'F':
			joined = false;
 8000718:	4b06      	ldr	r3, [pc, #24]	@ (8000734 <cb_JOIN+0x40>)
 800071a:	2200      	movs	r2, #0
 800071c:	701a      	strb	r2, [r3, #0]
			break;
 800071e:	e000      	b.n	8000722 <cb_JOIN+0x2e>
		default:
			__NOP();
 8000720:	46c0      	nop			@ (mov r8, r8)
	}
	HAL_Delay(500);
 8000722:	23fa      	movs	r3, #250	@ 0xfa
 8000724:	005b      	lsls	r3, r3, #1
 8000726:	0018      	movs	r0, r3
 8000728:	f000 fdd0 	bl	80012cc <HAL_Delay>
}
 800072c:	46c0      	nop			@ (mov r8, r8)
 800072e:	46bd      	mov	sp, r7
 8000730:	b002      	add	sp, #8
 8000732:	bd80      	pop	{r7, pc}
 8000734:	20000148 	.word	0x20000148
 8000738:	20000000 	.word	0x20000000

0800073c <Get_RTC_Timestamp>:
	{ "OK",              cb_OK                  }, // I will remove this later as it is not imporant to know this
	{ "JOIN: [",         cb_JOIN                },
	{ NULL,              NULL                   }  // CRITICAL: Add this terminator!
};

void Get_RTC_Timestamp(char *buffer, uint16_t buffer_size) {
 800073c:	b5f0      	push	{r4, r5, r6, r7, lr}
 800073e:	46c6      	mov	lr, r8
 8000740:	b500      	push	{lr}
 8000742:	b08e      	sub	sp, #56	@ 0x38
 8000744:	af06      	add	r7, sp, #24
 8000746:	6078      	str	r0, [r7, #4]
 8000748:	000a      	movs	r2, r1
 800074a:	1cbb      	adds	r3, r7, #2
 800074c:	801a      	strh	r2, [r3, #0]
    RTC_DateTypeDef sDate = {0};
 800074e:	241c      	movs	r4, #28
 8000750:	193b      	adds	r3, r7, r4
 8000752:	2200      	movs	r2, #0
 8000754:	601a      	str	r2, [r3, #0]
    RTC_TimeTypeDef sTime = {0};
 8000756:	2608      	movs	r6, #8
 8000758:	19bb      	adds	r3, r7, r6
 800075a:	0018      	movs	r0, r3
 800075c:	2314      	movs	r3, #20
 800075e:	001a      	movs	r2, r3
 8000760:	2100      	movs	r1, #0
 8000762:	f005 facb 	bl	8005cfc <memset>

    // Get the current time and date
    HAL_RTC_GetTime(&hrtc, &sTime, RTC_FORMAT_BIN);
 8000766:	19b9      	adds	r1, r7, r6
 8000768:	4b18      	ldr	r3, [pc, #96]	@ (80007cc <Get_RTC_Timestamp+0x90>)
 800076a:	2200      	movs	r2, #0
 800076c:	0018      	movs	r0, r3
 800076e:	f002 fde5 	bl	800333c <HAL_RTC_GetTime>
    HAL_RTC_GetDate(&hrtc, &sDate, RTC_FORMAT_BIN);
 8000772:	1939      	adds	r1, r7, r4
 8000774:	4b15      	ldr	r3, [pc, #84]	@ (80007cc <Get_RTC_Timestamp+0x90>)
 8000776:	2200      	movs	r2, #0
 8000778:	0018      	movs	r0, r3
 800077a:	f002 fe3d 	bl	80033f8 <HAL_RTC_GetDate>

    // Format the timestamp as [YYYY-MM-DD HH:MM:SS]
    snprintf(buffer, buffer_size, "[20%02d-%02d-%02d %02d:%02d:%02d] ",
 800077e:	1cbb      	adds	r3, r7, #2
 8000780:	8819      	ldrh	r1, [r3, #0]
             sDate.Year, sDate.Month, sDate.Date,
 8000782:	0022      	movs	r2, r4
 8000784:	18bb      	adds	r3, r7, r2
 8000786:	78db      	ldrb	r3, [r3, #3]
    snprintf(buffer, buffer_size, "[20%02d-%02d-%02d %02d:%02d:%02d] ",
 8000788:	4698      	mov	r8, r3
             sDate.Year, sDate.Month, sDate.Date,
 800078a:	18bb      	adds	r3, r7, r2
 800078c:	785b      	ldrb	r3, [r3, #1]
    snprintf(buffer, buffer_size, "[20%02d-%02d-%02d %02d:%02d:%02d] ",
 800078e:	001c      	movs	r4, r3
             sDate.Year, sDate.Month, sDate.Date,
 8000790:	18bb      	adds	r3, r7, r2
 8000792:	789b      	ldrb	r3, [r3, #2]
    snprintf(buffer, buffer_size, "[20%02d-%02d-%02d %02d:%02d:%02d] ",
 8000794:	001d      	movs	r5, r3
             sTime.Hours, sTime.Minutes, sTime.Seconds);
 8000796:	0032      	movs	r2, r6
 8000798:	18bb      	adds	r3, r7, r2
 800079a:	781b      	ldrb	r3, [r3, #0]
    snprintf(buffer, buffer_size, "[20%02d-%02d-%02d %02d:%02d:%02d] ",
 800079c:	001e      	movs	r6, r3
             sTime.Hours, sTime.Minutes, sTime.Seconds);
 800079e:	18bb      	adds	r3, r7, r2
 80007a0:	785b      	ldrb	r3, [r3, #1]
    snprintf(buffer, buffer_size, "[20%02d-%02d-%02d %02d:%02d:%02d] ",
 80007a2:	469c      	mov	ip, r3
             sTime.Hours, sTime.Minutes, sTime.Seconds);
 80007a4:	18bb      	adds	r3, r7, r2
 80007a6:	789b      	ldrb	r3, [r3, #2]
    snprintf(buffer, buffer_size, "[20%02d-%02d-%02d %02d:%02d:%02d] ",
 80007a8:	4a09      	ldr	r2, [pc, #36]	@ (80007d0 <Get_RTC_Timestamp+0x94>)
 80007aa:	6878      	ldr	r0, [r7, #4]
 80007ac:	9304      	str	r3, [sp, #16]
 80007ae:	4663      	mov	r3, ip
 80007b0:	9303      	str	r3, [sp, #12]
 80007b2:	9602      	str	r6, [sp, #8]
 80007b4:	9501      	str	r5, [sp, #4]
 80007b6:	9400      	str	r4, [sp, #0]
 80007b8:	4643      	mov	r3, r8
 80007ba:	f005 fa69 	bl	8005c90 <sniprintf>
}
 80007be:	46c0      	nop			@ (mov r8, r8)
 80007c0:	46bd      	mov	sp, r7
 80007c2:	b008      	add	sp, #32
 80007c4:	bc80      	pop	{r7}
 80007c6:	46b8      	mov	r8, r7
 80007c8:	bdf0      	pop	{r4, r5, r6, r7, pc}
 80007ca:	46c0      	nop			@ (mov r8, r8)
 80007cc:	2000014c 	.word	0x2000014c
 80007d0:	08006520 	.word	0x08006520

080007d4 <Debug_Print>:

void Debug_Print(const char *message) {
 80007d4:	b5b0      	push	{r4, r5, r7, lr}
 80007d6:	b0ce      	sub	sp, #312	@ 0x138
 80007d8:	af04      	add	r7, sp, #16
 80007da:	6078      	str	r0, [r7, #4]
    char buffer[256]; // Adjust size as needed
    char timestamp[32];

    // Get the timestamp
    Get_RTC_Timestamp(timestamp, sizeof(timestamp));
 80007dc:	2408      	movs	r4, #8
 80007de:	193b      	adds	r3, r7, r4
 80007e0:	2120      	movs	r1, #32
 80007e2:	0018      	movs	r0, r3
 80007e4:	f7ff ffaa 	bl	800073c <Get_RTC_Timestamp>

    // Combine timestamp and message
    snprintf(buffer, sizeof(buffer), "%s%s", timestamp, message);
 80007e8:	193c      	adds	r4, r7, r4
 80007ea:	4a0d      	ldr	r2, [pc, #52]	@ (8000820 <Debug_Print+0x4c>)
 80007ec:	2380      	movs	r3, #128	@ 0x80
 80007ee:	0059      	lsls	r1, r3, #1
 80007f0:	2528      	movs	r5, #40	@ 0x28
 80007f2:	1978      	adds	r0, r7, r5
 80007f4:	687b      	ldr	r3, [r7, #4]
 80007f6:	9300      	str	r3, [sp, #0]
 80007f8:	0023      	movs	r3, r4
 80007fa:	f005 fa49 	bl	8005c90 <sniprintf>

    // Send the debug message
    ATC_SendReceive(&dbg, buffer, 1000, NULL, 3000, 1, "OK");
 80007fe:	23fa      	movs	r3, #250	@ 0xfa
 8000800:	009a      	lsls	r2, r3, #2
 8000802:	1979      	adds	r1, r7, r5
 8000804:	4807      	ldr	r0, [pc, #28]	@ (8000824 <Debug_Print+0x50>)
 8000806:	4b08      	ldr	r3, [pc, #32]	@ (8000828 <Debug_Print+0x54>)
 8000808:	9302      	str	r3, [sp, #8]
 800080a:	2301      	movs	r3, #1
 800080c:	9301      	str	r3, [sp, #4]
 800080e:	4b07      	ldr	r3, [pc, #28]	@ (800082c <Debug_Print+0x58>)
 8000810:	9300      	str	r3, [sp, #0]
 8000812:	2300      	movs	r3, #0
 8000814:	f005 f807 	bl	8005826 <ATC_SendReceive>
}
 8000818:	46c0      	nop			@ (mov r8, r8)
 800081a:	46bd      	mov	sp, r7
 800081c:	b04a      	add	sp, #296	@ 0x128
 800081e:	bdb0      	pop	{r4, r5, r7, pc}
 8000820:	08006544 	.word	0x08006544
 8000824:	2000010c 	.word	0x2000010c
 8000828:	08006514 	.word	0x08006514
 800082c:	00000bb8 	.word	0x00000bb8

08000830 <enter_low_power_mode>:

void enter_low_power_mode(void)
{
 8000830:	b580      	push	{r7, lr}
 8000832:	af00      	add	r7, sp, #0
	Debug_Print("Going to sleep\r\n");
 8000834:	4b19      	ldr	r3, [pc, #100]	@ (800089c <enter_low_power_mode+0x6c>)
 8000836:	0018      	movs	r0, r3
 8000838:	f7ff ffcc 	bl	80007d4 <Debug_Print>

	// De-init I2C
	HAL_I2C_DeInit(&hi2c1);
 800083c:	4b18      	ldr	r3, [pc, #96]	@ (80008a0 <enter_low_power_mode+0x70>)
 800083e:	0018      	movs	r0, r3
 8000840:	f001 fc46 	bl	80020d0 <HAL_I2C_DeInit>
	HAL_UART_DeInit(&huart1);
 8000844:	4b17      	ldr	r3, [pc, #92]	@ (80008a4 <enter_low_power_mode+0x74>)
 8000846:	0018      	movs	r0, r3
 8000848:	f003 f8a4 	bl	8003994 <HAL_UART_DeInit>

//	HARDWARE_PWR_SleepOptimisation(); // WHERE DID THIS GO????

	if (HAL_RTCEx_DeactivateWakeUpTimer(&hrtc) != HAL_OK)
 800084c:	4b16      	ldr	r3, [pc, #88]	@ (80008a8 <enter_low_power_mode+0x78>)
 800084e:	0018      	movs	r0, r3
 8000850:	f002 ffb0 	bl	80037b4 <HAL_RTCEx_DeactivateWakeUpTimer>
 8000854:	1e03      	subs	r3, r0, #0
 8000856:	d001      	beq.n	800085c <enter_low_power_mode+0x2c>
	    {
	        Error_Handler();
 8000858:	f000 f9bc 	bl	8000bd4 <Error_Handler>
	    }

	    /* Configure RTC wake‑up timer for 60 seconds */
	    if (HAL_RTCEx_SetWakeUpTimer_IT(&hrtc, 59, RTC_WAKEUPCLOCK_CK_SPRE_16BITS) != HAL_OK)
 800085c:	4b12      	ldr	r3, [pc, #72]	@ (80008a8 <enter_low_power_mode+0x78>)
 800085e:	2204      	movs	r2, #4
 8000860:	213b      	movs	r1, #59	@ 0x3b
 8000862:	0018      	movs	r0, r3
 8000864:	f002 fece 	bl	8003604 <HAL_RTCEx_SetWakeUpTimer_IT>
 8000868:	1e03      	subs	r3, r0, #0
 800086a:	d001      	beq.n	8000870 <enter_low_power_mode+0x40>
	    {
	        Error_Handler();
 800086c:	f000 f9b2 	bl	8000bd4 <Error_Handler>
	    }

	/* Configure RTC wake-up timer for 60 seconds */
	if (HAL_RTCEx_SetWakeUpTimer_IT(&hrtc, 59, RTC_WAKEUPCLOCK_CK_SPRE_16BITS) != HAL_OK)
 8000870:	4b0d      	ldr	r3, [pc, #52]	@ (80008a8 <enter_low_power_mode+0x78>)
 8000872:	2204      	movs	r2, #4
 8000874:	213b      	movs	r1, #59	@ 0x3b
 8000876:	0018      	movs	r0, r3
 8000878:	f002 fec4 	bl	8003604 <HAL_RTCEx_SetWakeUpTimer_IT>
 800087c:	1e03      	subs	r3, r0, #0
 800087e:	d001      	beq.n	8000884 <enter_low_power_mode+0x54>
	{
	Error_Handler();
 8000880:	f000 f9a8 	bl	8000bd4 <Error_Handler>
	}

	// Enter Stop Mode with low power regulator
	HAL_PWR_EnterSTOPMode(PWR_LOWPOWERREGULATOR_ON, PWR_STOPENTRY_WFI);
 8000884:	2101      	movs	r1, #1
 8000886:	2001      	movs	r0, #1
 8000888:	f001 fcea 	bl	8002260 <HAL_PWR_EnterSTOPMode>

	// When we wake up, execution continues here
	SystemClock_Config();
 800088c:	f000 f8fa 	bl	8000a84 <SystemClock_Config>
	exit_low_power_mode();
 8000890:	f000 f80c 	bl	80008ac <exit_low_power_mode>
}
 8000894:	46c0      	nop			@ (mov r8, r8)
 8000896:	46bd      	mov	sp, r7
 8000898:	bd80      	pop	{r7, pc}
 800089a:	46c0      	nop			@ (mov r8, r8)
 800089c:	0800654c 	.word	0x0800654c
 80008a0:	2000007c 	.word	0x2000007c
 80008a4:	200001fc 	.word	0x200001fc
 80008a8:	2000014c 	.word	0x2000014c

080008ac <exit_low_power_mode>:

void exit_low_power_mode(void)
{
 80008ac:	b580      	push	{r7, lr}
 80008ae:	b084      	sub	sp, #16
 80008b0:	af00      	add	r7, sp, #0
    // Re-enable peripheral clocks
    __HAL_RCC_GPIOA_CLK_ENABLE();
 80008b2:	4b34      	ldr	r3, [pc, #208]	@ (8000984 <exit_low_power_mode+0xd8>)
 80008b4:	6ada      	ldr	r2, [r3, #44]	@ 0x2c
 80008b6:	4b33      	ldr	r3, [pc, #204]	@ (8000984 <exit_low_power_mode+0xd8>)
 80008b8:	2101      	movs	r1, #1
 80008ba:	430a      	orrs	r2, r1
 80008bc:	62da      	str	r2, [r3, #44]	@ 0x2c
 80008be:	4b31      	ldr	r3, [pc, #196]	@ (8000984 <exit_low_power_mode+0xd8>)
 80008c0:	6adb      	ldr	r3, [r3, #44]	@ 0x2c
 80008c2:	2201      	movs	r2, #1
 80008c4:	4013      	ands	r3, r2
 80008c6:	60fb      	str	r3, [r7, #12]
 80008c8:	68fb      	ldr	r3, [r7, #12]
    __HAL_RCC_GPIOB_CLK_ENABLE();
 80008ca:	4b2e      	ldr	r3, [pc, #184]	@ (8000984 <exit_low_power_mode+0xd8>)
 80008cc:	6ada      	ldr	r2, [r3, #44]	@ 0x2c
 80008ce:	4b2d      	ldr	r3, [pc, #180]	@ (8000984 <exit_low_power_mode+0xd8>)
 80008d0:	2102      	movs	r1, #2
 80008d2:	430a      	orrs	r2, r1
 80008d4:	62da      	str	r2, [r3, #44]	@ 0x2c
 80008d6:	4b2b      	ldr	r3, [pc, #172]	@ (8000984 <exit_low_power_mode+0xd8>)
 80008d8:	6adb      	ldr	r3, [r3, #44]	@ 0x2c
 80008da:	2202      	movs	r2, #2
 80008dc:	4013      	ands	r3, r2
 80008de:	60bb      	str	r3, [r7, #8]
 80008e0:	68bb      	ldr	r3, [r7, #8]
    __HAL_RCC_GPIOC_CLK_ENABLE();
 80008e2:	4b28      	ldr	r3, [pc, #160]	@ (8000984 <exit_low_power_mode+0xd8>)
 80008e4:	6ada      	ldr	r2, [r3, #44]	@ 0x2c
 80008e6:	4b27      	ldr	r3, [pc, #156]	@ (8000984 <exit_low_power_mode+0xd8>)
 80008e8:	2104      	movs	r1, #4
 80008ea:	430a      	orrs	r2, r1
 80008ec:	62da      	str	r2, [r3, #44]	@ 0x2c
 80008ee:	4b25      	ldr	r3, [pc, #148]	@ (8000984 <exit_low_power_mode+0xd8>)
 80008f0:	6adb      	ldr	r3, [r3, #44]	@ 0x2c
 80008f2:	2204      	movs	r2, #4
 80008f4:	4013      	ands	r3, r2
 80008f6:	607b      	str	r3, [r7, #4]
 80008f8:	687b      	ldr	r3, [r7, #4]
    __HAL_RCC_I2C1_CLK_ENABLE();
 80008fa:	4b22      	ldr	r3, [pc, #136]	@ (8000984 <exit_low_power_mode+0xd8>)
 80008fc:	6b9a      	ldr	r2, [r3, #56]	@ 0x38
 80008fe:	4b21      	ldr	r3, [pc, #132]	@ (8000984 <exit_low_power_mode+0xd8>)
 8000900:	2180      	movs	r1, #128	@ 0x80
 8000902:	0389      	lsls	r1, r1, #14
 8000904:	430a      	orrs	r2, r1
 8000906:	639a      	str	r2, [r3, #56]	@ 0x38
    __HAL_RCC_LPUART1_CLK_ENABLE();
 8000908:	4b1e      	ldr	r3, [pc, #120]	@ (8000984 <exit_low_power_mode+0xd8>)
 800090a:	6b9a      	ldr	r2, [r3, #56]	@ 0x38
 800090c:	4b1d      	ldr	r3, [pc, #116]	@ (8000984 <exit_low_power_mode+0xd8>)
 800090e:	2180      	movs	r1, #128	@ 0x80
 8000910:	02c9      	lsls	r1, r1, #11
 8000912:	430a      	orrs	r2, r1
 8000914:	639a      	str	r2, [r3, #56]	@ 0x38
    __HAL_RCC_DMA1_CLK_ENABLE();
 8000916:	4b1b      	ldr	r3, [pc, #108]	@ (8000984 <exit_low_power_mode+0xd8>)
 8000918:	6b1a      	ldr	r2, [r3, #48]	@ 0x30
 800091a:	4b1a      	ldr	r3, [pc, #104]	@ (8000984 <exit_low_power_mode+0xd8>)
 800091c:	2101      	movs	r1, #1
 800091e:	430a      	orrs	r2, r1
 8000920:	631a      	str	r2, [r3, #48]	@ 0x30
 8000922:	4b18      	ldr	r3, [pc, #96]	@ (8000984 <exit_low_power_mode+0xd8>)
 8000924:	6b1b      	ldr	r3, [r3, #48]	@ 0x30
 8000926:	2201      	movs	r2, #1
 8000928:	4013      	ands	r3, r2
 800092a:	603b      	str	r3, [r7, #0]
 800092c:	683b      	ldr	r3, [r7, #0]
    
    // Reinitialize GPIOs (this will restore PB5 to its normal configuration)
    MX_GPIO_Init();
 800092e:	f7ff fdc5 	bl	80004bc <MX_GPIO_Init>
    MX_DMA_Init();                              // I did this because it is in the same order as it was generated
 8000932:	f7ff fd9d 	bl	8000470 <MX_DMA_Init>
    MX_I2C1_Init();
 8000936:	f7ff fe21 	bl	800057c <MX_I2C1_Init>
    MX_LPUART1_UART_Init();
 800093a:	f000 fa4d 	bl	8000dd8 <MX_LPUART1_UART_Init>
    MX_USART1_UART_Init();
 800093e:	f000 fa79 	bl	8000e34 <MX_USART1_UART_Init>
    MX_RTC_Init();
 8000942:	f000 f94d 	bl	8000be0 <MX_RTC_Init>
    ATC_Init(&lora, &hlpuart1, 512, "LoRaWAN"); // this SHOULD make the ATC serial commands workagain
 8000946:	4b10      	ldr	r3, [pc, #64]	@ (8000988 <exit_low_power_mode+0xdc>)
 8000948:	2280      	movs	r2, #128	@ 0x80
 800094a:	0092      	lsls	r2, r2, #2
 800094c:	490f      	ldr	r1, [pc, #60]	@ (800098c <exit_low_power_mode+0xe0>)
 800094e:	4810      	ldr	r0, [pc, #64]	@ (8000990 <exit_low_power_mode+0xe4>)
 8000950:	f004 fe7a 	bl	8005648 <ATC_Init>
    ATC_Init(&dbg, &huart1, 512, "Debug");
 8000954:	4b0f      	ldr	r3, [pc, #60]	@ (8000994 <exit_low_power_mode+0xe8>)
 8000956:	2280      	movs	r2, #128	@ 0x80
 8000958:	0092      	lsls	r2, r2, #2
 800095a:	490f      	ldr	r1, [pc, #60]	@ (8000998 <exit_low_power_mode+0xec>)
 800095c:	480f      	ldr	r0, [pc, #60]	@ (800099c <exit_low_power_mode+0xf0>)
 800095e:	f004 fe73 	bl	8005648 <ATC_Init>
    ATC_SetEvents(&lora, events);               // Setup all async events again
 8000962:	4a0f      	ldr	r2, [pc, #60]	@ (80009a0 <exit_low_power_mode+0xf4>)
 8000964:	4b0a      	ldr	r3, [pc, #40]	@ (8000990 <exit_low_power_mode+0xe4>)
 8000966:	0011      	movs	r1, r2
 8000968:	0018      	movs	r0, r3
 800096a:	f004 ff24 	bl	80057b6 <ATC_SetEvents>
    device_state = DEVICE_COLLECT_DATA;
 800096e:	4b0d      	ldr	r3, [pc, #52]	@ (80009a4 <exit_low_power_mode+0xf8>)
 8000970:	2201      	movs	r2, #1
 8000972:	701a      	strb	r2, [r3, #0]

	Debug_Print("Waking UP!\r\n");
 8000974:	4b0c      	ldr	r3, [pc, #48]	@ (80009a8 <exit_low_power_mode+0xfc>)
 8000976:	0018      	movs	r0, r3
 8000978:	f7ff ff2c 	bl	80007d4 <Debug_Print>

}
 800097c:	46c0      	nop			@ (mov r8, r8)
 800097e:	46bd      	mov	sp, r7
 8000980:	b004      	add	sp, #16
 8000982:	bd80      	pop	{r7, pc}
 8000984:	40021000 	.word	0x40021000
 8000988:	08006560 	.word	0x08006560
 800098c:	20000174 	.word	0x20000174
 8000990:	200000d0 	.word	0x200000d0
 8000994:	08006568 	.word	0x08006568
 8000998:	200001fc 	.word	0x200001fc
 800099c:	2000010c 	.word	0x2000010c
 80009a0:	080065a8 	.word	0x080065a8
 80009a4:	20000000 	.word	0x20000000
 80009a8:	08006570 	.word	0x08006570

080009ac <main>:
/**
  * @brief  The application entry point.
  * @retval int
  */
int main(void)
{
 80009ac:	b580      	push	{r7, lr}
 80009ae:	b082      	sub	sp, #8
 80009b0:	af00      	add	r7, sp, #0
  /* USER CODE END 1 */

  /* MCU Configuration--------------------------------------------------------*/

  /* Reset of all peripherals, Initializes the Flash interface and the Systick. */
  HAL_Init();
 80009b2:	f000 fc1b 	bl	80011ec <HAL_Init>

  /* USER CODE BEGIN Init */
  /* USER CODE END Init */

  /* Configure the system clock */
  SystemClock_Config();
 80009b6:	f000 f865 	bl	8000a84 <SystemClock_Config>

  /* USER CODE BEGIN SysInit */
  /* USER CODE END SysInit */

  /* Initialize all configured peripherals */
  MX_GPIO_Init();
 80009ba:	f7ff fd7f 	bl	80004bc <MX_GPIO_Init>
  MX_DMA_Init();
 80009be:	f7ff fd57 	bl	8000470 <MX_DMA_Init>
  MX_I2C1_Init();
 80009c2:	f7ff fddb 	bl	800057c <MX_I2C1_Init>
  MX_LPUART1_UART_Init();
 80009c6:	f000 fa07 	bl	8000dd8 <MX_LPUART1_UART_Init>
  MX_RTC_Init();
 80009ca:	f000 f909 	bl	8000be0 <MX_RTC_Init>
  MX_USART1_UART_Init();
 80009ce:	f000 fa31 	bl	8000e34 <MX_USART1_UART_Init>
  /* USER CODE BEGIN 2 */
  // Initialize the ATC handle before using it
  ATC_Init(&lora, &hlpuart1, 512, "LoRaWAN"); // Adjust buffer size as needed
 80009d2:	4b20      	ldr	r3, [pc, #128]	@ (8000a54 <main+0xa8>)
 80009d4:	2280      	movs	r2, #128	@ 0x80
 80009d6:	0092      	lsls	r2, r2, #2
 80009d8:	491f      	ldr	r1, [pc, #124]	@ (8000a58 <main+0xac>)
 80009da:	4820      	ldr	r0, [pc, #128]	@ (8000a5c <main+0xb0>)
 80009dc:	f004 fe34 	bl	8005648 <ATC_Init>
  ATC_Init(&dbg, &huart1, 512, "Debug");
 80009e0:	4b1f      	ldr	r3, [pc, #124]	@ (8000a60 <main+0xb4>)
 80009e2:	2280      	movs	r2, #128	@ 0x80
 80009e4:	0092      	lsls	r2, r2, #2
 80009e6:	491f      	ldr	r1, [pc, #124]	@ (8000a64 <main+0xb8>)
 80009e8:	481f      	ldr	r0, [pc, #124]	@ (8000a68 <main+0xbc>)
 80009ea:	f004 fe2d 	bl	8005648 <ATC_Init>
  ATC_SetEvents(&lora, events);
 80009ee:	4a1f      	ldr	r2, [pc, #124]	@ (8000a6c <main+0xc0>)
 80009f0:	4b1a      	ldr	r3, [pc, #104]	@ (8000a5c <main+0xb0>)
 80009f2:	0011      	movs	r1, r2
 80009f4:	0018      	movs	r0, r3
 80009f6:	f004 fede 	bl	80057b6 <ATC_SetEvents>

  Debug_Print("RDY\r\n");
 80009fa:	4b1d      	ldr	r3, [pc, #116]	@ (8000a70 <main+0xc4>)
 80009fc:	0018      	movs	r0, r3
 80009fe:	f7ff fee9 	bl	80007d4 <Debug_Print>

  HAL_Delay(10000); // This makes it easier to debug, don't remove
 8000a02:	4b1c      	ldr	r3, [pc, #112]	@ (8000a74 <main+0xc8>)
 8000a04:	0018      	movs	r0, r3
 8000a06:	f000 fc61 	bl	80012cc <HAL_Delay>
  /* USER CODE END 2 */

  /* Infinite loop */
  /* USER CODE BEGIN WHILE */
  char* ATSEND_Result = NULL;
 8000a0a:	2300      	movs	r3, #0
 8000a0c:	607b      	str	r3, [r7, #4]
  uint32_t last_command_time = 0;
 8000a0e:	2300      	movs	r3, #0
 8000a10:	603b      	str	r3, [r7, #0]

  Debug_Print("DeviceState=Sleep\r\n");
 8000a12:	4b19      	ldr	r3, [pc, #100]	@ (8000a78 <main+0xcc>)
 8000a14:	0018      	movs	r0, r3
 8000a16:	f7ff fedd 	bl	80007d4 <Debug_Print>
  HAL_Delay(100); // This makes it easier to debug, don't remove
 8000a1a:	2064      	movs	r0, #100	@ 0x64
 8000a1c:	f000 fc56 	bl	80012cc <HAL_Delay>
  device_state = DEVICE_SLEEP;
 8000a20:	4b16      	ldr	r3, [pc, #88]	@ (8000a7c <main+0xd0>)
 8000a22:	2200      	movs	r2, #0
 8000a24:	701a      	strb	r2, [r3, #0]

  while(1)
  {
     // ATC_Loop(&lora);
	  Debug_Print("loop!!!\r\n");
 8000a26:	4b16      	ldr	r3, [pc, #88]	@ (8000a80 <main+0xd4>)
 8000a28:	0018      	movs	r0, r3
 8000a2a:	f7ff fed3 	bl	80007d4 <Debug_Print>
      HAL_Delay(100); // This makes it easier to debug, don't remove
 8000a2e:	2064      	movs	r0, #100	@ 0x64
 8000a30:	f000 fc4c 	bl	80012cc <HAL_Delay>
      switch (device_state)
 8000a34:	4b11      	ldr	r3, [pc, #68]	@ (8000a7c <main+0xd0>)
 8000a36:	781b      	ldrb	r3, [r3, #0]
 8000a38:	b2db      	uxtb	r3, r3
 8000a3a:	2b02      	cmp	r3, #2
 8000a3c:	d005      	beq.n	8000a4a <main+0x9e>
 8000a3e:	dcf2      	bgt.n	8000a26 <main+0x7a>
 8000a40:	2b00      	cmp	r3, #0
 8000a42:	d104      	bne.n	8000a4e <main+0xa2>
//              ATC_SendReceive(&lora, "AT+JOIN\r\n", 1000, &ATSEND_Result, 3000, 1, "OK");
//              last_command_time = HAL_GetTick();
//          }
	  break;
	  case DEVICE_SLEEP:
		  enter_low_power_mode();
 8000a44:	f7ff fef4 	bl	8000830 <enter_low_power_mode>
	  break;
 8000a48:	e002      	b.n	8000a50 <main+0xa4>
	  break;
 8000a4a:	46c0      	nop			@ (mov r8, r8)
 8000a4c:	e7eb      	b.n	8000a26 <main+0x7a>
//		  ATC_SendReceive(&dbg, "Sending data...\r\n", 1000, NULL, 3000, 1, "OK");
//		  // what sucks is when the device sleeps, I loose debugger session, so i can't get a break point here after sleep!
//		  ATC_SendReceive(&lora, "AT\r\n", 1000, &ATSEND_Result, 3000, 1, "OK");
//		  ATC_SendReceive(&lora, "AT+SEND \"AA\"\r\n", 1000, &ATSEND_Result, 3000, 1, "OK");
//		  device_state = DEVICE_SLEEP;
	  break;
 8000a4e:	46c0      	nop			@ (mov r8, r8)
	  Debug_Print("loop!!!\r\n");
 8000a50:	e7e9      	b.n	8000a26 <main+0x7a>
 8000a52:	46c0      	nop			@ (mov r8, r8)
 8000a54:	08006560 	.word	0x08006560
 8000a58:	20000174 	.word	0x20000174
 8000a5c:	200000d0 	.word	0x200000d0
 8000a60:	08006568 	.word	0x08006568
 8000a64:	200001fc 	.word	0x200001fc
 8000a68:	2000010c 	.word	0x2000010c
 8000a6c:	080065a8 	.word	0x080065a8
 8000a70:	08006580 	.word	0x08006580
 8000a74:	00002710 	.word	0x00002710
 8000a78:	08006588 	.word	0x08006588
 8000a7c:	20000000 	.word	0x20000000
 8000a80:	0800659c 	.word	0x0800659c

08000a84 <SystemClock_Config>:
/**
  * @brief System Clock Configuration
  * @retval None
  */
void SystemClock_Config(void)
{
 8000a84:	b590      	push	{r4, r7, lr}
 8000a86:	b09f      	sub	sp, #124	@ 0x7c
 8000a88:	af00      	add	r7, sp, #0
  RCC_OscInitTypeDef RCC_OscInitStruct = {0};
 8000a8a:	2440      	movs	r4, #64	@ 0x40
 8000a8c:	193b      	adds	r3, r7, r4
 8000a8e:	0018      	movs	r0, r3
 8000a90:	2338      	movs	r3, #56	@ 0x38
 8000a92:	001a      	movs	r2, r3
 8000a94:	2100      	movs	r1, #0
 8000a96:	f005 f931 	bl	8005cfc <memset>
  RCC_ClkInitTypeDef RCC_ClkInitStruct = {0};
 8000a9a:	232c      	movs	r3, #44	@ 0x2c
 8000a9c:	18fb      	adds	r3, r7, r3
 8000a9e:	0018      	movs	r0, r3
 8000aa0:	2314      	movs	r3, #20
 8000aa2:	001a      	movs	r2, r3
 8000aa4:	2100      	movs	r1, #0
 8000aa6:	f005 f929 	bl	8005cfc <memset>
  RCC_PeriphCLKInitTypeDef PeriphClkInit = {0};
 8000aaa:	1d3b      	adds	r3, r7, #4
 8000aac:	0018      	movs	r0, r3
 8000aae:	2328      	movs	r3, #40	@ 0x28
 8000ab0:	001a      	movs	r2, r3
 8000ab2:	2100      	movs	r1, #0
 8000ab4:	f005 f922 	bl	8005cfc <memset>

  /** Configure the main internal regulator output voltage
  */
  __HAL_PWR_VOLTAGESCALING_CONFIG(PWR_REGULATOR_VOLTAGE_SCALE1);
 8000ab8:	4b2c      	ldr	r3, [pc, #176]	@ (8000b6c <SystemClock_Config+0xe8>)
 8000aba:	681b      	ldr	r3, [r3, #0]
 8000abc:	4a2c      	ldr	r2, [pc, #176]	@ (8000b70 <SystemClock_Config+0xec>)
 8000abe:	401a      	ands	r2, r3
 8000ac0:	4b2a      	ldr	r3, [pc, #168]	@ (8000b6c <SystemClock_Config+0xe8>)
 8000ac2:	2180      	movs	r1, #128	@ 0x80
 8000ac4:	0109      	lsls	r1, r1, #4
 8000ac6:	430a      	orrs	r2, r1
 8000ac8:	601a      	str	r2, [r3, #0]

  /** Initializes the RCC Oscillators according to the specified parameters
  * in the RCC_OscInitTypeDef structure.
  */
  RCC_OscInitStruct.OscillatorType = RCC_OSCILLATORTYPE_LSI|RCC_OSCILLATORTYPE_MSI;
 8000aca:	0021      	movs	r1, r4
 8000acc:	187b      	adds	r3, r7, r1
 8000ace:	2218      	movs	r2, #24
 8000ad0:	601a      	str	r2, [r3, #0]
  RCC_OscInitStruct.LSIState = RCC_LSI_ON;
 8000ad2:	187b      	adds	r3, r7, r1
 8000ad4:	2201      	movs	r2, #1
 8000ad6:	615a      	str	r2, [r3, #20]
  RCC_OscInitStruct.MSIState = RCC_MSI_ON;
 8000ad8:	187b      	adds	r3, r7, r1
 8000ada:	2201      	movs	r2, #1
 8000adc:	61da      	str	r2, [r3, #28]
  RCC_OscInitStruct.MSICalibrationValue = 0;
 8000ade:	187b      	adds	r3, r7, r1
 8000ae0:	2200      	movs	r2, #0
 8000ae2:	621a      	str	r2, [r3, #32]
  RCC_OscInitStruct.MSIClockRange = RCC_MSIRANGE_4;
 8000ae4:	187b      	adds	r3, r7, r1
 8000ae6:	2280      	movs	r2, #128	@ 0x80
 8000ae8:	0212      	lsls	r2, r2, #8
 8000aea:	625a      	str	r2, [r3, #36]	@ 0x24
  RCC_OscInitStruct.PLL.PLLState = RCC_PLL_NONE;
 8000aec:	187b      	adds	r3, r7, r1
 8000aee:	2200      	movs	r2, #0
 8000af0:	629a      	str	r2, [r3, #40]	@ 0x28
  if (HAL_RCC_OscConfig(&RCC_OscInitStruct) != HAL_OK)
 8000af2:	187b      	adds	r3, r7, r1
 8000af4:	0018      	movs	r0, r3
 8000af6:	f001 fc0f 	bl	8002318 <HAL_RCC_OscConfig>
 8000afa:	1e03      	subs	r3, r0, #0
 8000afc:	d001      	beq.n	8000b02 <SystemClock_Config+0x7e>
  {
    Error_Handler();
 8000afe:	f000 f869 	bl	8000bd4 <Error_Handler>
  }

  /** Initializes the CPU, AHB and APB buses clocks
  */
  RCC_ClkInitStruct.ClockType = RCC_CLOCKTYPE_HCLK|RCC_CLOCKTYPE_SYSCLK
 8000b02:	212c      	movs	r1, #44	@ 0x2c
 8000b04:	187b      	adds	r3, r7, r1
 8000b06:	220f      	movs	r2, #15
 8000b08:	601a      	str	r2, [r3, #0]
                              |RCC_CLOCKTYPE_PCLK1|RCC_CLOCKTYPE_PCLK2;
  RCC_ClkInitStruct.SYSCLKSource = RCC_SYSCLKSOURCE_MSI;
 8000b0a:	187b      	adds	r3, r7, r1
 8000b0c:	2200      	movs	r2, #0
 8000b0e:	605a      	str	r2, [r3, #4]
  RCC_ClkInitStruct.AHBCLKDivider = RCC_SYSCLK_DIV1;
 8000b10:	187b      	adds	r3, r7, r1
 8000b12:	2200      	movs	r2, #0
 8000b14:	609a      	str	r2, [r3, #8]
  RCC_ClkInitStruct.APB1CLKDivider = RCC_HCLK_DIV1;
 8000b16:	187b      	adds	r3, r7, r1
 8000b18:	2200      	movs	r2, #0
 8000b1a:	60da      	str	r2, [r3, #12]
  RCC_ClkInitStruct.APB2CLKDivider = RCC_HCLK_DIV1;
 8000b1c:	187b      	adds	r3, r7, r1
 8000b1e:	2200      	movs	r2, #0
 8000b20:	611a      	str	r2, [r3, #16]

  if (HAL_RCC_ClockConfig(&RCC_ClkInitStruct, FLASH_LATENCY_0) != HAL_OK)
 8000b22:	187b      	adds	r3, r7, r1
 8000b24:	2100      	movs	r1, #0
 8000b26:	0018      	movs	r0, r3
 8000b28:	f001 ffca 	bl	8002ac0 <HAL_RCC_ClockConfig>
 8000b2c:	1e03      	subs	r3, r0, #0
 8000b2e:	d001      	beq.n	8000b34 <SystemClock_Config+0xb0>
  {
    Error_Handler();
 8000b30:	f000 f850 	bl	8000bd4 <Error_Handler>
  }
  PeriphClkInit.PeriphClockSelection = RCC_PERIPHCLK_USART1|RCC_PERIPHCLK_LPUART1
 8000b34:	1d3b      	adds	r3, r7, #4
 8000b36:	222d      	movs	r2, #45	@ 0x2d
 8000b38:	601a      	str	r2, [r3, #0]
                              |RCC_PERIPHCLK_I2C1|RCC_PERIPHCLK_RTC;
  PeriphClkInit.Usart1ClockSelection = RCC_USART1CLKSOURCE_PCLK2;
 8000b3a:	1d3b      	adds	r3, r7, #4
 8000b3c:	2200      	movs	r2, #0
 8000b3e:	60da      	str	r2, [r3, #12]
  PeriphClkInit.Lpuart1ClockSelection = RCC_LPUART1CLKSOURCE_PCLK1;
 8000b40:	1d3b      	adds	r3, r7, #4
 8000b42:	2200      	movs	r2, #0
 8000b44:	615a      	str	r2, [r3, #20]
  PeriphClkInit.I2c1ClockSelection = RCC_I2C1CLKSOURCE_PCLK1;
 8000b46:	1d3b      	adds	r3, r7, #4
 8000b48:	2200      	movs	r2, #0
 8000b4a:	619a      	str	r2, [r3, #24]
  PeriphClkInit.RTCClockSelection = RCC_RTCCLKSOURCE_LSI;
 8000b4c:	1d3b      	adds	r3, r7, #4
 8000b4e:	2280      	movs	r2, #128	@ 0x80
 8000b50:	0292      	lsls	r2, r2, #10
 8000b52:	605a      	str	r2, [r3, #4]
  if (HAL_RCCEx_PeriphCLKConfig(&PeriphClkInit) != HAL_OK)
 8000b54:	1d3b      	adds	r3, r7, #4
 8000b56:	0018      	movs	r0, r3
 8000b58:	f002 f9b6 	bl	8002ec8 <HAL_RCCEx_PeriphCLKConfig>
 8000b5c:	1e03      	subs	r3, r0, #0
 8000b5e:	d001      	beq.n	8000b64 <SystemClock_Config+0xe0>
  {
    Error_Handler();
 8000b60:	f000 f838 	bl	8000bd4 <Error_Handler>
  }
}
 8000b64:	46c0      	nop			@ (mov r8, r8)
 8000b66:	46bd      	mov	sp, r7
 8000b68:	b01f      	add	sp, #124	@ 0x7c
 8000b6a:	bd90      	pop	{r4, r7, pc}
 8000b6c:	40007000 	.word	0x40007000
 8000b70:	ffffe7ff 	.word	0xffffe7ff

08000b74 <HAL_UARTEx_RxEventCallback>:
  __NOP();

}

void HAL_UARTEx_RxEventCallback(UART_HandleTypeDef *huart, uint16_t Size)
{
 8000b74:	b580      	push	{r7, lr}
 8000b76:	b082      	sub	sp, #8
 8000b78:	af00      	add	r7, sp, #0
 8000b7a:	6078      	str	r0, [r7, #4]
 8000b7c:	000a      	movs	r2, r1
 8000b7e:	1cbb      	adds	r3, r7, #2
 8000b80:	801a      	strh	r2, [r3, #0]
  if (huart->Instance == LPUART1)
 8000b82:	687b      	ldr	r3, [r7, #4]
 8000b84:	681b      	ldr	r3, [r3, #0]
 8000b86:	4a07      	ldr	r2, [pc, #28]	@ (8000ba4 <HAL_UARTEx_RxEventCallback+0x30>)
 8000b88:	4293      	cmp	r3, r2
 8000b8a:	d106      	bne.n	8000b9a <HAL_UARTEx_RxEventCallback+0x26>
  {
    ATC_IdleLineCallback(&lora, Size);
 8000b8c:	1cbb      	adds	r3, r7, #2
 8000b8e:	881a      	ldrh	r2, [r3, #0]
 8000b90:	4b05      	ldr	r3, [pc, #20]	@ (8000ba8 <HAL_UARTEx_RxEventCallback+0x34>)
 8000b92:	0011      	movs	r1, r2
 8000b94:	0018      	movs	r0, r3
 8000b96:	f004 ff40 	bl	8005a1a <ATC_IdleLineCallback>
  }
}
 8000b9a:	46c0      	nop			@ (mov r8, r8)
 8000b9c:	46bd      	mov	sp, r7
 8000b9e:	b002      	add	sp, #8
 8000ba0:	bd80      	pop	{r7, pc}
 8000ba2:	46c0      	nop			@ (mov r8, r8)
 8000ba4:	40004800 	.word	0x40004800
 8000ba8:	200000d0 	.word	0x200000d0

08000bac <HAL_UART_ErrorCallback>:

void HAL_UART_ErrorCallback(UART_HandleTypeDef *huart)
{
 8000bac:	b580      	push	{r7, lr}
 8000bae:	b082      	sub	sp, #8
 8000bb0:	af00      	add	r7, sp, #0
 8000bb2:	6078      	str	r0, [r7, #4]
  if (huart->Instance == LPUART1)
 8000bb4:	687b      	ldr	r3, [r7, #4]
 8000bb6:	681b      	ldr	r3, [r3, #0]
 8000bb8:	4a05      	ldr	r2, [pc, #20]	@ (8000bd0 <HAL_UART_ErrorCallback+0x24>)
 8000bba:	4293      	cmp	r3, r2
 8000bbc:	d104      	bne.n	8000bc8 <HAL_UART_ErrorCallback+0x1c>
  {
    // Handle UART errors
    __HAL_UART_CLEAR_FLAG(huart, 0xFFFFFFFF);
 8000bbe:	687b      	ldr	r3, [r7, #4]
 8000bc0:	681b      	ldr	r3, [r3, #0]
 8000bc2:	2201      	movs	r2, #1
 8000bc4:	4252      	negs	r2, r2
 8000bc6:	621a      	str	r2, [r3, #32]
  }
}
 8000bc8:	46c0      	nop			@ (mov r8, r8)
 8000bca:	46bd      	mov	sp, r7
 8000bcc:	b002      	add	sp, #8
 8000bce:	bd80      	pop	{r7, pc}
 8000bd0:	40004800 	.word	0x40004800

08000bd4 <Error_Handler>:
/**
  * @brief  This function is executed in case of error occurrence.
  * @retval None
  */
void Error_Handler(void)
{
 8000bd4:	b580      	push	{r7, lr}
 8000bd6:	af00      	add	r7, sp, #0
  /* USER CODE BEGIN Error_Handler_Debug */
  /* USER CODE END Error_Handler_Debug */
}
 8000bd8:	46c0      	nop			@ (mov r8, r8)
 8000bda:	46bd      	mov	sp, r7
 8000bdc:	bd80      	pop	{r7, pc}
	...

08000be0 <MX_RTC_Init>:
 8000be0:	b580      	push	{r7, lr}
 8000be2:	af00      	add	r7, sp, #0
 8000be4:	4b16      	ldr	r3, [pc, #88]	@ (8000c40 <MX_RTC_Init+0x60>)
 8000be6:	4a17      	ldr	r2, [pc, #92]	@ (8000c44 <MX_RTC_Init+0x64>)
 8000be8:	601a      	str	r2, [r3, #0]
 8000bea:	4b15      	ldr	r3, [pc, #84]	@ (8000c40 <MX_RTC_Init+0x60>)
 8000bec:	2200      	movs	r2, #0
 8000bee:	605a      	str	r2, [r3, #4]
 8000bf0:	4b13      	ldr	r3, [pc, #76]	@ (8000c40 <MX_RTC_Init+0x60>)
 8000bf2:	227f      	movs	r2, #127	@ 0x7f
 8000bf4:	609a      	str	r2, [r3, #8]
 8000bf6:	4b12      	ldr	r3, [pc, #72]	@ (8000c40 <MX_RTC_Init+0x60>)
 8000bf8:	22ff      	movs	r2, #255	@ 0xff
 8000bfa:	60da      	str	r2, [r3, #12]
 8000bfc:	4b10      	ldr	r3, [pc, #64]	@ (8000c40 <MX_RTC_Init+0x60>)
 8000bfe:	2200      	movs	r2, #0
 8000c00:	611a      	str	r2, [r3, #16]
 8000c02:	4b0f      	ldr	r3, [pc, #60]	@ (8000c40 <MX_RTC_Init+0x60>)
 8000c04:	2200      	movs	r2, #0
 8000c06:	615a      	str	r2, [r3, #20]
 8000c08:	4b0d      	ldr	r3, [pc, #52]	@ (8000c40 <MX_RTC_Init+0x60>)
 8000c0a:	2200      	movs	r2, #0
 8000c0c:	619a      	str	r2, [r3, #24]
 8000c0e:	4b0c      	ldr	r3, [pc, #48]	@ (8000c40 <MX_RTC_Init+0x60>)
 8000c10:	2200      	movs	r2, #0
 8000c12:	61da      	str	r2, [r3, #28]
 8000c14:	4b0a      	ldr	r3, [pc, #40]	@ (8000c40 <MX_RTC_Init+0x60>)
 8000c16:	0018      	movs	r0, r3
 8000c18:	f002 faf4 	bl	8003204 <HAL_RTC_Init>
 8000c1c:	1e03      	subs	r3, r0, #0
 8000c1e:	d001      	beq.n	8000c24 <MX_RTC_Init+0x44>
 8000c20:	f7ff ffd8 	bl	8000bd4 <Error_Handler>
 8000c24:	4908      	ldr	r1, [pc, #32]	@ (8000c48 <MX_RTC_Init+0x68>)
 8000c26:	4b06      	ldr	r3, [pc, #24]	@ (8000c40 <MX_RTC_Init+0x60>)
 8000c28:	2200      	movs	r2, #0
 8000c2a:	0018      	movs	r0, r3
 8000c2c:	f002 fcea 	bl	8003604 <HAL_RTCEx_SetWakeUpTimer_IT>
 8000c30:	1e03      	subs	r3, r0, #0
 8000c32:	d001      	beq.n	8000c38 <MX_RTC_Init+0x58>
 8000c34:	f7ff ffce 	bl	8000bd4 <Error_Handler>
 8000c38:	46c0      	nop			@ (mov r8, r8)
 8000c3a:	46bd      	mov	sp, r7
 8000c3c:	bd80      	pop	{r7, pc}
 8000c3e:	46c0      	nop			@ (mov r8, r8)
 8000c40:	2000014c 	.word	0x2000014c
 8000c44:	40002800 	.word	0x40002800
 8000c48:	0000500b 	.word	0x0000500b

08000c4c <HAL_RTC_MspInit>:
 8000c4c:	b580      	push	{r7, lr}
 8000c4e:	b082      	sub	sp, #8
 8000c50:	af00      	add	r7, sp, #0
 8000c52:	6078      	str	r0, [r7, #4]
 8000c54:	687b      	ldr	r3, [r7, #4]
 8000c56:	681b      	ldr	r3, [r3, #0]
 8000c58:	4a0a      	ldr	r2, [pc, #40]	@ (8000c84 <HAL_RTC_MspInit+0x38>)
 8000c5a:	4293      	cmp	r3, r2
 8000c5c:	d10e      	bne.n	8000c7c <HAL_RTC_MspInit+0x30>
 8000c5e:	4b0a      	ldr	r3, [pc, #40]	@ (8000c88 <HAL_RTC_MspInit+0x3c>)
 8000c60:	6d1a      	ldr	r2, [r3, #80]	@ 0x50
 8000c62:	4b09      	ldr	r3, [pc, #36]	@ (8000c88 <HAL_RTC_MspInit+0x3c>)
 8000c64:	2180      	movs	r1, #128	@ 0x80
 8000c66:	02c9      	lsls	r1, r1, #11
 8000c68:	430a      	orrs	r2, r1
 8000c6a:	651a      	str	r2, [r3, #80]	@ 0x50
 8000c6c:	2200      	movs	r2, #0
 8000c6e:	2100      	movs	r1, #0
 8000c70:	2002      	movs	r0, #2
 8000c72:	f000 fc1d 	bl	80014b0 <HAL_NVIC_SetPriority>
 8000c76:	2002      	movs	r0, #2
 8000c78:	f000 fc2f 	bl	80014da <HAL_NVIC_EnableIRQ>
 8000c7c:	46c0      	nop			@ (mov r8, r8)
 8000c7e:	46bd      	mov	sp, r7
 8000c80:	b002      	add	sp, #8
 8000c82:	bd80      	pop	{r7, pc}
 8000c84:	40002800 	.word	0x40002800
 8000c88:	40021000 	.word	0x40021000

08000c8c <HAL_MspInit>:
 8000c8c:	b580      	push	{r7, lr}
 8000c8e:	af00      	add	r7, sp, #0
 8000c90:	4b07      	ldr	r3, [pc, #28]	@ (8000cb0 <HAL_MspInit+0x24>)
 8000c92:	6b5a      	ldr	r2, [r3, #52]	@ 0x34
 8000c94:	4b06      	ldr	r3, [pc, #24]	@ (8000cb0 <HAL_MspInit+0x24>)
 8000c96:	2101      	movs	r1, #1
 8000c98:	430a      	orrs	r2, r1
 8000c9a:	635a      	str	r2, [r3, #52]	@ 0x34
 8000c9c:	4b04      	ldr	r3, [pc, #16]	@ (8000cb0 <HAL_MspInit+0x24>)
 8000c9e:	6b9a      	ldr	r2, [r3, #56]	@ 0x38
 8000ca0:	4b03      	ldr	r3, [pc, #12]	@ (8000cb0 <HAL_MspInit+0x24>)
 8000ca2:	2180      	movs	r1, #128	@ 0x80
 8000ca4:	0549      	lsls	r1, r1, #21
 8000ca6:	430a      	orrs	r2, r1
 8000ca8:	639a      	str	r2, [r3, #56]	@ 0x38
 8000caa:	46c0      	nop			@ (mov r8, r8)
 8000cac:	46bd      	mov	sp, r7
 8000cae:	bd80      	pop	{r7, pc}
 8000cb0:	40021000 	.word	0x40021000

08000cb4 <NMI_Handler>:
 8000cb4:	b580      	push	{r7, lr}
 8000cb6:	af00      	add	r7, sp, #0
 8000cb8:	46c0      	nop			@ (mov r8, r8)
 8000cba:	e7fd      	b.n	8000cb8 <NMI_Handler+0x4>

08000cbc <HardFault_Handler>:
 8000cbc:	b580      	push	{r7, lr}
 8000cbe:	af00      	add	r7, sp, #0
 8000cc0:	46c0      	nop			@ (mov r8, r8)
 8000cc2:	e7fd      	b.n	8000cc0 <HardFault_Handler+0x4>

08000cc4 <SVC_Handler>:
 8000cc4:	b580      	push	{r7, lr}
 8000cc6:	af00      	add	r7, sp, #0
 8000cc8:	46c0      	nop			@ (mov r8, r8)
 8000cca:	46bd      	mov	sp, r7
 8000ccc:	bd80      	pop	{r7, pc}

08000cce <PendSV_Handler>:
 8000cce:	b580      	push	{r7, lr}
 8000cd0:	af00      	add	r7, sp, #0
 8000cd2:	46c0      	nop			@ (mov r8, r8)
 8000cd4:	46bd      	mov	sp, r7
 8000cd6:	bd80      	pop	{r7, pc}

08000cd8 <SysTick_Handler>:
 8000cd8:	b580      	push	{r7, lr}
 8000cda:	af00      	add	r7, sp, #0
 8000cdc:	f000 fada 	bl	8001294 <HAL_IncTick>
 8000ce0:	46c0      	nop			@ (mov r8, r8)
 8000ce2:	46bd      	mov	sp, r7
 8000ce4:	bd80      	pop	{r7, pc}
	...

08000ce8 <RTC_IRQHandler>:
 8000ce8:	b580      	push	{r7, lr}
 8000cea:	af00      	add	r7, sp, #0
 8000cec:	4b03      	ldr	r3, [pc, #12]	@ (8000cfc <RTC_IRQHandler+0x14>)
 8000cee:	0018      	movs	r0, r3
 8000cf0:	f002 fdc4 	bl	800387c <HAL_RTCEx_WakeUpTimerIRQHandler>
 8000cf4:	46c0      	nop			@ (mov r8, r8)
 8000cf6:	46bd      	mov	sp, r7
 8000cf8:	bd80      	pop	{r7, pc}
 8000cfa:	46c0      	nop			@ (mov r8, r8)
 8000cfc:	2000014c 	.word	0x2000014c

08000d00 <DMA1_Channel2_3_IRQHandler>:
 8000d00:	b580      	push	{r7, lr}
 8000d02:	af00      	add	r7, sp, #0
 8000d04:	4b05      	ldr	r3, [pc, #20]	@ (8000d1c <DMA1_Channel2_3_IRQHandler+0x1c>)
 8000d06:	0018      	movs	r0, r3
 8000d08:	f000 fdd7 	bl	80018ba <HAL_DMA_IRQHandler>
 8000d0c:	4b04      	ldr	r3, [pc, #16]	@ (8000d20 <DMA1_Channel2_3_IRQHandler+0x20>)
 8000d0e:	0018      	movs	r0, r3
 8000d10:	f000 fdd3 	bl	80018ba <HAL_DMA_IRQHandler>
 8000d14:	46c0      	nop			@ (mov r8, r8)
 8000d16:	46bd      	mov	sp, r7
 8000d18:	bd80      	pop	{r7, pc}
 8000d1a:	46c0      	nop			@ (mov r8, r8)
 8000d1c:	200002cc 	.word	0x200002cc
 8000d20:	20000284 	.word	0x20000284

08000d24 <DMA1_Channel4_5_6_7_IRQHandler>:
 8000d24:	b580      	push	{r7, lr}
 8000d26:	af00      	add	r7, sp, #0
 8000d28:	4b05      	ldr	r3, [pc, #20]	@ (8000d40 <DMA1_Channel4_5_6_7_IRQHandler+0x1c>)
 8000d2a:	0018      	movs	r0, r3
 8000d2c:	f000 fdc5 	bl	80018ba <HAL_DMA_IRQHandler>
 8000d30:	4b04      	ldr	r3, [pc, #16]	@ (8000d44 <DMA1_Channel4_5_6_7_IRQHandler+0x20>)
 8000d32:	0018      	movs	r0, r3
 8000d34:	f000 fdc1 	bl	80018ba <HAL_DMA_IRQHandler>
 8000d38:	46c0      	nop			@ (mov r8, r8)
 8000d3a:	46bd      	mov	sp, r7
 8000d3c:	bd80      	pop	{r7, pc}
 8000d3e:	46c0      	nop			@ (mov r8, r8)
 8000d40:	2000035c 	.word	0x2000035c
 8000d44:	20000314 	.word	0x20000314

08000d48 <RNG_LPUART1_IRQHandler>:
 8000d48:	b580      	push	{r7, lr}
 8000d4a:	af00      	add	r7, sp, #0
 8000d4c:	4b03      	ldr	r3, [pc, #12]	@ (8000d5c <RNG_LPUART1_IRQHandler+0x14>)
 8000d4e:	0018      	movs	r0, r3
 8000d50:	f003 f802 	bl	8003d58 <HAL_UART_IRQHandler>
 8000d54:	46c0      	nop			@ (mov r8, r8)
 8000d56:	46bd      	mov	sp, r7
 8000d58:	bd80      	pop	{r7, pc}
 8000d5a:	46c0      	nop			@ (mov r8, r8)
 8000d5c:	20000174 	.word	0x20000174

08000d60 <_sbrk>:
 8000d60:	b580      	push	{r7, lr}
 8000d62:	b086      	sub	sp, #24
 8000d64:	af00      	add	r7, sp, #0
 8000d66:	6078      	str	r0, [r7, #4]
 8000d68:	4a14      	ldr	r2, [pc, #80]	@ (8000dbc <_sbrk+0x5c>)
 8000d6a:	4b15      	ldr	r3, [pc, #84]	@ (8000dc0 <_sbrk+0x60>)
 8000d6c:	1ad3      	subs	r3, r2, r3
 8000d6e:	617b      	str	r3, [r7, #20]
 8000d70:	697b      	ldr	r3, [r7, #20]
 8000d72:	613b      	str	r3, [r7, #16]
 8000d74:	4b13      	ldr	r3, [pc, #76]	@ (8000dc4 <_sbrk+0x64>)
 8000d76:	681b      	ldr	r3, [r3, #0]
 8000d78:	2b00      	cmp	r3, #0
 8000d7a:	d102      	bne.n	8000d82 <_sbrk+0x22>
 8000d7c:	4b11      	ldr	r3, [pc, #68]	@ (8000dc4 <_sbrk+0x64>)
 8000d7e:	4a12      	ldr	r2, [pc, #72]	@ (8000dc8 <_sbrk+0x68>)
 8000d80:	601a      	str	r2, [r3, #0]
 8000d82:	4b10      	ldr	r3, [pc, #64]	@ (8000dc4 <_sbrk+0x64>)
 8000d84:	681a      	ldr	r2, [r3, #0]
 8000d86:	687b      	ldr	r3, [r7, #4]
 8000d88:	18d3      	adds	r3, r2, r3
 8000d8a:	693a      	ldr	r2, [r7, #16]
 8000d8c:	429a      	cmp	r2, r3
 8000d8e:	d207      	bcs.n	8000da0 <_sbrk+0x40>
 8000d90:	f004 fff8 	bl	8005d84 <__errno>
 8000d94:	0003      	movs	r3, r0
 8000d96:	220c      	movs	r2, #12
 8000d98:	601a      	str	r2, [r3, #0]
 8000d9a:	2301      	movs	r3, #1
 8000d9c:	425b      	negs	r3, r3
 8000d9e:	e009      	b.n	8000db4 <_sbrk+0x54>
 8000da0:	4b08      	ldr	r3, [pc, #32]	@ (8000dc4 <_sbrk+0x64>)
 8000da2:	681b      	ldr	r3, [r3, #0]
 8000da4:	60fb      	str	r3, [r7, #12]
 8000da6:	4b07      	ldr	r3, [pc, #28]	@ (8000dc4 <_sbrk+0x64>)
 8000da8:	681a      	ldr	r2, [r3, #0]
 8000daa:	687b      	ldr	r3, [r7, #4]
 8000dac:	18d2      	adds	r2, r2, r3
 8000dae:	4b05      	ldr	r3, [pc, #20]	@ (8000dc4 <_sbrk+0x64>)
 8000db0:	601a      	str	r2, [r3, #0]
 8000db2:	68fb      	ldr	r3, [r7, #12]
 8000db4:	0018      	movs	r0, r3
 8000db6:	46bd      	mov	sp, r7
 8000db8:	b006      	add	sp, #24
 8000dba:	bd80      	pop	{r7, pc}
 8000dbc:	20005000 	.word	0x20005000
 8000dc0:	00000400 	.word	0x00000400
 8000dc4:	20000170 	.word	0x20000170
 8000dc8:	200004f0 	.word	0x200004f0

08000dcc <SystemInit>:
 8000dcc:	b580      	push	{r7, lr}
 8000dce:	af00      	add	r7, sp, #0
 8000dd0:	46c0      	nop			@ (mov r8, r8)
 8000dd2:	46bd      	mov	sp, r7
 8000dd4:	bd80      	pop	{r7, pc}
	...

08000dd8 <MX_LPUART1_UART_Init>:
 8000dd8:	b580      	push	{r7, lr}
 8000dda:	af00      	add	r7, sp, #0
 8000ddc:	4b13      	ldr	r3, [pc, #76]	@ (8000e2c <MX_LPUART1_UART_Init+0x54>)
 8000dde:	4a14      	ldr	r2, [pc, #80]	@ (8000e30 <MX_LPUART1_UART_Init+0x58>)
 8000de0:	601a      	str	r2, [r3, #0]
 8000de2:	4b12      	ldr	r3, [pc, #72]	@ (8000e2c <MX_LPUART1_UART_Init+0x54>)
 8000de4:	22e1      	movs	r2, #225	@ 0xe1
 8000de6:	0252      	lsls	r2, r2, #9
 8000de8:	605a      	str	r2, [r3, #4]
 8000dea:	4b10      	ldr	r3, [pc, #64]	@ (8000e2c <MX_LPUART1_UART_Init+0x54>)
 8000dec:	2200      	movs	r2, #0
 8000dee:	609a      	str	r2, [r3, #8]
 8000df0:	4b0e      	ldr	r3, [pc, #56]	@ (8000e2c <MX_LPUART1_UART_Init+0x54>)
 8000df2:	2200      	movs	r2, #0
 8000df4:	60da      	str	r2, [r3, #12]
 8000df6:	4b0d      	ldr	r3, [pc, #52]	@ (8000e2c <MX_LPUART1_UART_Init+0x54>)
 8000df8:	2200      	movs	r2, #0
 8000dfa:	611a      	str	r2, [r3, #16]
 8000dfc:	4b0b      	ldr	r3, [pc, #44]	@ (8000e2c <MX_LPUART1_UART_Init+0x54>)
 8000dfe:	220c      	movs	r2, #12
 8000e00:	615a      	str	r2, [r3, #20]
 8000e02:	4b0a      	ldr	r3, [pc, #40]	@ (8000e2c <MX_LPUART1_UART_Init+0x54>)
 8000e04:	2200      	movs	r2, #0
 8000e06:	619a      	str	r2, [r3, #24]
 8000e08:	4b08      	ldr	r3, [pc, #32]	@ (8000e2c <MX_LPUART1_UART_Init+0x54>)
 8000e0a:	2200      	movs	r2, #0
 8000e0c:	621a      	str	r2, [r3, #32]
 8000e0e:	4b07      	ldr	r3, [pc, #28]	@ (8000e2c <MX_LPUART1_UART_Init+0x54>)
 8000e10:	2200      	movs	r2, #0
 8000e12:	625a      	str	r2, [r3, #36]	@ 0x24
 8000e14:	4b05      	ldr	r3, [pc, #20]	@ (8000e2c <MX_LPUART1_UART_Init+0x54>)
 8000e16:	0018      	movs	r0, r3
 8000e18:	f002 fd68 	bl	80038ec <HAL_UART_Init>
 8000e1c:	1e03      	subs	r3, r0, #0
 8000e1e:	d001      	beq.n	8000e24 <MX_LPUART1_UART_Init+0x4c>
 8000e20:	f7ff fed8 	bl	8000bd4 <Error_Handler>
 8000e24:	46c0      	nop			@ (mov r8, r8)
 8000e26:	46bd      	mov	sp, r7
 8000e28:	bd80      	pop	{r7, pc}
 8000e2a:	46c0      	nop			@ (mov r8, r8)
 8000e2c:	20000174 	.word	0x20000174
 8000e30:	40004800 	.word	0x40004800

08000e34 <MX_USART1_UART_Init>:
 8000e34:	b580      	push	{r7, lr}
 8000e36:	af00      	add	r7, sp, #0
 8000e38:	4b14      	ldr	r3, [pc, #80]	@ (8000e8c <MX_USART1_UART_Init+0x58>)
 8000e3a:	4a15      	ldr	r2, [pc, #84]	@ (8000e90 <MX_USART1_UART_Init+0x5c>)
 8000e3c:	601a      	str	r2, [r3, #0]
 8000e3e:	4b13      	ldr	r3, [pc, #76]	@ (8000e8c <MX_USART1_UART_Init+0x58>)
 8000e40:	2296      	movs	r2, #150	@ 0x96
 8000e42:	0192      	lsls	r2, r2, #6
 8000e44:	605a      	str	r2, [r3, #4]
 8000e46:	4b11      	ldr	r3, [pc, #68]	@ (8000e8c <MX_USART1_UART_Init+0x58>)
 8000e48:	2200      	movs	r2, #0
 8000e4a:	609a      	str	r2, [r3, #8]
 8000e4c:	4b0f      	ldr	r3, [pc, #60]	@ (8000e8c <MX_USART1_UART_Init+0x58>)
 8000e4e:	2200      	movs	r2, #0
 8000e50:	60da      	str	r2, [r3, #12]
 8000e52:	4b0e      	ldr	r3, [pc, #56]	@ (8000e8c <MX_USART1_UART_Init+0x58>)
 8000e54:	2200      	movs	r2, #0
 8000e56:	611a      	str	r2, [r3, #16]
 8000e58:	4b0c      	ldr	r3, [pc, #48]	@ (8000e8c <MX_USART1_UART_Init+0x58>)
 8000e5a:	220c      	movs	r2, #12
 8000e5c:	615a      	str	r2, [r3, #20]
 8000e5e:	4b0b      	ldr	r3, [pc, #44]	@ (8000e8c <MX_USART1_UART_Init+0x58>)
 8000e60:	2200      	movs	r2, #0
 8000e62:	619a      	str	r2, [r3, #24]
 8000e64:	4b09      	ldr	r3, [pc, #36]	@ (8000e8c <MX_USART1_UART_Init+0x58>)
 8000e66:	2200      	movs	r2, #0
 8000e68:	61da      	str	r2, [r3, #28]
 8000e6a:	4b08      	ldr	r3, [pc, #32]	@ (8000e8c <MX_USART1_UART_Init+0x58>)
 8000e6c:	2200      	movs	r2, #0
 8000e6e:	621a      	str	r2, [r3, #32]
 8000e70:	4b06      	ldr	r3, [pc, #24]	@ (8000e8c <MX_USART1_UART_Init+0x58>)
 8000e72:	2200      	movs	r2, #0
 8000e74:	625a      	str	r2, [r3, #36]	@ 0x24
 8000e76:	4b05      	ldr	r3, [pc, #20]	@ (8000e8c <MX_USART1_UART_Init+0x58>)
 8000e78:	0018      	movs	r0, r3
 8000e7a:	f002 fd37 	bl	80038ec <HAL_UART_Init>
 8000e7e:	1e03      	subs	r3, r0, #0
 8000e80:	d001      	beq.n	8000e86 <MX_USART1_UART_Init+0x52>
 8000e82:	f7ff fea7 	bl	8000bd4 <Error_Handler>
 8000e86:	46c0      	nop			@ (mov r8, r8)
 8000e88:	46bd      	mov	sp, r7
 8000e8a:	bd80      	pop	{r7, pc}
 8000e8c:	200001fc 	.word	0x200001fc
 8000e90:	40013800 	.word	0x40013800

08000e94 <HAL_UART_MspInit>:
 8000e94:	b590      	push	{r4, r7, lr}
 8000e96:	b08b      	sub	sp, #44	@ 0x2c
 8000e98:	af00      	add	r7, sp, #0
 8000e9a:	6078      	str	r0, [r7, #4]
 8000e9c:	2414      	movs	r4, #20
 8000e9e:	193b      	adds	r3, r7, r4
 8000ea0:	0018      	movs	r0, r3
 8000ea2:	2314      	movs	r3, #20
 8000ea4:	001a      	movs	r2, r3
 8000ea6:	2100      	movs	r1, #0
 8000ea8:	f004 ff28 	bl	8005cfc <memset>
 8000eac:	687b      	ldr	r3, [r7, #4]
 8000eae:	681b      	ldr	r3, [r3, #0]
 8000eb0:	4a87      	ldr	r2, [pc, #540]	@ (80010d0 <HAL_UART_MspInit+0x23c>)
 8000eb2:	4293      	cmp	r3, r2
 8000eb4:	d000      	beq.n	8000eb8 <HAL_UART_MspInit+0x24>
 8000eb6:	e084      	b.n	8000fc2 <HAL_UART_MspInit+0x12e>
 8000eb8:	4b86      	ldr	r3, [pc, #536]	@ (80010d4 <HAL_UART_MspInit+0x240>)
 8000eba:	6b9a      	ldr	r2, [r3, #56]	@ 0x38
 8000ebc:	4b85      	ldr	r3, [pc, #532]	@ (80010d4 <HAL_UART_MspInit+0x240>)
 8000ebe:	2180      	movs	r1, #128	@ 0x80
 8000ec0:	02c9      	lsls	r1, r1, #11
 8000ec2:	430a      	orrs	r2, r1
 8000ec4:	639a      	str	r2, [r3, #56]	@ 0x38
 8000ec6:	4b83      	ldr	r3, [pc, #524]	@ (80010d4 <HAL_UART_MspInit+0x240>)
 8000ec8:	6ada      	ldr	r2, [r3, #44]	@ 0x2c
 8000eca:	4b82      	ldr	r3, [pc, #520]	@ (80010d4 <HAL_UART_MspInit+0x240>)
 8000ecc:	2101      	movs	r1, #1
 8000ece:	430a      	orrs	r2, r1
 8000ed0:	62da      	str	r2, [r3, #44]	@ 0x2c
 8000ed2:	4b80      	ldr	r3, [pc, #512]	@ (80010d4 <HAL_UART_MspInit+0x240>)
 8000ed4:	6adb      	ldr	r3, [r3, #44]	@ 0x2c
 8000ed6:	2201      	movs	r2, #1
 8000ed8:	4013      	ands	r3, r2
 8000eda:	613b      	str	r3, [r7, #16]
 8000edc:	693b      	ldr	r3, [r7, #16]
 8000ede:	0021      	movs	r1, r4
 8000ee0:	187b      	adds	r3, r7, r1
 8000ee2:	220c      	movs	r2, #12
 8000ee4:	601a      	str	r2, [r3, #0]
 8000ee6:	187b      	adds	r3, r7, r1
 8000ee8:	2202      	movs	r2, #2
 8000eea:	605a      	str	r2, [r3, #4]
 8000eec:	187b      	adds	r3, r7, r1
 8000eee:	2200      	movs	r2, #0
 8000ef0:	609a      	str	r2, [r3, #8]
 8000ef2:	187b      	adds	r3, r7, r1
 8000ef4:	2203      	movs	r2, #3
 8000ef6:	60da      	str	r2, [r3, #12]
 8000ef8:	187b      	adds	r3, r7, r1
 8000efa:	2206      	movs	r2, #6
 8000efc:	611a      	str	r2, [r3, #16]
 8000efe:	187a      	adds	r2, r7, r1
 8000f00:	23a0      	movs	r3, #160	@ 0xa0
 8000f02:	05db      	lsls	r3, r3, #23
 8000f04:	0011      	movs	r1, r2
 8000f06:	0018      	movs	r0, r3
 8000f08:	f000 fdbe 	bl	8001a88 <HAL_GPIO_Init>
 8000f0c:	4b72      	ldr	r3, [pc, #456]	@ (80010d8 <HAL_UART_MspInit+0x244>)
 8000f0e:	4a73      	ldr	r2, [pc, #460]	@ (80010dc <HAL_UART_MspInit+0x248>)
 8000f10:	601a      	str	r2, [r3, #0]
 8000f12:	4b71      	ldr	r3, [pc, #452]	@ (80010d8 <HAL_UART_MspInit+0x244>)
 8000f14:	2205      	movs	r2, #5
 8000f16:	605a      	str	r2, [r3, #4]
 8000f18:	4b6f      	ldr	r3, [pc, #444]	@ (80010d8 <HAL_UART_MspInit+0x244>)
 8000f1a:	2200      	movs	r2, #0
 8000f1c:	609a      	str	r2, [r3, #8]
 8000f1e:	4b6e      	ldr	r3, [pc, #440]	@ (80010d8 <HAL_UART_MspInit+0x244>)
 8000f20:	2200      	movs	r2, #0
 8000f22:	60da      	str	r2, [r3, #12]
 8000f24:	4b6c      	ldr	r3, [pc, #432]	@ (80010d8 <HAL_UART_MspInit+0x244>)
 8000f26:	2280      	movs	r2, #128	@ 0x80
 8000f28:	611a      	str	r2, [r3, #16]
 8000f2a:	4b6b      	ldr	r3, [pc, #428]	@ (80010d8 <HAL_UART_MspInit+0x244>)
 8000f2c:	2200      	movs	r2, #0
 8000f2e:	615a      	str	r2, [r3, #20]
 8000f30:	4b69      	ldr	r3, [pc, #420]	@ (80010d8 <HAL_UART_MspInit+0x244>)
 8000f32:	2200      	movs	r2, #0
 8000f34:	619a      	str	r2, [r3, #24]
 8000f36:	4b68      	ldr	r3, [pc, #416]	@ (80010d8 <HAL_UART_MspInit+0x244>)
 8000f38:	2200      	movs	r2, #0
 8000f3a:	61da      	str	r2, [r3, #28]
 8000f3c:	4b66      	ldr	r3, [pc, #408]	@ (80010d8 <HAL_UART_MspInit+0x244>)
 8000f3e:	2200      	movs	r2, #0
 8000f40:	621a      	str	r2, [r3, #32]
 8000f42:	4b65      	ldr	r3, [pc, #404]	@ (80010d8 <HAL_UART_MspInit+0x244>)
 8000f44:	0018      	movs	r0, r3
 8000f46:	f000 faf5 	bl	8001534 <HAL_DMA_Init>
 8000f4a:	1e03      	subs	r3, r0, #0
 8000f4c:	d001      	beq.n	8000f52 <HAL_UART_MspInit+0xbe>
 8000f4e:	f7ff fe41 	bl	8000bd4 <Error_Handler>
 8000f52:	687b      	ldr	r3, [r7, #4]
 8000f54:	4a60      	ldr	r2, [pc, #384]	@ (80010d8 <HAL_UART_MspInit+0x244>)
 8000f56:	675a      	str	r2, [r3, #116]	@ 0x74
 8000f58:	4b5f      	ldr	r3, [pc, #380]	@ (80010d8 <HAL_UART_MspInit+0x244>)
 8000f5a:	687a      	ldr	r2, [r7, #4]
 8000f5c:	629a      	str	r2, [r3, #40]	@ 0x28
 8000f5e:	4b60      	ldr	r3, [pc, #384]	@ (80010e0 <HAL_UART_MspInit+0x24c>)
 8000f60:	4a60      	ldr	r2, [pc, #384]	@ (80010e4 <HAL_UART_MspInit+0x250>)
 8000f62:	601a      	str	r2, [r3, #0]
 8000f64:	4b5e      	ldr	r3, [pc, #376]	@ (80010e0 <HAL_UART_MspInit+0x24c>)
 8000f66:	2205      	movs	r2, #5
 8000f68:	605a      	str	r2, [r3, #4]
 8000f6a:	4b5d      	ldr	r3, [pc, #372]	@ (80010e0 <HAL_UART_MspInit+0x24c>)
 8000f6c:	2210      	movs	r2, #16
 8000f6e:	609a      	str	r2, [r3, #8]
 8000f70:	4b5b      	ldr	r3, [pc, #364]	@ (80010e0 <HAL_UART_MspInit+0x24c>)
 8000f72:	2200      	movs	r2, #0
 8000f74:	60da      	str	r2, [r3, #12]
 8000f76:	4b5a      	ldr	r3, [pc, #360]	@ (80010e0 <HAL_UART_MspInit+0x24c>)
 8000f78:	2280      	movs	r2, #128	@ 0x80
 8000f7a:	611a      	str	r2, [r3, #16]
 8000f7c:	4b58      	ldr	r3, [pc, #352]	@ (80010e0 <HAL_UART_MspInit+0x24c>)
 8000f7e:	2200      	movs	r2, #0
 8000f80:	615a      	str	r2, [r3, #20]
 8000f82:	4b57      	ldr	r3, [pc, #348]	@ (80010e0 <HAL_UART_MspInit+0x24c>)
 8000f84:	2200      	movs	r2, #0
 8000f86:	619a      	str	r2, [r3, #24]
 8000f88:	4b55      	ldr	r3, [pc, #340]	@ (80010e0 <HAL_UART_MspInit+0x24c>)
 8000f8a:	2200      	movs	r2, #0
 8000f8c:	61da      	str	r2, [r3, #28]
 8000f8e:	4b54      	ldr	r3, [pc, #336]	@ (80010e0 <HAL_UART_MspInit+0x24c>)
 8000f90:	2200      	movs	r2, #0
 8000f92:	621a      	str	r2, [r3, #32]
 8000f94:	4b52      	ldr	r3, [pc, #328]	@ (80010e0 <HAL_UART_MspInit+0x24c>)
 8000f96:	0018      	movs	r0, r3
 8000f98:	f000 facc 	bl	8001534 <HAL_DMA_Init>
 8000f9c:	1e03      	subs	r3, r0, #0
 8000f9e:	d001      	beq.n	8000fa4 <HAL_UART_MspInit+0x110>
 8000fa0:	f7ff fe18 	bl	8000bd4 <Error_Handler>
 8000fa4:	687b      	ldr	r3, [r7, #4]
 8000fa6:	4a4e      	ldr	r2, [pc, #312]	@ (80010e0 <HAL_UART_MspInit+0x24c>)
 8000fa8:	671a      	str	r2, [r3, #112]	@ 0x70
 8000faa:	4b4d      	ldr	r3, [pc, #308]	@ (80010e0 <HAL_UART_MspInit+0x24c>)
 8000fac:	687a      	ldr	r2, [r7, #4]
 8000fae:	629a      	str	r2, [r3, #40]	@ 0x28
 8000fb0:	2200      	movs	r2, #0
 8000fb2:	2100      	movs	r1, #0
 8000fb4:	201d      	movs	r0, #29
 8000fb6:	f000 fa7b 	bl	80014b0 <HAL_NVIC_SetPriority>
 8000fba:	201d      	movs	r0, #29
 8000fbc:	f000 fa8d 	bl	80014da <HAL_NVIC_EnableIRQ>
 8000fc0:	e082      	b.n	80010c8 <HAL_UART_MspInit+0x234>
 8000fc2:	687b      	ldr	r3, [r7, #4]
 8000fc4:	681b      	ldr	r3, [r3, #0]
 8000fc6:	4a48      	ldr	r2, [pc, #288]	@ (80010e8 <HAL_UART_MspInit+0x254>)
 8000fc8:	4293      	cmp	r3, r2
 8000fca:	d000      	beq.n	8000fce <HAL_UART_MspInit+0x13a>
 8000fcc:	e07c      	b.n	80010c8 <HAL_UART_MspInit+0x234>
 8000fce:	4b41      	ldr	r3, [pc, #260]	@ (80010d4 <HAL_UART_MspInit+0x240>)
 8000fd0:	6b5a      	ldr	r2, [r3, #52]	@ 0x34
 8000fd2:	4b40      	ldr	r3, [pc, #256]	@ (80010d4 <HAL_UART_MspInit+0x240>)
 8000fd4:	2180      	movs	r1, #128	@ 0x80
 8000fd6:	01c9      	lsls	r1, r1, #7
 8000fd8:	430a      	orrs	r2, r1
 8000fda:	635a      	str	r2, [r3, #52]	@ 0x34
 8000fdc:	4b3d      	ldr	r3, [pc, #244]	@ (80010d4 <HAL_UART_MspInit+0x240>)
 8000fde:	6ada      	ldr	r2, [r3, #44]	@ 0x2c
 8000fe0:	4b3c      	ldr	r3, [pc, #240]	@ (80010d4 <HAL_UART_MspInit+0x240>)
 8000fe2:	2101      	movs	r1, #1
 8000fe4:	430a      	orrs	r2, r1
 8000fe6:	62da      	str	r2, [r3, #44]	@ 0x2c
 8000fe8:	4b3a      	ldr	r3, [pc, #232]	@ (80010d4 <HAL_UART_MspInit+0x240>)
 8000fea:	6adb      	ldr	r3, [r3, #44]	@ 0x2c
 8000fec:	2201      	movs	r2, #1
 8000fee:	4013      	ands	r3, r2
 8000ff0:	60fb      	str	r3, [r7, #12]
 8000ff2:	68fb      	ldr	r3, [r7, #12]
 8000ff4:	2114      	movs	r1, #20
 8000ff6:	187b      	adds	r3, r7, r1
 8000ff8:	22c0      	movs	r2, #192	@ 0xc0
 8000ffa:	00d2      	lsls	r2, r2, #3
 8000ffc:	601a      	str	r2, [r3, #0]
 8000ffe:	187b      	adds	r3, r7, r1
 8001000:	2202      	movs	r2, #2
 8001002:	605a      	str	r2, [r3, #4]
 8001004:	187b      	adds	r3, r7, r1
 8001006:	2200      	movs	r2, #0
 8001008:	609a      	str	r2, [r3, #8]
 800100a:	187b      	adds	r3, r7, r1
 800100c:	2203      	movs	r2, #3
 800100e:	60da      	str	r2, [r3, #12]
 8001010:	187b      	adds	r3, r7, r1
 8001012:	2204      	movs	r2, #4
 8001014:	611a      	str	r2, [r3, #16]
 8001016:	187a      	adds	r2, r7, r1
 8001018:	23a0      	movs	r3, #160	@ 0xa0
 800101a:	05db      	lsls	r3, r3, #23
 800101c:	0011      	movs	r1, r2
 800101e:	0018      	movs	r0, r3
 8001020:	f000 fd32 	bl	8001a88 <HAL_GPIO_Init>
 8001024:	4b31      	ldr	r3, [pc, #196]	@ (80010ec <HAL_UART_MspInit+0x258>)
 8001026:	4a32      	ldr	r2, [pc, #200]	@ (80010f0 <HAL_UART_MspInit+0x25c>)
 8001028:	601a      	str	r2, [r3, #0]
 800102a:	4b30      	ldr	r3, [pc, #192]	@ (80010ec <HAL_UART_MspInit+0x258>)
 800102c:	2203      	movs	r2, #3
 800102e:	605a      	str	r2, [r3, #4]
 8001030:	4b2e      	ldr	r3, [pc, #184]	@ (80010ec <HAL_UART_MspInit+0x258>)
 8001032:	2200      	movs	r2, #0
 8001034:	609a      	str	r2, [r3, #8]
 8001036:	4b2d      	ldr	r3, [pc, #180]	@ (80010ec <HAL_UART_MspInit+0x258>)
 8001038:	2200      	movs	r2, #0
 800103a:	60da      	str	r2, [r3, #12]
 800103c:	4b2b      	ldr	r3, [pc, #172]	@ (80010ec <HAL_UART_MspInit+0x258>)
 800103e:	2280      	movs	r2, #128	@ 0x80
 8001040:	611a      	str	r2, [r3, #16]
 8001042:	4b2a      	ldr	r3, [pc, #168]	@ (80010ec <HAL_UART_MspInit+0x258>)
 8001044:	2200      	movs	r2, #0
 8001046:	615a      	str	r2, [r3, #20]
 8001048:	4b28      	ldr	r3, [pc, #160]	@ (80010ec <HAL_UART_MspInit+0x258>)
 800104a:	2200      	movs	r2, #0
 800104c:	619a      	str	r2, [r3, #24]
 800104e:	4b27      	ldr	r3, [pc, #156]	@ (80010ec <HAL_UART_MspInit+0x258>)
 8001050:	2200      	movs	r2, #0
 8001052:	61da      	str	r2, [r3, #28]
 8001054:	4b25      	ldr	r3, [pc, #148]	@ (80010ec <HAL_UART_MspInit+0x258>)
 8001056:	2200      	movs	r2, #0
 8001058:	621a      	str	r2, [r3, #32]
 800105a:	4b24      	ldr	r3, [pc, #144]	@ (80010ec <HAL_UART_MspInit+0x258>)
 800105c:	0018      	movs	r0, r3
 800105e:	f000 fa69 	bl	8001534 <HAL_DMA_Init>
 8001062:	1e03      	subs	r3, r0, #0
 8001064:	d001      	beq.n	800106a <HAL_UART_MspInit+0x1d6>
 8001066:	f7ff fdb5 	bl	8000bd4 <Error_Handler>
 800106a:	687b      	ldr	r3, [r7, #4]
 800106c:	4a1f      	ldr	r2, [pc, #124]	@ (80010ec <HAL_UART_MspInit+0x258>)
 800106e:	675a      	str	r2, [r3, #116]	@ 0x74
 8001070:	4b1e      	ldr	r3, [pc, #120]	@ (80010ec <HAL_UART_MspInit+0x258>)
 8001072:	687a      	ldr	r2, [r7, #4]
 8001074:	629a      	str	r2, [r3, #40]	@ 0x28
 8001076:	4b1f      	ldr	r3, [pc, #124]	@ (80010f4 <HAL_UART_MspInit+0x260>)
 8001078:	4a1f      	ldr	r2, [pc, #124]	@ (80010f8 <HAL_UART_MspInit+0x264>)
 800107a:	601a      	str	r2, [r3, #0]
 800107c:	4b1d      	ldr	r3, [pc, #116]	@ (80010f4 <HAL_UART_MspInit+0x260>)
 800107e:	2203      	movs	r2, #3
 8001080:	605a      	str	r2, [r3, #4]
 8001082:	4b1c      	ldr	r3, [pc, #112]	@ (80010f4 <HAL_UART_MspInit+0x260>)
 8001084:	2210      	movs	r2, #16
 8001086:	609a      	str	r2, [r3, #8]
 8001088:	4b1a      	ldr	r3, [pc, #104]	@ (80010f4 <HAL_UART_MspInit+0x260>)
 800108a:	2200      	movs	r2, #0
 800108c:	60da      	str	r2, [r3, #12]
 800108e:	4b19      	ldr	r3, [pc, #100]	@ (80010f4 <HAL_UART_MspInit+0x260>)
 8001090:	2280      	movs	r2, #128	@ 0x80
 8001092:	611a      	str	r2, [r3, #16]
 8001094:	4b17      	ldr	r3, [pc, #92]	@ (80010f4 <HAL_UART_MspInit+0x260>)
 8001096:	2200      	movs	r2, #0
 8001098:	615a      	str	r2, [r3, #20]
 800109a:	4b16      	ldr	r3, [pc, #88]	@ (80010f4 <HAL_UART_MspInit+0x260>)
 800109c:	2200      	movs	r2, #0
 800109e:	619a      	str	r2, [r3, #24]
 80010a0:	4b14      	ldr	r3, [pc, #80]	@ (80010f4 <HAL_UART_MspInit+0x260>)
 80010a2:	2200      	movs	r2, #0
 80010a4:	61da      	str	r2, [r3, #28]
 80010a6:	4b13      	ldr	r3, [pc, #76]	@ (80010f4 <HAL_UART_MspInit+0x260>)
 80010a8:	2200      	movs	r2, #0
 80010aa:	621a      	str	r2, [r3, #32]
 80010ac:	4b11      	ldr	r3, [pc, #68]	@ (80010f4 <HAL_UART_MspInit+0x260>)
 80010ae:	0018      	movs	r0, r3
 80010b0:	f000 fa40 	bl	8001534 <HAL_DMA_Init>
 80010b4:	1e03      	subs	r3, r0, #0
 80010b6:	d001      	beq.n	80010bc <HAL_UART_MspInit+0x228>
 80010b8:	f7ff fd8c 	bl	8000bd4 <Error_Handler>
 80010bc:	687b      	ldr	r3, [r7, #4]
 80010be:	4a0d      	ldr	r2, [pc, #52]	@ (80010f4 <HAL_UART_MspInit+0x260>)
 80010c0:	671a      	str	r2, [r3, #112]	@ 0x70
 80010c2:	4b0c      	ldr	r3, [pc, #48]	@ (80010f4 <HAL_UART_MspInit+0x260>)
 80010c4:	687a      	ldr	r2, [r7, #4]
 80010c6:	629a      	str	r2, [r3, #40]	@ 0x28
 80010c8:	46c0      	nop			@ (mov r8, r8)
 80010ca:	46bd      	mov	sp, r7
 80010cc:	b00b      	add	sp, #44	@ 0x2c
 80010ce:	bd90      	pop	{r4, r7, pc}
 80010d0:	40004800 	.word	0x40004800
 80010d4:	40021000 	.word	0x40021000
 80010d8:	20000284 	.word	0x20000284
 80010dc:	40020030 	.word	0x40020030
 80010e0:	200002cc 	.word	0x200002cc
 80010e4:	4002001c 	.word	0x4002001c
 80010e8:	40013800 	.word	0x40013800
 80010ec:	20000314 	.word	0x20000314
 80010f0:	40020058 	.word	0x40020058
 80010f4:	2000035c 	.word	0x2000035c
 80010f8:	40020044 	.word	0x40020044

080010fc <HAL_UART_MspDeInit>:
 80010fc:	b580      	push	{r7, lr}
 80010fe:	b082      	sub	sp, #8
 8001100:	af00      	add	r7, sp, #0
 8001102:	6078      	str	r0, [r7, #4]
 8001104:	687b      	ldr	r3, [r7, #4]
 8001106:	681b      	ldr	r3, [r3, #0]
 8001108:	4a1e      	ldr	r2, [pc, #120]	@ (8001184 <HAL_UART_MspDeInit+0x88>)
 800110a:	4293      	cmp	r3, r2
 800110c:	d119      	bne.n	8001142 <HAL_UART_MspDeInit+0x46>
 800110e:	4b1e      	ldr	r3, [pc, #120]	@ (8001188 <HAL_UART_MspDeInit+0x8c>)
 8001110:	6b9a      	ldr	r2, [r3, #56]	@ 0x38
 8001112:	4b1d      	ldr	r3, [pc, #116]	@ (8001188 <HAL_UART_MspDeInit+0x8c>)
 8001114:	491d      	ldr	r1, [pc, #116]	@ (800118c <HAL_UART_MspDeInit+0x90>)
 8001116:	400a      	ands	r2, r1
 8001118:	639a      	str	r2, [r3, #56]	@ 0x38
 800111a:	23a0      	movs	r3, #160	@ 0xa0
 800111c:	05db      	lsls	r3, r3, #23
 800111e:	210c      	movs	r1, #12
 8001120:	0018      	movs	r0, r3
 8001122:	f000 fe2f 	bl	8001d84 <HAL_GPIO_DeInit>
 8001126:	687b      	ldr	r3, [r7, #4]
 8001128:	6f5b      	ldr	r3, [r3, #116]	@ 0x74
 800112a:	0018      	movs	r0, r3
 800112c:	f000 fa7a 	bl	8001624 <HAL_DMA_DeInit>
 8001130:	687b      	ldr	r3, [r7, #4]
 8001132:	6f1b      	ldr	r3, [r3, #112]	@ 0x70
 8001134:	0018      	movs	r0, r3
 8001136:	f000 fa75 	bl	8001624 <HAL_DMA_DeInit>
 800113a:	201d      	movs	r0, #29
 800113c:	f000 f9dd 	bl	80014fa <HAL_NVIC_DisableIRQ>
 8001140:	e01c      	b.n	800117c <HAL_UART_MspDeInit+0x80>
 8001142:	687b      	ldr	r3, [r7, #4]
 8001144:	681b      	ldr	r3, [r3, #0]
 8001146:	4a12      	ldr	r2, [pc, #72]	@ (8001190 <HAL_UART_MspDeInit+0x94>)
 8001148:	4293      	cmp	r3, r2
 800114a:	d117      	bne.n	800117c <HAL_UART_MspDeInit+0x80>
 800114c:	4b0e      	ldr	r3, [pc, #56]	@ (8001188 <HAL_UART_MspDeInit+0x8c>)
 800114e:	6b5a      	ldr	r2, [r3, #52]	@ 0x34
 8001150:	4b0d      	ldr	r3, [pc, #52]	@ (8001188 <HAL_UART_MspDeInit+0x8c>)
 8001152:	4910      	ldr	r1, [pc, #64]	@ (8001194 <HAL_UART_MspDeInit+0x98>)
 8001154:	400a      	ands	r2, r1
 8001156:	635a      	str	r2, [r3, #52]	@ 0x34
 8001158:	23c0      	movs	r3, #192	@ 0xc0
 800115a:	00da      	lsls	r2, r3, #3
 800115c:	23a0      	movs	r3, #160	@ 0xa0
 800115e:	05db      	lsls	r3, r3, #23
 8001160:	0011      	movs	r1, r2
 8001162:	0018      	movs	r0, r3
 8001164:	f000 fe0e 	bl	8001d84 <HAL_GPIO_DeInit>
 8001168:	687b      	ldr	r3, [r7, #4]
 800116a:	6f5b      	ldr	r3, [r3, #116]	@ 0x74
 800116c:	0018      	movs	r0, r3
 800116e:	f000 fa59 	bl	8001624 <HAL_DMA_DeInit>
 8001172:	687b      	ldr	r3, [r7, #4]
 8001174:	6f1b      	ldr	r3, [r3, #112]	@ 0x70
 8001176:	0018      	movs	r0, r3
 8001178:	f000 fa54 	bl	8001624 <HAL_DMA_DeInit>
 800117c:	46c0      	nop			@ (mov r8, r8)
 800117e:	46bd      	mov	sp, r7
 8001180:	b002      	add	sp, #8
 8001182:	bd80      	pop	{r7, pc}
 8001184:	40004800 	.word	0x40004800
 8001188:	40021000 	.word	0x40021000
 800118c:	fffbffff 	.word	0xfffbffff
 8001190:	40013800 	.word	0x40013800
 8001194:	ffffbfff 	.word	0xffffbfff

08001198 <Reset_Handler>:
 8001198:	480d      	ldr	r0, [pc, #52]	@ (80011d0 <LoopForever+0x2>)
 800119a:	4685      	mov	sp, r0
 800119c:	f7ff fe16 	bl	8000dcc <SystemInit>
 80011a0:	480c      	ldr	r0, [pc, #48]	@ (80011d4 <LoopForever+0x6>)
 80011a2:	490d      	ldr	r1, [pc, #52]	@ (80011d8 <LoopForever+0xa>)
 80011a4:	4a0d      	ldr	r2, [pc, #52]	@ (80011dc <LoopForever+0xe>)
 80011a6:	2300      	movs	r3, #0
 80011a8:	e002      	b.n	80011b0 <LoopCopyDataInit>

080011aa <CopyDataInit>:
 80011aa:	58d4      	ldr	r4, [r2, r3]
 80011ac:	50c4      	str	r4, [r0, r3]
 80011ae:	3304      	adds	r3, #4

080011b0 <LoopCopyDataInit>:
 80011b0:	18c4      	adds	r4, r0, r3
 80011b2:	428c      	cmp	r4, r1
 80011b4:	d3f9      	bcc.n	80011aa <CopyDataInit>
 80011b6:	4a0a      	ldr	r2, [pc, #40]	@ (80011e0 <LoopForever+0x12>)
 80011b8:	4c0a      	ldr	r4, [pc, #40]	@ (80011e4 <LoopForever+0x16>)
 80011ba:	2300      	movs	r3, #0
 80011bc:	e001      	b.n	80011c2 <LoopFillZerobss>

080011be <FillZerobss>:
 80011be:	6013      	str	r3, [r2, #0]
 80011c0:	3204      	adds	r2, #4

080011c2 <LoopFillZerobss>:
 80011c2:	42a2      	cmp	r2, r4
 80011c4:	d3fb      	bcc.n	80011be <FillZerobss>
 80011c6:	f004 fde3 	bl	8005d90 <__libc_init_array>
 80011ca:	f7ff fbef 	bl	80009ac <main>

080011ce <LoopForever>:
 80011ce:	e7fe      	b.n	80011ce <LoopForever>
 80011d0:	20005000 	.word	0x20005000
 80011d4:	20000000 	.word	0x20000000
 80011d8:	20000060 	.word	0x20000060
 80011dc:	08006678 	.word	0x08006678
 80011e0:	20000060 	.word	0x20000060
 80011e4:	200004f0 	.word	0x200004f0

080011e8 <ADC1_COMP_IRQHandler>:
 80011e8:	e7fe      	b.n	80011e8 <ADC1_COMP_IRQHandler>
	...

080011ec <HAL_Init>:
 80011ec:	b580      	push	{r7, lr}
 80011ee:	b082      	sub	sp, #8
 80011f0:	af00      	add	r7, sp, #0
 80011f2:	1dfb      	adds	r3, r7, #7
 80011f4:	2200      	movs	r2, #0
 80011f6:	701a      	strb	r2, [r3, #0]
 80011f8:	4b0b      	ldr	r3, [pc, #44]	@ (8001228 <HAL_Init+0x3c>)
 80011fa:	681a      	ldr	r2, [r3, #0]
 80011fc:	4b0a      	ldr	r3, [pc, #40]	@ (8001228 <HAL_Init+0x3c>)
 80011fe:	2140      	movs	r1, #64	@ 0x40
 8001200:	430a      	orrs	r2, r1
 8001202:	601a      	str	r2, [r3, #0]
 8001204:	2000      	movs	r0, #0
 8001206:	f000 f811 	bl	800122c <HAL_InitTick>
 800120a:	1e03      	subs	r3, r0, #0
 800120c:	d003      	beq.n	8001216 <HAL_Init+0x2a>
 800120e:	1dfb      	adds	r3, r7, #7
 8001210:	2201      	movs	r2, #1
 8001212:	701a      	strb	r2, [r3, #0]
 8001214:	e001      	b.n	800121a <HAL_Init+0x2e>
 8001216:	f7ff fd39 	bl	8000c8c <HAL_MspInit>
 800121a:	1dfb      	adds	r3, r7, #7
 800121c:	781b      	ldrb	r3, [r3, #0]
 800121e:	0018      	movs	r0, r3
 8001220:	46bd      	mov	sp, r7
 8001222:	b002      	add	sp, #8
 8001224:	bd80      	pop	{r7, pc}
 8001226:	46c0      	nop			@ (mov r8, r8)
 8001228:	40022000 	.word	0x40022000

0800122c <HAL_InitTick>:
 800122c:	b590      	push	{r4, r7, lr}
 800122e:	b083      	sub	sp, #12
 8001230:	af00      	add	r7, sp, #0
 8001232:	6078      	str	r0, [r7, #4]
 8001234:	4b14      	ldr	r3, [pc, #80]	@ (8001288 <HAL_InitTick+0x5c>)
 8001236:	681c      	ldr	r4, [r3, #0]
 8001238:	4b14      	ldr	r3, [pc, #80]	@ (800128c <HAL_InitTick+0x60>)
 800123a:	781b      	ldrb	r3, [r3, #0]
 800123c:	0019      	movs	r1, r3
 800123e:	23fa      	movs	r3, #250	@ 0xfa
 8001240:	0098      	lsls	r0, r3, #2
 8001242:	f7fe ff73 	bl	800012c <__udivsi3>
 8001246:	0003      	movs	r3, r0
 8001248:	0019      	movs	r1, r3
 800124a:	0020      	movs	r0, r4
 800124c:	f7fe ff6e 	bl	800012c <__udivsi3>
 8001250:	0003      	movs	r3, r0
 8001252:	0018      	movs	r0, r3
 8001254:	f000 f961 	bl	800151a <HAL_SYSTICK_Config>
 8001258:	1e03      	subs	r3, r0, #0
 800125a:	d001      	beq.n	8001260 <HAL_InitTick+0x34>
 800125c:	2301      	movs	r3, #1
 800125e:	e00f      	b.n	8001280 <HAL_InitTick+0x54>
 8001260:	687b      	ldr	r3, [r7, #4]
 8001262:	2b03      	cmp	r3, #3
 8001264:	d80b      	bhi.n	800127e <HAL_InitTick+0x52>
 8001266:	6879      	ldr	r1, [r7, #4]
 8001268:	2301      	movs	r3, #1
 800126a:	425b      	negs	r3, r3
 800126c:	2200      	movs	r2, #0
 800126e:	0018      	movs	r0, r3
 8001270:	f000 f91e 	bl	80014b0 <HAL_NVIC_SetPriority>
 8001274:	4b06      	ldr	r3, [pc, #24]	@ (8001290 <HAL_InitTick+0x64>)
 8001276:	687a      	ldr	r2, [r7, #4]
 8001278:	601a      	str	r2, [r3, #0]
 800127a:	2300      	movs	r3, #0
 800127c:	e000      	b.n	8001280 <HAL_InitTick+0x54>
 800127e:	2301      	movs	r3, #1
 8001280:	0018      	movs	r0, r3
 8001282:	46bd      	mov	sp, r7
 8001284:	b003      	add	sp, #12
 8001286:	bd90      	pop	{r4, r7, pc}
 8001288:	20000004 	.word	0x20000004
 800128c:	2000000c 	.word	0x2000000c
 8001290:	20000008 	.word	0x20000008

08001294 <HAL_IncTick>:
 8001294:	b580      	push	{r7, lr}
 8001296:	af00      	add	r7, sp, #0
 8001298:	4b05      	ldr	r3, [pc, #20]	@ (80012b0 <HAL_IncTick+0x1c>)
 800129a:	781b      	ldrb	r3, [r3, #0]
 800129c:	001a      	movs	r2, r3
 800129e:	4b05      	ldr	r3, [pc, #20]	@ (80012b4 <HAL_IncTick+0x20>)
 80012a0:	681b      	ldr	r3, [r3, #0]
 80012a2:	18d2      	adds	r2, r2, r3
 80012a4:	4b03      	ldr	r3, [pc, #12]	@ (80012b4 <HAL_IncTick+0x20>)
 80012a6:	601a      	str	r2, [r3, #0]
 80012a8:	46c0      	nop			@ (mov r8, r8)
 80012aa:	46bd      	mov	sp, r7
 80012ac:	bd80      	pop	{r7, pc}
 80012ae:	46c0      	nop			@ (mov r8, r8)
 80012b0:	2000000c 	.word	0x2000000c
 80012b4:	200003a4 	.word	0x200003a4

080012b8 <HAL_GetTick>:
 80012b8:	b580      	push	{r7, lr}
 80012ba:	af00      	add	r7, sp, #0
 80012bc:	4b02      	ldr	r3, [pc, #8]	@ (80012c8 <HAL_GetTick+0x10>)
 80012be:	681b      	ldr	r3, [r3, #0]
 80012c0:	0018      	movs	r0, r3
 80012c2:	46bd      	mov	sp, r7
 80012c4:	bd80      	pop	{r7, pc}
 80012c6:	46c0      	nop			@ (mov r8, r8)
 80012c8:	200003a4 	.word	0x200003a4

080012cc <HAL_Delay>:
 80012cc:	b580      	push	{r7, lr}
 80012ce:	b084      	sub	sp, #16
 80012d0:	af00      	add	r7, sp, #0
 80012d2:	6078      	str	r0, [r7, #4]
 80012d4:	f7ff fff0 	bl	80012b8 <HAL_GetTick>
 80012d8:	0003      	movs	r3, r0
 80012da:	60bb      	str	r3, [r7, #8]
 80012dc:	687b      	ldr	r3, [r7, #4]
 80012de:	60fb      	str	r3, [r7, #12]
 80012e0:	68fb      	ldr	r3, [r7, #12]
 80012e2:	3301      	adds	r3, #1
 80012e4:	d005      	beq.n	80012f2 <HAL_Delay+0x26>
 80012e6:	4b0a      	ldr	r3, [pc, #40]	@ (8001310 <HAL_Delay+0x44>)
 80012e8:	781b      	ldrb	r3, [r3, #0]
 80012ea:	001a      	movs	r2, r3
 80012ec:	68fb      	ldr	r3, [r7, #12]
 80012ee:	189b      	adds	r3, r3, r2
 80012f0:	60fb      	str	r3, [r7, #12]
 80012f2:	46c0      	nop			@ (mov r8, r8)
 80012f4:	f7ff ffe0 	bl	80012b8 <HAL_GetTick>
 80012f8:	0002      	movs	r2, r0
 80012fa:	68bb      	ldr	r3, [r7, #8]
 80012fc:	1ad3      	subs	r3, r2, r3
 80012fe:	68fa      	ldr	r2, [r7, #12]
 8001300:	429a      	cmp	r2, r3
 8001302:	d8f7      	bhi.n	80012f4 <HAL_Delay+0x28>
 8001304:	46c0      	nop			@ (mov r8, r8)
 8001306:	46c0      	nop			@ (mov r8, r8)
 8001308:	46bd      	mov	sp, r7
 800130a:	b004      	add	sp, #16
 800130c:	bd80      	pop	{r7, pc}
 800130e:	46c0      	nop			@ (mov r8, r8)
 8001310:	2000000c 	.word	0x2000000c

08001314 <__NVIC_EnableIRQ>:
 8001314:	b580      	push	{r7, lr}
 8001316:	b082      	sub	sp, #8
 8001318:	af00      	add	r7, sp, #0
 800131a:	0002      	movs	r2, r0
 800131c:	1dfb      	adds	r3, r7, #7
 800131e:	701a      	strb	r2, [r3, #0]
 8001320:	1dfb      	adds	r3, r7, #7
 8001322:	781b      	ldrb	r3, [r3, #0]
 8001324:	2b7f      	cmp	r3, #127	@ 0x7f
 8001326:	d809      	bhi.n	800133c <__NVIC_EnableIRQ+0x28>
 8001328:	1dfb      	adds	r3, r7, #7
 800132a:	781b      	ldrb	r3, [r3, #0]
 800132c:	001a      	movs	r2, r3
 800132e:	231f      	movs	r3, #31
 8001330:	401a      	ands	r2, r3
 8001332:	4b04      	ldr	r3, [pc, #16]	@ (8001344 <__NVIC_EnableIRQ+0x30>)
 8001334:	2101      	movs	r1, #1
 8001336:	4091      	lsls	r1, r2
 8001338:	000a      	movs	r2, r1
 800133a:	601a      	str	r2, [r3, #0]
 800133c:	46c0      	nop			@ (mov r8, r8)
 800133e:	46bd      	mov	sp, r7
 8001340:	b002      	add	sp, #8
 8001342:	bd80      	pop	{r7, pc}
 8001344:	e000e100 	.word	0xe000e100

08001348 <__NVIC_DisableIRQ>:
 8001348:	b580      	push	{r7, lr}
 800134a:	b082      	sub	sp, #8
 800134c:	af00      	add	r7, sp, #0
 800134e:	0002      	movs	r2, r0
 8001350:	1dfb      	adds	r3, r7, #7
 8001352:	701a      	strb	r2, [r3, #0]
 8001354:	1dfb      	adds	r3, r7, #7
 8001356:	781b      	ldrb	r3, [r3, #0]
 8001358:	2b7f      	cmp	r3, #127	@ 0x7f
 800135a:	d810      	bhi.n	800137e <__NVIC_DisableIRQ+0x36>
 800135c:	1dfb      	adds	r3, r7, #7
 800135e:	781b      	ldrb	r3, [r3, #0]
 8001360:	001a      	movs	r2, r3
 8001362:	231f      	movs	r3, #31
 8001364:	4013      	ands	r3, r2
 8001366:	4908      	ldr	r1, [pc, #32]	@ (8001388 <__NVIC_DisableIRQ+0x40>)
 8001368:	2201      	movs	r2, #1
 800136a:	409a      	lsls	r2, r3
 800136c:	0013      	movs	r3, r2
 800136e:	2280      	movs	r2, #128	@ 0x80
 8001370:	508b      	str	r3, [r1, r2]
 8001372:	f3bf 8f4f 	dsb	sy
 8001376:	46c0      	nop			@ (mov r8, r8)
 8001378:	f3bf 8f6f 	isb	sy
 800137c:	46c0      	nop			@ (mov r8, r8)
 800137e:	46c0      	nop			@ (mov r8, r8)
 8001380:	46bd      	mov	sp, r7
 8001382:	b002      	add	sp, #8
 8001384:	bd80      	pop	{r7, pc}
 8001386:	46c0      	nop			@ (mov r8, r8)
 8001388:	e000e100 	.word	0xe000e100

0800138c <__NVIC_SetPriority>:
 800138c:	b590      	push	{r4, r7, lr}
 800138e:	b083      	sub	sp, #12
 8001390:	af00      	add	r7, sp, #0
 8001392:	0002      	movs	r2, r0
 8001394:	6039      	str	r1, [r7, #0]
 8001396:	1dfb      	adds	r3, r7, #7
 8001398:	701a      	strb	r2, [r3, #0]
 800139a:	1dfb      	adds	r3, r7, #7
 800139c:	781b      	ldrb	r3, [r3, #0]
 800139e:	2b7f      	cmp	r3, #127	@ 0x7f
 80013a0:	d828      	bhi.n	80013f4 <__NVIC_SetPriority+0x68>
 80013a2:	4a2f      	ldr	r2, [pc, #188]	@ (8001460 <__NVIC_SetPriority+0xd4>)
 80013a4:	1dfb      	adds	r3, r7, #7
 80013a6:	781b      	ldrb	r3, [r3, #0]
 80013a8:	b25b      	sxtb	r3, r3
 80013aa:	089b      	lsrs	r3, r3, #2
 80013ac:	33c0      	adds	r3, #192	@ 0xc0
 80013ae:	009b      	lsls	r3, r3, #2
 80013b0:	589b      	ldr	r3, [r3, r2]
 80013b2:	1dfa      	adds	r2, r7, #7
 80013b4:	7812      	ldrb	r2, [r2, #0]
 80013b6:	0011      	movs	r1, r2
 80013b8:	2203      	movs	r2, #3
 80013ba:	400a      	ands	r2, r1
 80013bc:	00d2      	lsls	r2, r2, #3
 80013be:	21ff      	movs	r1, #255	@ 0xff
 80013c0:	4091      	lsls	r1, r2
 80013c2:	000a      	movs	r2, r1
 80013c4:	43d2      	mvns	r2, r2
 80013c6:	401a      	ands	r2, r3
 80013c8:	0011      	movs	r1, r2
 80013ca:	683b      	ldr	r3, [r7, #0]
 80013cc:	019b      	lsls	r3, r3, #6
 80013ce:	22ff      	movs	r2, #255	@ 0xff
 80013d0:	401a      	ands	r2, r3
 80013d2:	1dfb      	adds	r3, r7, #7
 80013d4:	781b      	ldrb	r3, [r3, #0]
 80013d6:	0018      	movs	r0, r3
 80013d8:	2303      	movs	r3, #3
 80013da:	4003      	ands	r3, r0
 80013dc:	00db      	lsls	r3, r3, #3
 80013de:	409a      	lsls	r2, r3
 80013e0:	481f      	ldr	r0, [pc, #124]	@ (8001460 <__NVIC_SetPriority+0xd4>)
 80013e2:	1dfb      	adds	r3, r7, #7
 80013e4:	781b      	ldrb	r3, [r3, #0]
 80013e6:	b25b      	sxtb	r3, r3
 80013e8:	089b      	lsrs	r3, r3, #2
 80013ea:	430a      	orrs	r2, r1
 80013ec:	33c0      	adds	r3, #192	@ 0xc0
 80013ee:	009b      	lsls	r3, r3, #2
 80013f0:	501a      	str	r2, [r3, r0]
 80013f2:	e031      	b.n	8001458 <__NVIC_SetPriority+0xcc>
 80013f4:	4a1b      	ldr	r2, [pc, #108]	@ (8001464 <__NVIC_SetPriority+0xd8>)
 80013f6:	1dfb      	adds	r3, r7, #7
 80013f8:	781b      	ldrb	r3, [r3, #0]
 80013fa:	0019      	movs	r1, r3
 80013fc:	230f      	movs	r3, #15
 80013fe:	400b      	ands	r3, r1
 8001400:	3b08      	subs	r3, #8
 8001402:	089b      	lsrs	r3, r3, #2
 8001404:	3306      	adds	r3, #6
 8001406:	009b      	lsls	r3, r3, #2
 8001408:	18d3      	adds	r3, r2, r3
 800140a:	3304      	adds	r3, #4
 800140c:	681b      	ldr	r3, [r3, #0]
 800140e:	1dfa      	adds	r2, r7, #7
 8001410:	7812      	ldrb	r2, [r2, #0]
 8001412:	0011      	movs	r1, r2
 8001414:	2203      	movs	r2, #3
 8001416:	400a      	ands	r2, r1
 8001418:	00d2      	lsls	r2, r2, #3
 800141a:	21ff      	movs	r1, #255	@ 0xff
 800141c:	4091      	lsls	r1, r2
 800141e:	000a      	movs	r2, r1
 8001420:	43d2      	mvns	r2, r2
 8001422:	401a      	ands	r2, r3
 8001424:	0011      	movs	r1, r2
 8001426:	683b      	ldr	r3, [r7, #0]
 8001428:	019b      	lsls	r3, r3, #6
 800142a:	22ff      	movs	r2, #255	@ 0xff
 800142c:	401a      	ands	r2, r3
 800142e:	1dfb      	adds	r3, r7, #7
 8001430:	781b      	ldrb	r3, [r3, #0]
 8001432:	0018      	movs	r0, r3
 8001434:	2303      	movs	r3, #3
 8001436:	4003      	ands	r3, r0
 8001438:	00db      	lsls	r3, r3, #3
 800143a:	409a      	lsls	r2, r3
 800143c:	4809      	ldr	r0, [pc, #36]	@ (8001464 <__NVIC_SetPriority+0xd8>)
 800143e:	1dfb      	adds	r3, r7, #7
 8001440:	781b      	ldrb	r3, [r3, #0]
 8001442:	001c      	movs	r4, r3
 8001444:	230f      	movs	r3, #15
 8001446:	4023      	ands	r3, r4
 8001448:	3b08      	subs	r3, #8
 800144a:	089b      	lsrs	r3, r3, #2
 800144c:	430a      	orrs	r2, r1
 800144e:	3306      	adds	r3, #6
 8001450:	009b      	lsls	r3, r3, #2
 8001452:	18c3      	adds	r3, r0, r3
 8001454:	3304      	adds	r3, #4
 8001456:	601a      	str	r2, [r3, #0]
 8001458:	46c0      	nop			@ (mov r8, r8)
 800145a:	46bd      	mov	sp, r7
 800145c:	b003      	add	sp, #12
 800145e:	bd90      	pop	{r4, r7, pc}
 8001460:	e000e100 	.word	0xe000e100
 8001464:	e000ed00 	.word	0xe000ed00

08001468 <SysTick_Config>:
 8001468:	b580      	push	{r7, lr}
 800146a:	b082      	sub	sp, #8
 800146c:	af00      	add	r7, sp, #0
 800146e:	6078      	str	r0, [r7, #4]
 8001470:	687b      	ldr	r3, [r7, #4]
 8001472:	1e5a      	subs	r2, r3, #1
 8001474:	2380      	movs	r3, #128	@ 0x80
 8001476:	045b      	lsls	r3, r3, #17
 8001478:	429a      	cmp	r2, r3
 800147a:	d301      	bcc.n	8001480 <SysTick_Config+0x18>
 800147c:	2301      	movs	r3, #1
 800147e:	e010      	b.n	80014a2 <SysTick_Config+0x3a>
 8001480:	4b0a      	ldr	r3, [pc, #40]	@ (80014ac <SysTick_Config+0x44>)
 8001482:	687a      	ldr	r2, [r7, #4]
 8001484:	3a01      	subs	r2, #1
 8001486:	605a      	str	r2, [r3, #4]
 8001488:	2301      	movs	r3, #1
 800148a:	425b      	negs	r3, r3
 800148c:	2103      	movs	r1, #3
 800148e:	0018      	movs	r0, r3
 8001490:	f7ff ff7c 	bl	800138c <__NVIC_SetPriority>
 8001494:	4b05      	ldr	r3, [pc, #20]	@ (80014ac <SysTick_Config+0x44>)
 8001496:	2200      	movs	r2, #0
 8001498:	609a      	str	r2, [r3, #8]
 800149a:	4b04      	ldr	r3, [pc, #16]	@ (80014ac <SysTick_Config+0x44>)
 800149c:	2207      	movs	r2, #7
 800149e:	601a      	str	r2, [r3, #0]
 80014a0:	2300      	movs	r3, #0
 80014a2:	0018      	movs	r0, r3
 80014a4:	46bd      	mov	sp, r7
 80014a6:	b002      	add	sp, #8
 80014a8:	bd80      	pop	{r7, pc}
 80014aa:	46c0      	nop			@ (mov r8, r8)
 80014ac:	e000e010 	.word	0xe000e010

080014b0 <HAL_NVIC_SetPriority>:
 80014b0:	b580      	push	{r7, lr}
 80014b2:	b084      	sub	sp, #16
 80014b4:	af00      	add	r7, sp, #0
 80014b6:	60b9      	str	r1, [r7, #8]
 80014b8:	607a      	str	r2, [r7, #4]
 80014ba:	210f      	movs	r1, #15
 80014bc:	187b      	adds	r3, r7, r1
 80014be:	1c02      	adds	r2, r0, #0
 80014c0:	701a      	strb	r2, [r3, #0]
 80014c2:	68ba      	ldr	r2, [r7, #8]
 80014c4:	187b      	adds	r3, r7, r1
 80014c6:	781b      	ldrb	r3, [r3, #0]
 80014c8:	b25b      	sxtb	r3, r3
 80014ca:	0011      	movs	r1, r2
 80014cc:	0018      	movs	r0, r3
 80014ce:	f7ff ff5d 	bl	800138c <__NVIC_SetPriority>
 80014d2:	46c0      	nop			@ (mov r8, r8)
 80014d4:	46bd      	mov	sp, r7
 80014d6:	b004      	add	sp, #16
 80014d8:	bd80      	pop	{r7, pc}

080014da <HAL_NVIC_EnableIRQ>:
 80014da:	b580      	push	{r7, lr}
 80014dc:	b082      	sub	sp, #8
 80014de:	af00      	add	r7, sp, #0
 80014e0:	0002      	movs	r2, r0
 80014e2:	1dfb      	adds	r3, r7, #7
 80014e4:	701a      	strb	r2, [r3, #0]
 80014e6:	1dfb      	adds	r3, r7, #7
 80014e8:	781b      	ldrb	r3, [r3, #0]
 80014ea:	b25b      	sxtb	r3, r3
 80014ec:	0018      	movs	r0, r3
 80014ee:	f7ff ff11 	bl	8001314 <__NVIC_EnableIRQ>
 80014f2:	46c0      	nop			@ (mov r8, r8)
 80014f4:	46bd      	mov	sp, r7
 80014f6:	b002      	add	sp, #8
 80014f8:	bd80      	pop	{r7, pc}

080014fa <HAL_NVIC_DisableIRQ>:
 80014fa:	b580      	push	{r7, lr}
 80014fc:	b082      	sub	sp, #8
 80014fe:	af00      	add	r7, sp, #0
 8001500:	0002      	movs	r2, r0
 8001502:	1dfb      	adds	r3, r7, #7
 8001504:	701a      	strb	r2, [r3, #0]
 8001506:	1dfb      	adds	r3, r7, #7
 8001508:	781b      	ldrb	r3, [r3, #0]
 800150a:	b25b      	sxtb	r3, r3
 800150c:	0018      	movs	r0, r3
 800150e:	f7ff ff1b 	bl	8001348 <__NVIC_DisableIRQ>
 8001512:	46c0      	nop			@ (mov r8, r8)
 8001514:	46bd      	mov	sp, r7
 8001516:	b002      	add	sp, #8
 8001518:	bd80      	pop	{r7, pc}

0800151a <HAL_SYSTICK_Config>:
 800151a:	b580      	push	{r7, lr}
 800151c:	b082      	sub	sp, #8
 800151e:	af00      	add	r7, sp, #0
 8001520:	6078      	str	r0, [r7, #4]
 8001522:	687b      	ldr	r3, [r7, #4]
 8001524:	0018      	movs	r0, r3
 8001526:	f7ff ff9f 	bl	8001468 <SysTick_Config>
 800152a:	0003      	movs	r3, r0
 800152c:	0018      	movs	r0, r3
 800152e:	46bd      	mov	sp, r7
 8001530:	b002      	add	sp, #8
 8001532:	bd80      	pop	{r7, pc}

08001534 <HAL_DMA_Init>:
 8001534:	b580      	push	{r7, lr}
 8001536:	b084      	sub	sp, #16
 8001538:	af00      	add	r7, sp, #0
 800153a:	6078      	str	r0, [r7, #4]
 800153c:	687b      	ldr	r3, [r7, #4]
 800153e:	2b00      	cmp	r3, #0
 8001540:	d101      	bne.n	8001546 <HAL_DMA_Init+0x12>
 8001542:	2301      	movs	r3, #1
 8001544:	e061      	b.n	800160a <HAL_DMA_Init+0xd6>
 8001546:	687b      	ldr	r3, [r7, #4]
 8001548:	681b      	ldr	r3, [r3, #0]
 800154a:	4a32      	ldr	r2, [pc, #200]	@ (8001614 <HAL_DMA_Init+0xe0>)
 800154c:	4694      	mov	ip, r2
 800154e:	4463      	add	r3, ip
 8001550:	2114      	movs	r1, #20
 8001552:	0018      	movs	r0, r3
 8001554:	f7fe fdea 	bl	800012c <__udivsi3>
 8001558:	0003      	movs	r3, r0
 800155a:	009a      	lsls	r2, r3, #2
 800155c:	687b      	ldr	r3, [r7, #4]
 800155e:	645a      	str	r2, [r3, #68]	@ 0x44
 8001560:	687b      	ldr	r3, [r7, #4]
 8001562:	4a2d      	ldr	r2, [pc, #180]	@ (8001618 <HAL_DMA_Init+0xe4>)
 8001564:	641a      	str	r2, [r3, #64]	@ 0x40
 8001566:	687b      	ldr	r3, [r7, #4]
 8001568:	2225      	movs	r2, #37	@ 0x25
 800156a:	2102      	movs	r1, #2
 800156c:	5499      	strb	r1, [r3, r2]
 800156e:	687b      	ldr	r3, [r7, #4]
 8001570:	681b      	ldr	r3, [r3, #0]
 8001572:	681b      	ldr	r3, [r3, #0]
 8001574:	60fb      	str	r3, [r7, #12]
 8001576:	68fb      	ldr	r3, [r7, #12]
 8001578:	4a28      	ldr	r2, [pc, #160]	@ (800161c <HAL_DMA_Init+0xe8>)
 800157a:	4013      	ands	r3, r2
 800157c:	60fb      	str	r3, [r7, #12]
 800157e:	687b      	ldr	r3, [r7, #4]
 8001580:	689a      	ldr	r2, [r3, #8]
 8001582:	687b      	ldr	r3, [r7, #4]
 8001584:	68db      	ldr	r3, [r3, #12]
 8001586:	431a      	orrs	r2, r3
 8001588:	687b      	ldr	r3, [r7, #4]
 800158a:	691b      	ldr	r3, [r3, #16]
 800158c:	431a      	orrs	r2, r3
 800158e:	687b      	ldr	r3, [r7, #4]
 8001590:	695b      	ldr	r3, [r3, #20]
 8001592:	431a      	orrs	r2, r3
 8001594:	687b      	ldr	r3, [r7, #4]
 8001596:	699b      	ldr	r3, [r3, #24]
 8001598:	431a      	orrs	r2, r3
 800159a:	687b      	ldr	r3, [r7, #4]
 800159c:	69db      	ldr	r3, [r3, #28]
 800159e:	431a      	orrs	r2, r3
 80015a0:	687b      	ldr	r3, [r7, #4]
 80015a2:	6a1b      	ldr	r3, [r3, #32]
 80015a4:	4313      	orrs	r3, r2
 80015a6:	68fa      	ldr	r2, [r7, #12]
 80015a8:	4313      	orrs	r3, r2
 80015aa:	60fb      	str	r3, [r7, #12]
 80015ac:	687b      	ldr	r3, [r7, #4]
 80015ae:	681b      	ldr	r3, [r3, #0]
 80015b0:	68fa      	ldr	r2, [r7, #12]
 80015b2:	601a      	str	r2, [r3, #0]
 80015b4:	687b      	ldr	r3, [r7, #4]
 80015b6:	689a      	ldr	r2, [r3, #8]
 80015b8:	2380      	movs	r3, #128	@ 0x80
 80015ba:	01db      	lsls	r3, r3, #7
 80015bc:	429a      	cmp	r2, r3
 80015be:	d018      	beq.n	80015f2 <HAL_DMA_Init+0xbe>
 80015c0:	4b17      	ldr	r3, [pc, #92]	@ (8001620 <HAL_DMA_Init+0xec>)
 80015c2:	681a      	ldr	r2, [r3, #0]
 80015c4:	687b      	ldr	r3, [r7, #4]
 80015c6:	6c5b      	ldr	r3, [r3, #68]	@ 0x44
 80015c8:	211c      	movs	r1, #28
 80015ca:	400b      	ands	r3, r1
 80015cc:	210f      	movs	r1, #15
 80015ce:	4099      	lsls	r1, r3
 80015d0:	000b      	movs	r3, r1
 80015d2:	43d9      	mvns	r1, r3
 80015d4:	4b12      	ldr	r3, [pc, #72]	@ (8001620 <HAL_DMA_Init+0xec>)
 80015d6:	400a      	ands	r2, r1
 80015d8:	601a      	str	r2, [r3, #0]
 80015da:	4b11      	ldr	r3, [pc, #68]	@ (8001620 <HAL_DMA_Init+0xec>)
 80015dc:	6819      	ldr	r1, [r3, #0]
 80015de:	687b      	ldr	r3, [r7, #4]
 80015e0:	685a      	ldr	r2, [r3, #4]
 80015e2:	687b      	ldr	r3, [r7, #4]
 80015e4:	6c5b      	ldr	r3, [r3, #68]	@ 0x44
 80015e6:	201c      	movs	r0, #28
 80015e8:	4003      	ands	r3, r0
 80015ea:	409a      	lsls	r2, r3
 80015ec:	4b0c      	ldr	r3, [pc, #48]	@ (8001620 <HAL_DMA_Init+0xec>)
 80015ee:	430a      	orrs	r2, r1
 80015f0:	601a      	str	r2, [r3, #0]
 80015f2:	687b      	ldr	r3, [r7, #4]
 80015f4:	2200      	movs	r2, #0
 80015f6:	63da      	str	r2, [r3, #60]	@ 0x3c
 80015f8:	687b      	ldr	r3, [r7, #4]
 80015fa:	2225      	movs	r2, #37	@ 0x25
 80015fc:	2101      	movs	r1, #1
 80015fe:	5499      	strb	r1, [r3, r2]
 8001600:	687b      	ldr	r3, [r7, #4]
 8001602:	2224      	movs	r2, #36	@ 0x24
 8001604:	2100      	movs	r1, #0
 8001606:	5499      	strb	r1, [r3, r2]
 8001608:	2300      	movs	r3, #0
 800160a:	0018      	movs	r0, r3
 800160c:	46bd      	mov	sp, r7
 800160e:	b004      	add	sp, #16
 8001610:	bd80      	pop	{r7, pc}
 8001612:	46c0      	nop			@ (mov r8, r8)
 8001614:	bffdfff8 	.word	0xbffdfff8
 8001618:	40020000 	.word	0x40020000
 800161c:	ffff800f 	.word	0xffff800f
 8001620:	400200a8 	.word	0x400200a8

08001624 <HAL_DMA_DeInit>:
 8001624:	b580      	push	{r7, lr}
 8001626:	b082      	sub	sp, #8
 8001628:	af00      	add	r7, sp, #0
 800162a:	6078      	str	r0, [r7, #4]
 800162c:	687b      	ldr	r3, [r7, #4]
 800162e:	2b00      	cmp	r3, #0
 8001630:	d101      	bne.n	8001636 <HAL_DMA_DeInit+0x12>
 8001632:	2301      	movs	r3, #1
 8001634:	e04a      	b.n	80016cc <HAL_DMA_DeInit+0xa8>
 8001636:	687b      	ldr	r3, [r7, #4]
 8001638:	681b      	ldr	r3, [r3, #0]
 800163a:	681a      	ldr	r2, [r3, #0]
 800163c:	687b      	ldr	r3, [r7, #4]
 800163e:	681b      	ldr	r3, [r3, #0]
 8001640:	2101      	movs	r1, #1
 8001642:	438a      	bics	r2, r1
 8001644:	601a      	str	r2, [r3, #0]
 8001646:	687b      	ldr	r3, [r7, #4]
 8001648:	681b      	ldr	r3, [r3, #0]
 800164a:	4a22      	ldr	r2, [pc, #136]	@ (80016d4 <HAL_DMA_DeInit+0xb0>)
 800164c:	4694      	mov	ip, r2
 800164e:	4463      	add	r3, ip
 8001650:	2114      	movs	r1, #20
 8001652:	0018      	movs	r0, r3
 8001654:	f7fe fd6a 	bl	800012c <__udivsi3>
 8001658:	0003      	movs	r3, r0
 800165a:	009a      	lsls	r2, r3, #2
 800165c:	687b      	ldr	r3, [r7, #4]
 800165e:	645a      	str	r2, [r3, #68]	@ 0x44
 8001660:	687b      	ldr	r3, [r7, #4]
 8001662:	4a1d      	ldr	r2, [pc, #116]	@ (80016d8 <HAL_DMA_DeInit+0xb4>)
 8001664:	641a      	str	r2, [r3, #64]	@ 0x40
 8001666:	687b      	ldr	r3, [r7, #4]
 8001668:	681b      	ldr	r3, [r3, #0]
 800166a:	2200      	movs	r2, #0
 800166c:	601a      	str	r2, [r3, #0]
 800166e:	687b      	ldr	r3, [r7, #4]
 8001670:	6c5b      	ldr	r3, [r3, #68]	@ 0x44
 8001672:	221c      	movs	r2, #28
 8001674:	401a      	ands	r2, r3
 8001676:	687b      	ldr	r3, [r7, #4]
 8001678:	6c1b      	ldr	r3, [r3, #64]	@ 0x40
 800167a:	2101      	movs	r1, #1
 800167c:	4091      	lsls	r1, r2
 800167e:	000a      	movs	r2, r1
 8001680:	605a      	str	r2, [r3, #4]
 8001682:	4b16      	ldr	r3, [pc, #88]	@ (80016dc <HAL_DMA_DeInit+0xb8>)
 8001684:	681a      	ldr	r2, [r3, #0]
 8001686:	687b      	ldr	r3, [r7, #4]
 8001688:	6c5b      	ldr	r3, [r3, #68]	@ 0x44
 800168a:	211c      	movs	r1, #28
 800168c:	400b      	ands	r3, r1
 800168e:	210f      	movs	r1, #15
 8001690:	4099      	lsls	r1, r3
 8001692:	000b      	movs	r3, r1
 8001694:	43d9      	mvns	r1, r3
 8001696:	4b11      	ldr	r3, [pc, #68]	@ (80016dc <HAL_DMA_DeInit+0xb8>)
 8001698:	400a      	ands	r2, r1
 800169a:	601a      	str	r2, [r3, #0]
 800169c:	687b      	ldr	r3, [r7, #4]
 800169e:	2200      	movs	r2, #0
 80016a0:	62da      	str	r2, [r3, #44]	@ 0x2c
 80016a2:	687b      	ldr	r3, [r7, #4]
 80016a4:	2200      	movs	r2, #0
 80016a6:	631a      	str	r2, [r3, #48]	@ 0x30
 80016a8:	687b      	ldr	r3, [r7, #4]
 80016aa:	2200      	movs	r2, #0
 80016ac:	635a      	str	r2, [r3, #52]	@ 0x34
 80016ae:	687b      	ldr	r3, [r7, #4]
 80016b0:	2200      	movs	r2, #0
 80016b2:	639a      	str	r2, [r3, #56]	@ 0x38
 80016b4:	687b      	ldr	r3, [r7, #4]
 80016b6:	2200      	movs	r2, #0
 80016b8:	63da      	str	r2, [r3, #60]	@ 0x3c
 80016ba:	687b      	ldr	r3, [r7, #4]
 80016bc:	2225      	movs	r2, #37	@ 0x25
 80016be:	2100      	movs	r1, #0
 80016c0:	5499      	strb	r1, [r3, r2]
 80016c2:	687b      	ldr	r3, [r7, #4]
 80016c4:	2224      	movs	r2, #36	@ 0x24
 80016c6:	2100      	movs	r1, #0
 80016c8:	5499      	strb	r1, [r3, r2]
 80016ca:	2300      	movs	r3, #0
 80016cc:	0018      	movs	r0, r3
 80016ce:	46bd      	mov	sp, r7
 80016d0:	b002      	add	sp, #8
 80016d2:	bd80      	pop	{r7, pc}
 80016d4:	bffdfff8 	.word	0xbffdfff8
 80016d8:	40020000 	.word	0x40020000
 80016dc:	400200a8 	.word	0x400200a8

080016e0 <HAL_DMA_Start_IT>:
 80016e0:	b580      	push	{r7, lr}
 80016e2:	b086      	sub	sp, #24
 80016e4:	af00      	add	r7, sp, #0
 80016e6:	60f8      	str	r0, [r7, #12]
 80016e8:	60b9      	str	r1, [r7, #8]
 80016ea:	607a      	str	r2, [r7, #4]
 80016ec:	603b      	str	r3, [r7, #0]
 80016ee:	2317      	movs	r3, #23
 80016f0:	18fb      	adds	r3, r7, r3
 80016f2:	2200      	movs	r2, #0
 80016f4:	701a      	strb	r2, [r3, #0]
 80016f6:	68fb      	ldr	r3, [r7, #12]
 80016f8:	2224      	movs	r2, #36	@ 0x24
 80016fa:	5c9b      	ldrb	r3, [r3, r2]
 80016fc:	2b01      	cmp	r3, #1
 80016fe:	d101      	bne.n	8001704 <HAL_DMA_Start_IT+0x24>
 8001700:	2302      	movs	r3, #2
 8001702:	e04f      	b.n	80017a4 <HAL_DMA_Start_IT+0xc4>
 8001704:	68fb      	ldr	r3, [r7, #12]
 8001706:	2224      	movs	r2, #36	@ 0x24
 8001708:	2101      	movs	r1, #1
 800170a:	5499      	strb	r1, [r3, r2]
 800170c:	68fb      	ldr	r3, [r7, #12]
 800170e:	2225      	movs	r2, #37	@ 0x25
 8001710:	5c9b      	ldrb	r3, [r3, r2]
 8001712:	b2db      	uxtb	r3, r3
 8001714:	2b01      	cmp	r3, #1
 8001716:	d13a      	bne.n	800178e <HAL_DMA_Start_IT+0xae>
 8001718:	68fb      	ldr	r3, [r7, #12]
 800171a:	2225      	movs	r2, #37	@ 0x25
 800171c:	2102      	movs	r1, #2
 800171e:	5499      	strb	r1, [r3, r2]
 8001720:	68fb      	ldr	r3, [r7, #12]
 8001722:	2200      	movs	r2, #0
 8001724:	63da      	str	r2, [r3, #60]	@ 0x3c
 8001726:	68fb      	ldr	r3, [r7, #12]
 8001728:	681b      	ldr	r3, [r3, #0]
 800172a:	681a      	ldr	r2, [r3, #0]
 800172c:	68fb      	ldr	r3, [r7, #12]
 800172e:	681b      	ldr	r3, [r3, #0]
 8001730:	2101      	movs	r1, #1
 8001732:	438a      	bics	r2, r1
 8001734:	601a      	str	r2, [r3, #0]
 8001736:	683b      	ldr	r3, [r7, #0]
 8001738:	687a      	ldr	r2, [r7, #4]
 800173a:	68b9      	ldr	r1, [r7, #8]
 800173c:	68f8      	ldr	r0, [r7, #12]
 800173e:	f000 f974 	bl	8001a2a <DMA_SetConfig>
 8001742:	68fb      	ldr	r3, [r7, #12]
 8001744:	6b1b      	ldr	r3, [r3, #48]	@ 0x30
 8001746:	2b00      	cmp	r3, #0
 8001748:	d008      	beq.n	800175c <HAL_DMA_Start_IT+0x7c>
 800174a:	68fb      	ldr	r3, [r7, #12]
 800174c:	681b      	ldr	r3, [r3, #0]
 800174e:	681a      	ldr	r2, [r3, #0]
 8001750:	68fb      	ldr	r3, [r7, #12]
 8001752:	681b      	ldr	r3, [r3, #0]
 8001754:	210e      	movs	r1, #14
 8001756:	430a      	orrs	r2, r1
 8001758:	601a      	str	r2, [r3, #0]
 800175a:	e00f      	b.n	800177c <HAL_DMA_Start_IT+0x9c>
 800175c:	68fb      	ldr	r3, [r7, #12]
 800175e:	681b      	ldr	r3, [r3, #0]
 8001760:	681a      	ldr	r2, [r3, #0]
 8001762:	68fb      	ldr	r3, [r7, #12]
 8001764:	681b      	ldr	r3, [r3, #0]
 8001766:	2104      	movs	r1, #4
 8001768:	438a      	bics	r2, r1
 800176a:	601a      	str	r2, [r3, #0]
 800176c:	68fb      	ldr	r3, [r7, #12]
 800176e:	681b      	ldr	r3, [r3, #0]
 8001770:	681a      	ldr	r2, [r3, #0]
 8001772:	68fb      	ldr	r3, [r7, #12]
 8001774:	681b      	ldr	r3, [r3, #0]
 8001776:	210a      	movs	r1, #10
 8001778:	430a      	orrs	r2, r1
 800177a:	601a      	str	r2, [r3, #0]
 800177c:	68fb      	ldr	r3, [r7, #12]
 800177e:	681b      	ldr	r3, [r3, #0]
 8001780:	681a      	ldr	r2, [r3, #0]
 8001782:	68fb      	ldr	r3, [r7, #12]
 8001784:	681b      	ldr	r3, [r3, #0]
 8001786:	2101      	movs	r1, #1
 8001788:	430a      	orrs	r2, r1
 800178a:	601a      	str	r2, [r3, #0]
 800178c:	e007      	b.n	800179e <HAL_DMA_Start_IT+0xbe>
 800178e:	68fb      	ldr	r3, [r7, #12]
 8001790:	2224      	movs	r2, #36	@ 0x24
 8001792:	2100      	movs	r1, #0
 8001794:	5499      	strb	r1, [r3, r2]
 8001796:	2317      	movs	r3, #23
 8001798:	18fb      	adds	r3, r7, r3
 800179a:	2202      	movs	r2, #2
 800179c:	701a      	strb	r2, [r3, #0]
 800179e:	2317      	movs	r3, #23
 80017a0:	18fb      	adds	r3, r7, r3
 80017a2:	781b      	ldrb	r3, [r3, #0]
 80017a4:	0018      	movs	r0, r3
 80017a6:	46bd      	mov	sp, r7
 80017a8:	b006      	add	sp, #24
 80017aa:	bd80      	pop	{r7, pc}

080017ac <HAL_DMA_Abort>:
 80017ac:	b580      	push	{r7, lr}
 80017ae:	b084      	sub	sp, #16
 80017b0:	af00      	add	r7, sp, #0
 80017b2:	6078      	str	r0, [r7, #4]
 80017b4:	230f      	movs	r3, #15
 80017b6:	18fb      	adds	r3, r7, r3
 80017b8:	2200      	movs	r2, #0
 80017ba:	701a      	strb	r2, [r3, #0]
 80017bc:	687b      	ldr	r3, [r7, #4]
 80017be:	2225      	movs	r2, #37	@ 0x25
 80017c0:	5c9b      	ldrb	r3, [r3, r2]
 80017c2:	b2db      	uxtb	r3, r3
 80017c4:	2b02      	cmp	r3, #2
 80017c6:	d008      	beq.n	80017da <HAL_DMA_Abort+0x2e>
 80017c8:	687b      	ldr	r3, [r7, #4]
 80017ca:	2204      	movs	r2, #4
 80017cc:	63da      	str	r2, [r3, #60]	@ 0x3c
 80017ce:	687b      	ldr	r3, [r7, #4]
 80017d0:	2224      	movs	r2, #36	@ 0x24
 80017d2:	2100      	movs	r1, #0
 80017d4:	5499      	strb	r1, [r3, r2]
 80017d6:	2301      	movs	r3, #1
 80017d8:	e024      	b.n	8001824 <HAL_DMA_Abort+0x78>
 80017da:	687b      	ldr	r3, [r7, #4]
 80017dc:	681b      	ldr	r3, [r3, #0]
 80017de:	681a      	ldr	r2, [r3, #0]
 80017e0:	687b      	ldr	r3, [r7, #4]
 80017e2:	681b      	ldr	r3, [r3, #0]
 80017e4:	210e      	movs	r1, #14
 80017e6:	438a      	bics	r2, r1
 80017e8:	601a      	str	r2, [r3, #0]
 80017ea:	687b      	ldr	r3, [r7, #4]
 80017ec:	681b      	ldr	r3, [r3, #0]
 80017ee:	681a      	ldr	r2, [r3, #0]
 80017f0:	687b      	ldr	r3, [r7, #4]
 80017f2:	681b      	ldr	r3, [r3, #0]
 80017f4:	2101      	movs	r1, #1
 80017f6:	438a      	bics	r2, r1
 80017f8:	601a      	str	r2, [r3, #0]
 80017fa:	687b      	ldr	r3, [r7, #4]
 80017fc:	6c5b      	ldr	r3, [r3, #68]	@ 0x44
 80017fe:	221c      	movs	r2, #28
 8001800:	401a      	ands	r2, r3
 8001802:	687b      	ldr	r3, [r7, #4]
 8001804:	6c1b      	ldr	r3, [r3, #64]	@ 0x40
 8001806:	2101      	movs	r1, #1
 8001808:	4091      	lsls	r1, r2
 800180a:	000a      	movs	r2, r1
 800180c:	605a      	str	r2, [r3, #4]
 800180e:	687b      	ldr	r3, [r7, #4]
 8001810:	2225      	movs	r2, #37	@ 0x25
 8001812:	2101      	movs	r1, #1
 8001814:	5499      	strb	r1, [r3, r2]
 8001816:	687b      	ldr	r3, [r7, #4]
 8001818:	2224      	movs	r2, #36	@ 0x24
 800181a:	2100      	movs	r1, #0
 800181c:	5499      	strb	r1, [r3, r2]
 800181e:	230f      	movs	r3, #15
 8001820:	18fb      	adds	r3, r7, r3
 8001822:	781b      	ldrb	r3, [r3, #0]
 8001824:	0018      	movs	r0, r3
 8001826:	46bd      	mov	sp, r7
 8001828:	b004      	add	sp, #16
 800182a:	bd80      	pop	{r7, pc}

0800182c <HAL_DMA_Abort_IT>:
 800182c:	b580      	push	{r7, lr}
 800182e:	b084      	sub	sp, #16
 8001830:	af00      	add	r7, sp, #0
 8001832:	6078      	str	r0, [r7, #4]
 8001834:	210f      	movs	r1, #15
 8001836:	187b      	adds	r3, r7, r1
 8001838:	2200      	movs	r2, #0
 800183a:	701a      	strb	r2, [r3, #0]
 800183c:	687b      	ldr	r3, [r7, #4]
 800183e:	2225      	movs	r2, #37	@ 0x25
 8001840:	5c9b      	ldrb	r3, [r3, r2]
 8001842:	b2db      	uxtb	r3, r3
 8001844:	2b02      	cmp	r3, #2
 8001846:	d006      	beq.n	8001856 <HAL_DMA_Abort_IT+0x2a>
 8001848:	687b      	ldr	r3, [r7, #4]
 800184a:	2204      	movs	r2, #4
 800184c:	63da      	str	r2, [r3, #60]	@ 0x3c
 800184e:	187b      	adds	r3, r7, r1
 8001850:	2201      	movs	r2, #1
 8001852:	701a      	strb	r2, [r3, #0]
 8001854:	e02a      	b.n	80018ac <HAL_DMA_Abort_IT+0x80>
 8001856:	687b      	ldr	r3, [r7, #4]
 8001858:	681b      	ldr	r3, [r3, #0]
 800185a:	681a      	ldr	r2, [r3, #0]
 800185c:	687b      	ldr	r3, [r7, #4]
 800185e:	681b      	ldr	r3, [r3, #0]
 8001860:	210e      	movs	r1, #14
 8001862:	438a      	bics	r2, r1
 8001864:	601a      	str	r2, [r3, #0]
 8001866:	687b      	ldr	r3, [r7, #4]
 8001868:	681b      	ldr	r3, [r3, #0]
 800186a:	681a      	ldr	r2, [r3, #0]
 800186c:	687b      	ldr	r3, [r7, #4]
 800186e:	681b      	ldr	r3, [r3, #0]
 8001870:	2101      	movs	r1, #1
 8001872:	438a      	bics	r2, r1
 8001874:	601a      	str	r2, [r3, #0]
 8001876:	687b      	ldr	r3, [r7, #4]
 8001878:	6c5b      	ldr	r3, [r3, #68]	@ 0x44
 800187a:	221c      	movs	r2, #28
 800187c:	401a      	ands	r2, r3
 800187e:	687b      	ldr	r3, [r7, #4]
 8001880:	6c1b      	ldr	r3, [r3, #64]	@ 0x40
 8001882:	2101      	movs	r1, #1
 8001884:	4091      	lsls	r1, r2
 8001886:	000a      	movs	r2, r1
 8001888:	605a      	str	r2, [r3, #4]
 800188a:	687b      	ldr	r3, [r7, #4]
 800188c:	2225      	movs	r2, #37	@ 0x25
 800188e:	2101      	movs	r1, #1
 8001890:	5499      	strb	r1, [r3, r2]
 8001892:	687b      	ldr	r3, [r7, #4]
 8001894:	2224      	movs	r2, #36	@ 0x24
 8001896:	2100      	movs	r1, #0
 8001898:	5499      	strb	r1, [r3, r2]
 800189a:	687b      	ldr	r3, [r7, #4]
 800189c:	6b9b      	ldr	r3, [r3, #56]	@ 0x38
 800189e:	2b00      	cmp	r3, #0
 80018a0:	d004      	beq.n	80018ac <HAL_DMA_Abort_IT+0x80>
 80018a2:	687b      	ldr	r3, [r7, #4]
 80018a4:	6b9b      	ldr	r3, [r3, #56]	@ 0x38
 80018a6:	687a      	ldr	r2, [r7, #4]
 80018a8:	0010      	movs	r0, r2
 80018aa:	4798      	blx	r3
 80018ac:	230f      	movs	r3, #15
 80018ae:	18fb      	adds	r3, r7, r3
 80018b0:	781b      	ldrb	r3, [r3, #0]
 80018b2:	0018      	movs	r0, r3
 80018b4:	46bd      	mov	sp, r7
 80018b6:	b004      	add	sp, #16
 80018b8:	bd80      	pop	{r7, pc}

080018ba <HAL_DMA_IRQHandler>:
 80018ba:	b580      	push	{r7, lr}
 80018bc:	b084      	sub	sp, #16
 80018be:	af00      	add	r7, sp, #0
 80018c0:	6078      	str	r0, [r7, #4]
 80018c2:	687b      	ldr	r3, [r7, #4]
 80018c4:	6c1b      	ldr	r3, [r3, #64]	@ 0x40
 80018c6:	681b      	ldr	r3, [r3, #0]
 80018c8:	60fb      	str	r3, [r7, #12]
 80018ca:	687b      	ldr	r3, [r7, #4]
 80018cc:	681b      	ldr	r3, [r3, #0]
 80018ce:	681b      	ldr	r3, [r3, #0]
 80018d0:	60bb      	str	r3, [r7, #8]
 80018d2:	687b      	ldr	r3, [r7, #4]
 80018d4:	6c5b      	ldr	r3, [r3, #68]	@ 0x44
 80018d6:	221c      	movs	r2, #28
 80018d8:	4013      	ands	r3, r2
 80018da:	2204      	movs	r2, #4
 80018dc:	409a      	lsls	r2, r3
 80018de:	0013      	movs	r3, r2
 80018e0:	68fa      	ldr	r2, [r7, #12]
 80018e2:	4013      	ands	r3, r2
 80018e4:	d026      	beq.n	8001934 <HAL_DMA_IRQHandler+0x7a>
 80018e6:	68bb      	ldr	r3, [r7, #8]
 80018e8:	2204      	movs	r2, #4
 80018ea:	4013      	ands	r3, r2
 80018ec:	d022      	beq.n	8001934 <HAL_DMA_IRQHandler+0x7a>
 80018ee:	687b      	ldr	r3, [r7, #4]
 80018f0:	681b      	ldr	r3, [r3, #0]
 80018f2:	681b      	ldr	r3, [r3, #0]
 80018f4:	2220      	movs	r2, #32
 80018f6:	4013      	ands	r3, r2
 80018f8:	d107      	bne.n	800190a <HAL_DMA_IRQHandler+0x50>
 80018fa:	687b      	ldr	r3, [r7, #4]
 80018fc:	681b      	ldr	r3, [r3, #0]
 80018fe:	681a      	ldr	r2, [r3, #0]
 8001900:	687b      	ldr	r3, [r7, #4]
 8001902:	681b      	ldr	r3, [r3, #0]
 8001904:	2104      	movs	r1, #4
 8001906:	438a      	bics	r2, r1
 8001908:	601a      	str	r2, [r3, #0]
 800190a:	687b      	ldr	r3, [r7, #4]
 800190c:	6c5b      	ldr	r3, [r3, #68]	@ 0x44
 800190e:	221c      	movs	r2, #28
 8001910:	401a      	ands	r2, r3
 8001912:	687b      	ldr	r3, [r7, #4]
 8001914:	6c1b      	ldr	r3, [r3, #64]	@ 0x40
 8001916:	2104      	movs	r1, #4
 8001918:	4091      	lsls	r1, r2
 800191a:	000a      	movs	r2, r1
 800191c:	605a      	str	r2, [r3, #4]
 800191e:	687b      	ldr	r3, [r7, #4]
 8001920:	6b1b      	ldr	r3, [r3, #48]	@ 0x30
 8001922:	2b00      	cmp	r3, #0
 8001924:	d100      	bne.n	8001928 <HAL_DMA_IRQHandler+0x6e>
 8001926:	e071      	b.n	8001a0c <HAL_DMA_IRQHandler+0x152>
 8001928:	687b      	ldr	r3, [r7, #4]
 800192a:	6b1b      	ldr	r3, [r3, #48]	@ 0x30
 800192c:	687a      	ldr	r2, [r7, #4]
 800192e:	0010      	movs	r0, r2
 8001930:	4798      	blx	r3
 8001932:	e06b      	b.n	8001a0c <HAL_DMA_IRQHandler+0x152>
 8001934:	687b      	ldr	r3, [r7, #4]
 8001936:	6c5b      	ldr	r3, [r3, #68]	@ 0x44
 8001938:	221c      	movs	r2, #28
 800193a:	4013      	ands	r3, r2
 800193c:	2202      	movs	r2, #2
 800193e:	409a      	lsls	r2, r3
 8001940:	0013      	movs	r3, r2
 8001942:	68fa      	ldr	r2, [r7, #12]
 8001944:	4013      	ands	r3, r2
 8001946:	d02d      	beq.n	80019a4 <HAL_DMA_IRQHandler+0xea>
 8001948:	68bb      	ldr	r3, [r7, #8]
 800194a:	2202      	movs	r2, #2
 800194c:	4013      	ands	r3, r2
 800194e:	d029      	beq.n	80019a4 <HAL_DMA_IRQHandler+0xea>
 8001950:	687b      	ldr	r3, [r7, #4]
 8001952:	681b      	ldr	r3, [r3, #0]
 8001954:	681b      	ldr	r3, [r3, #0]
 8001956:	2220      	movs	r2, #32
 8001958:	4013      	ands	r3, r2
 800195a:	d10b      	bne.n	8001974 <HAL_DMA_IRQHandler+0xba>
 800195c:	687b      	ldr	r3, [r7, #4]
 800195e:	681b      	ldr	r3, [r3, #0]
 8001960:	681a      	ldr	r2, [r3, #0]
 8001962:	687b      	ldr	r3, [r7, #4]
 8001964:	681b      	ldr	r3, [r3, #0]
 8001966:	210a      	movs	r1, #10
 8001968:	438a      	bics	r2, r1
 800196a:	601a      	str	r2, [r3, #0]
 800196c:	687b      	ldr	r3, [r7, #4]
 800196e:	2225      	movs	r2, #37	@ 0x25
 8001970:	2101      	movs	r1, #1
 8001972:	5499      	strb	r1, [r3, r2]
 8001974:	687b      	ldr	r3, [r7, #4]
 8001976:	6c5b      	ldr	r3, [r3, #68]	@ 0x44
 8001978:	221c      	movs	r2, #28
 800197a:	401a      	ands	r2, r3
 800197c:	687b      	ldr	r3, [r7, #4]
 800197e:	6c1b      	ldr	r3, [r3, #64]	@ 0x40
 8001980:	2102      	movs	r1, #2
 8001982:	4091      	lsls	r1, r2
 8001984:	000a      	movs	r2, r1
 8001986:	605a      	str	r2, [r3, #4]
 8001988:	687b      	ldr	r3, [r7, #4]
 800198a:	2224      	movs	r2, #36	@ 0x24
 800198c:	2100      	movs	r1, #0
 800198e:	5499      	strb	r1, [r3, r2]
 8001990:	687b      	ldr	r3, [r7, #4]
 8001992:	6adb      	ldr	r3, [r3, #44]	@ 0x2c
 8001994:	2b00      	cmp	r3, #0
 8001996:	d039      	beq.n	8001a0c <HAL_DMA_IRQHandler+0x152>
 8001998:	687b      	ldr	r3, [r7, #4]
 800199a:	6adb      	ldr	r3, [r3, #44]	@ 0x2c
 800199c:	687a      	ldr	r2, [r7, #4]
 800199e:	0010      	movs	r0, r2
 80019a0:	4798      	blx	r3
 80019a2:	e033      	b.n	8001a0c <HAL_DMA_IRQHandler+0x152>
 80019a4:	687b      	ldr	r3, [r7, #4]
 80019a6:	6c5b      	ldr	r3, [r3, #68]	@ 0x44
 80019a8:	221c      	movs	r2, #28
 80019aa:	4013      	ands	r3, r2
 80019ac:	2208      	movs	r2, #8
 80019ae:	409a      	lsls	r2, r3
 80019b0:	0013      	movs	r3, r2
 80019b2:	68fa      	ldr	r2, [r7, #12]
 80019b4:	4013      	ands	r3, r2
 80019b6:	d02a      	beq.n	8001a0e <HAL_DMA_IRQHandler+0x154>
 80019b8:	68bb      	ldr	r3, [r7, #8]
 80019ba:	2208      	movs	r2, #8
 80019bc:	4013      	ands	r3, r2
 80019be:	d026      	beq.n	8001a0e <HAL_DMA_IRQHandler+0x154>
 80019c0:	687b      	ldr	r3, [r7, #4]
 80019c2:	681b      	ldr	r3, [r3, #0]
 80019c4:	681a      	ldr	r2, [r3, #0]
 80019c6:	687b      	ldr	r3, [r7, #4]
 80019c8:	681b      	ldr	r3, [r3, #0]
 80019ca:	210e      	movs	r1, #14
 80019cc:	438a      	bics	r2, r1
 80019ce:	601a      	str	r2, [r3, #0]
 80019d0:	687b      	ldr	r3, [r7, #4]
 80019d2:	6c5b      	ldr	r3, [r3, #68]	@ 0x44
 80019d4:	221c      	movs	r2, #28
 80019d6:	401a      	ands	r2, r3
 80019d8:	687b      	ldr	r3, [r7, #4]
 80019da:	6c1b      	ldr	r3, [r3, #64]	@ 0x40
 80019dc:	2101      	movs	r1, #1
 80019de:	4091      	lsls	r1, r2
 80019e0:	000a      	movs	r2, r1
 80019e2:	605a      	str	r2, [r3, #4]
 80019e4:	687b      	ldr	r3, [r7, #4]
 80019e6:	2201      	movs	r2, #1
 80019e8:	63da      	str	r2, [r3, #60]	@ 0x3c
 80019ea:	687b      	ldr	r3, [r7, #4]
 80019ec:	2225      	movs	r2, #37	@ 0x25
 80019ee:	2101      	movs	r1, #1
 80019f0:	5499      	strb	r1, [r3, r2]
 80019f2:	687b      	ldr	r3, [r7, #4]
 80019f4:	2224      	movs	r2, #36	@ 0x24
 80019f6:	2100      	movs	r1, #0
 80019f8:	5499      	strb	r1, [r3, r2]
 80019fa:	687b      	ldr	r3, [r7, #4]
 80019fc:	6b5b      	ldr	r3, [r3, #52]	@ 0x34
 80019fe:	2b00      	cmp	r3, #0
 8001a00:	d005      	beq.n	8001a0e <HAL_DMA_IRQHandler+0x154>
 8001a02:	687b      	ldr	r3, [r7, #4]
 8001a04:	6b5b      	ldr	r3, [r3, #52]	@ 0x34
 8001a06:	687a      	ldr	r2, [r7, #4]
 8001a08:	0010      	movs	r0, r2
 8001a0a:	4798      	blx	r3
 8001a0c:	46c0      	nop			@ (mov r8, r8)
 8001a0e:	46c0      	nop			@ (mov r8, r8)
 8001a10:	46bd      	mov	sp, r7
 8001a12:	b004      	add	sp, #16
 8001a14:	bd80      	pop	{r7, pc}

08001a16 <HAL_DMA_GetError>:
 8001a16:	b580      	push	{r7, lr}
 8001a18:	b082      	sub	sp, #8
 8001a1a:	af00      	add	r7, sp, #0
 8001a1c:	6078      	str	r0, [r7, #4]
 8001a1e:	687b      	ldr	r3, [r7, #4]
 8001a20:	6bdb      	ldr	r3, [r3, #60]	@ 0x3c
 8001a22:	0018      	movs	r0, r3
 8001a24:	46bd      	mov	sp, r7
 8001a26:	b002      	add	sp, #8
 8001a28:	bd80      	pop	{r7, pc}

08001a2a <DMA_SetConfig>:
 8001a2a:	b580      	push	{r7, lr}
 8001a2c:	b084      	sub	sp, #16
 8001a2e:	af00      	add	r7, sp, #0
 8001a30:	60f8      	str	r0, [r7, #12]
 8001a32:	60b9      	str	r1, [r7, #8]
 8001a34:	607a      	str	r2, [r7, #4]
 8001a36:	603b      	str	r3, [r7, #0]
 8001a38:	68fb      	ldr	r3, [r7, #12]
 8001a3a:	6c5b      	ldr	r3, [r3, #68]	@ 0x44
 8001a3c:	221c      	movs	r2, #28
 8001a3e:	401a      	ands	r2, r3
 8001a40:	68fb      	ldr	r3, [r7, #12]
 8001a42:	6c1b      	ldr	r3, [r3, #64]	@ 0x40
 8001a44:	2101      	movs	r1, #1
 8001a46:	4091      	lsls	r1, r2
 8001a48:	000a      	movs	r2, r1
 8001a4a:	605a      	str	r2, [r3, #4]
 8001a4c:	68fb      	ldr	r3, [r7, #12]
 8001a4e:	681b      	ldr	r3, [r3, #0]
 8001a50:	683a      	ldr	r2, [r7, #0]
 8001a52:	605a      	str	r2, [r3, #4]
 8001a54:	68fb      	ldr	r3, [r7, #12]
 8001a56:	689b      	ldr	r3, [r3, #8]
 8001a58:	2b10      	cmp	r3, #16
 8001a5a:	d108      	bne.n	8001a6e <DMA_SetConfig+0x44>
 8001a5c:	68fb      	ldr	r3, [r7, #12]
 8001a5e:	681b      	ldr	r3, [r3, #0]
 8001a60:	687a      	ldr	r2, [r7, #4]
 8001a62:	609a      	str	r2, [r3, #8]
 8001a64:	68fb      	ldr	r3, [r7, #12]
 8001a66:	681b      	ldr	r3, [r3, #0]
 8001a68:	68ba      	ldr	r2, [r7, #8]
 8001a6a:	60da      	str	r2, [r3, #12]
 8001a6c:	e007      	b.n	8001a7e <DMA_SetConfig+0x54>
 8001a6e:	68fb      	ldr	r3, [r7, #12]
 8001a70:	681b      	ldr	r3, [r3, #0]
 8001a72:	68ba      	ldr	r2, [r7, #8]
 8001a74:	609a      	str	r2, [r3, #8]
 8001a76:	68fb      	ldr	r3, [r7, #12]
 8001a78:	681b      	ldr	r3, [r3, #0]
 8001a7a:	687a      	ldr	r2, [r7, #4]
 8001a7c:	60da      	str	r2, [r3, #12]
 8001a7e:	46c0      	nop			@ (mov r8, r8)
 8001a80:	46bd      	mov	sp, r7
 8001a82:	b004      	add	sp, #16
 8001a84:	bd80      	pop	{r7, pc}
	...

08001a88 <HAL_GPIO_Init>:
 8001a88:	b580      	push	{r7, lr}
 8001a8a:	b086      	sub	sp, #24
 8001a8c:	af00      	add	r7, sp, #0
 8001a8e:	6078      	str	r0, [r7, #4]
 8001a90:	6039      	str	r1, [r7, #0]
 8001a92:	2300      	movs	r3, #0
 8001a94:	617b      	str	r3, [r7, #20]
 8001a96:	2300      	movs	r3, #0
 8001a98:	60fb      	str	r3, [r7, #12]
 8001a9a:	2300      	movs	r3, #0
 8001a9c:	613b      	str	r3, [r7, #16]
 8001a9e:	e155      	b.n	8001d4c <HAL_GPIO_Init+0x2c4>
 8001aa0:	683b      	ldr	r3, [r7, #0]
 8001aa2:	681b      	ldr	r3, [r3, #0]
 8001aa4:	2101      	movs	r1, #1
 8001aa6:	697a      	ldr	r2, [r7, #20]
 8001aa8:	4091      	lsls	r1, r2
 8001aaa:	000a      	movs	r2, r1
 8001aac:	4013      	ands	r3, r2
 8001aae:	60fb      	str	r3, [r7, #12]
 8001ab0:	68fb      	ldr	r3, [r7, #12]
 8001ab2:	2b00      	cmp	r3, #0
 8001ab4:	d100      	bne.n	8001ab8 <HAL_GPIO_Init+0x30>
 8001ab6:	e146      	b.n	8001d46 <HAL_GPIO_Init+0x2be>
 8001ab8:	683b      	ldr	r3, [r7, #0]
 8001aba:	685b      	ldr	r3, [r3, #4]
 8001abc:	2203      	movs	r2, #3
 8001abe:	4013      	ands	r3, r2
 8001ac0:	2b01      	cmp	r3, #1
 8001ac2:	d005      	beq.n	8001ad0 <HAL_GPIO_Init+0x48>
 8001ac4:	683b      	ldr	r3, [r7, #0]
 8001ac6:	685b      	ldr	r3, [r3, #4]
 8001ac8:	2203      	movs	r2, #3
 8001aca:	4013      	ands	r3, r2
 8001acc:	2b02      	cmp	r3, #2
 8001ace:	d130      	bne.n	8001b32 <HAL_GPIO_Init+0xaa>
 8001ad0:	687b      	ldr	r3, [r7, #4]
 8001ad2:	689b      	ldr	r3, [r3, #8]
 8001ad4:	613b      	str	r3, [r7, #16]
 8001ad6:	697b      	ldr	r3, [r7, #20]
 8001ad8:	005b      	lsls	r3, r3, #1
 8001ada:	2203      	movs	r2, #3
 8001adc:	409a      	lsls	r2, r3
 8001ade:	0013      	movs	r3, r2
 8001ae0:	43da      	mvns	r2, r3
 8001ae2:	693b      	ldr	r3, [r7, #16]
 8001ae4:	4013      	ands	r3, r2
 8001ae6:	613b      	str	r3, [r7, #16]
 8001ae8:	683b      	ldr	r3, [r7, #0]
 8001aea:	68da      	ldr	r2, [r3, #12]
 8001aec:	697b      	ldr	r3, [r7, #20]
 8001aee:	005b      	lsls	r3, r3, #1
 8001af0:	409a      	lsls	r2, r3
 8001af2:	0013      	movs	r3, r2
 8001af4:	693a      	ldr	r2, [r7, #16]
 8001af6:	4313      	orrs	r3, r2
 8001af8:	613b      	str	r3, [r7, #16]
 8001afa:	687b      	ldr	r3, [r7, #4]
 8001afc:	693a      	ldr	r2, [r7, #16]
 8001afe:	609a      	str	r2, [r3, #8]
 8001b00:	687b      	ldr	r3, [r7, #4]
 8001b02:	685b      	ldr	r3, [r3, #4]
 8001b04:	613b      	str	r3, [r7, #16]
 8001b06:	2201      	movs	r2, #1
 8001b08:	697b      	ldr	r3, [r7, #20]
 8001b0a:	409a      	lsls	r2, r3
 8001b0c:	0013      	movs	r3, r2
 8001b0e:	43da      	mvns	r2, r3
 8001b10:	693b      	ldr	r3, [r7, #16]
 8001b12:	4013      	ands	r3, r2
 8001b14:	613b      	str	r3, [r7, #16]
 8001b16:	683b      	ldr	r3, [r7, #0]
 8001b18:	685b      	ldr	r3, [r3, #4]
 8001b1a:	091b      	lsrs	r3, r3, #4
 8001b1c:	2201      	movs	r2, #1
 8001b1e:	401a      	ands	r2, r3
 8001b20:	697b      	ldr	r3, [r7, #20]
 8001b22:	409a      	lsls	r2, r3
 8001b24:	0013      	movs	r3, r2
 8001b26:	693a      	ldr	r2, [r7, #16]
 8001b28:	4313      	orrs	r3, r2
 8001b2a:	613b      	str	r3, [r7, #16]
 8001b2c:	687b      	ldr	r3, [r7, #4]
 8001b2e:	693a      	ldr	r2, [r7, #16]
 8001b30:	605a      	str	r2, [r3, #4]
 8001b32:	683b      	ldr	r3, [r7, #0]
 8001b34:	685b      	ldr	r3, [r3, #4]
 8001b36:	2203      	movs	r2, #3
 8001b38:	4013      	ands	r3, r2
 8001b3a:	2b03      	cmp	r3, #3
 8001b3c:	d017      	beq.n	8001b6e <HAL_GPIO_Init+0xe6>
 8001b3e:	687b      	ldr	r3, [r7, #4]
 8001b40:	68db      	ldr	r3, [r3, #12]
 8001b42:	613b      	str	r3, [r7, #16]
 8001b44:	697b      	ldr	r3, [r7, #20]
 8001b46:	005b      	lsls	r3, r3, #1
 8001b48:	2203      	movs	r2, #3
 8001b4a:	409a      	lsls	r2, r3
 8001b4c:	0013      	movs	r3, r2
 8001b4e:	43da      	mvns	r2, r3
 8001b50:	693b      	ldr	r3, [r7, #16]
 8001b52:	4013      	ands	r3, r2
 8001b54:	613b      	str	r3, [r7, #16]
 8001b56:	683b      	ldr	r3, [r7, #0]
 8001b58:	689a      	ldr	r2, [r3, #8]
 8001b5a:	697b      	ldr	r3, [r7, #20]
 8001b5c:	005b      	lsls	r3, r3, #1
 8001b5e:	409a      	lsls	r2, r3
 8001b60:	0013      	movs	r3, r2
 8001b62:	693a      	ldr	r2, [r7, #16]
 8001b64:	4313      	orrs	r3, r2
 8001b66:	613b      	str	r3, [r7, #16]
 8001b68:	687b      	ldr	r3, [r7, #4]
 8001b6a:	693a      	ldr	r2, [r7, #16]
 8001b6c:	60da      	str	r2, [r3, #12]
 8001b6e:	683b      	ldr	r3, [r7, #0]
 8001b70:	685b      	ldr	r3, [r3, #4]
 8001b72:	2203      	movs	r2, #3
 8001b74:	4013      	ands	r3, r2
 8001b76:	2b02      	cmp	r3, #2
 8001b78:	d123      	bne.n	8001bc2 <HAL_GPIO_Init+0x13a>
 8001b7a:	697b      	ldr	r3, [r7, #20]
 8001b7c:	08da      	lsrs	r2, r3, #3
 8001b7e:	687b      	ldr	r3, [r7, #4]
 8001b80:	3208      	adds	r2, #8
 8001b82:	0092      	lsls	r2, r2, #2
 8001b84:	58d3      	ldr	r3, [r2, r3]
 8001b86:	613b      	str	r3, [r7, #16]
 8001b88:	697b      	ldr	r3, [r7, #20]
 8001b8a:	2207      	movs	r2, #7
 8001b8c:	4013      	ands	r3, r2
 8001b8e:	009b      	lsls	r3, r3, #2
 8001b90:	220f      	movs	r2, #15
 8001b92:	409a      	lsls	r2, r3
 8001b94:	0013      	movs	r3, r2
 8001b96:	43da      	mvns	r2, r3
 8001b98:	693b      	ldr	r3, [r7, #16]
 8001b9a:	4013      	ands	r3, r2
 8001b9c:	613b      	str	r3, [r7, #16]
 8001b9e:	683b      	ldr	r3, [r7, #0]
 8001ba0:	691a      	ldr	r2, [r3, #16]
 8001ba2:	697b      	ldr	r3, [r7, #20]
 8001ba4:	2107      	movs	r1, #7
 8001ba6:	400b      	ands	r3, r1
 8001ba8:	009b      	lsls	r3, r3, #2
 8001baa:	409a      	lsls	r2, r3
 8001bac:	0013      	movs	r3, r2
 8001bae:	693a      	ldr	r2, [r7, #16]
 8001bb0:	4313      	orrs	r3, r2
 8001bb2:	613b      	str	r3, [r7, #16]
 8001bb4:	697b      	ldr	r3, [r7, #20]
 8001bb6:	08da      	lsrs	r2, r3, #3
 8001bb8:	687b      	ldr	r3, [r7, #4]
 8001bba:	3208      	adds	r2, #8
 8001bbc:	0092      	lsls	r2, r2, #2
 8001bbe:	6939      	ldr	r1, [r7, #16]
 8001bc0:	50d1      	str	r1, [r2, r3]
 8001bc2:	687b      	ldr	r3, [r7, #4]
 8001bc4:	681b      	ldr	r3, [r3, #0]
 8001bc6:	613b      	str	r3, [r7, #16]
 8001bc8:	697b      	ldr	r3, [r7, #20]
 8001bca:	005b      	lsls	r3, r3, #1
 8001bcc:	2203      	movs	r2, #3
 8001bce:	409a      	lsls	r2, r3
 8001bd0:	0013      	movs	r3, r2
 8001bd2:	43da      	mvns	r2, r3
 8001bd4:	693b      	ldr	r3, [r7, #16]
 8001bd6:	4013      	ands	r3, r2
 8001bd8:	613b      	str	r3, [r7, #16]
 8001bda:	683b      	ldr	r3, [r7, #0]
 8001bdc:	685b      	ldr	r3, [r3, #4]
 8001bde:	2203      	movs	r2, #3
 8001be0:	401a      	ands	r2, r3
 8001be2:	697b      	ldr	r3, [r7, #20]
 8001be4:	005b      	lsls	r3, r3, #1
 8001be6:	409a      	lsls	r2, r3
 8001be8:	0013      	movs	r3, r2
 8001bea:	693a      	ldr	r2, [r7, #16]
 8001bec:	4313      	orrs	r3, r2
 8001bee:	613b      	str	r3, [r7, #16]
 8001bf0:	687b      	ldr	r3, [r7, #4]
 8001bf2:	693a      	ldr	r2, [r7, #16]
 8001bf4:	601a      	str	r2, [r3, #0]
 8001bf6:	683b      	ldr	r3, [r7, #0]
 8001bf8:	685a      	ldr	r2, [r3, #4]
 8001bfa:	23c0      	movs	r3, #192	@ 0xc0
 8001bfc:	029b      	lsls	r3, r3, #10
 8001bfe:	4013      	ands	r3, r2
 8001c00:	d100      	bne.n	8001c04 <HAL_GPIO_Init+0x17c>
 8001c02:	e0a0      	b.n	8001d46 <HAL_GPIO_Init+0x2be>
 8001c04:	4b57      	ldr	r3, [pc, #348]	@ (8001d64 <HAL_GPIO_Init+0x2dc>)
 8001c06:	6b5a      	ldr	r2, [r3, #52]	@ 0x34
 8001c08:	4b56      	ldr	r3, [pc, #344]	@ (8001d64 <HAL_GPIO_Init+0x2dc>)
 8001c0a:	2101      	movs	r1, #1
 8001c0c:	430a      	orrs	r2, r1
 8001c0e:	635a      	str	r2, [r3, #52]	@ 0x34
 8001c10:	4a55      	ldr	r2, [pc, #340]	@ (8001d68 <HAL_GPIO_Init+0x2e0>)
 8001c12:	697b      	ldr	r3, [r7, #20]
 8001c14:	089b      	lsrs	r3, r3, #2
 8001c16:	3302      	adds	r3, #2
 8001c18:	009b      	lsls	r3, r3, #2
 8001c1a:	589b      	ldr	r3, [r3, r2]
 8001c1c:	613b      	str	r3, [r7, #16]
 8001c1e:	697b      	ldr	r3, [r7, #20]
 8001c20:	2203      	movs	r2, #3
 8001c22:	4013      	ands	r3, r2
 8001c24:	009b      	lsls	r3, r3, #2
 8001c26:	220f      	movs	r2, #15
 8001c28:	409a      	lsls	r2, r3
 8001c2a:	0013      	movs	r3, r2
 8001c2c:	43da      	mvns	r2, r3
 8001c2e:	693b      	ldr	r3, [r7, #16]
 8001c30:	4013      	ands	r3, r2
 8001c32:	613b      	str	r3, [r7, #16]
 8001c34:	687a      	ldr	r2, [r7, #4]
 8001c36:	23a0      	movs	r3, #160	@ 0xa0
 8001c38:	05db      	lsls	r3, r3, #23
 8001c3a:	429a      	cmp	r2, r3
 8001c3c:	d01f      	beq.n	8001c7e <HAL_GPIO_Init+0x1f6>
 8001c3e:	687b      	ldr	r3, [r7, #4]
 8001c40:	4a4a      	ldr	r2, [pc, #296]	@ (8001d6c <HAL_GPIO_Init+0x2e4>)
 8001c42:	4293      	cmp	r3, r2
 8001c44:	d019      	beq.n	8001c7a <HAL_GPIO_Init+0x1f2>
 8001c46:	687b      	ldr	r3, [r7, #4]
 8001c48:	4a49      	ldr	r2, [pc, #292]	@ (8001d70 <HAL_GPIO_Init+0x2e8>)
 8001c4a:	4293      	cmp	r3, r2
 8001c4c:	d013      	beq.n	8001c76 <HAL_GPIO_Init+0x1ee>
 8001c4e:	687b      	ldr	r3, [r7, #4]
 8001c50:	4a48      	ldr	r2, [pc, #288]	@ (8001d74 <HAL_GPIO_Init+0x2ec>)
 8001c52:	4293      	cmp	r3, r2
 8001c54:	d00d      	beq.n	8001c72 <HAL_GPIO_Init+0x1ea>
 8001c56:	687b      	ldr	r3, [r7, #4]
 8001c58:	4a47      	ldr	r2, [pc, #284]	@ (8001d78 <HAL_GPIO_Init+0x2f0>)
 8001c5a:	4293      	cmp	r3, r2
 8001c5c:	d007      	beq.n	8001c6e <HAL_GPIO_Init+0x1e6>
 8001c5e:	687b      	ldr	r3, [r7, #4]
 8001c60:	4a46      	ldr	r2, [pc, #280]	@ (8001d7c <HAL_GPIO_Init+0x2f4>)
 8001c62:	4293      	cmp	r3, r2
 8001c64:	d101      	bne.n	8001c6a <HAL_GPIO_Init+0x1e2>
 8001c66:	2305      	movs	r3, #5
 8001c68:	e00a      	b.n	8001c80 <HAL_GPIO_Init+0x1f8>
 8001c6a:	2306      	movs	r3, #6
 8001c6c:	e008      	b.n	8001c80 <HAL_GPIO_Init+0x1f8>
 8001c6e:	2304      	movs	r3, #4
 8001c70:	e006      	b.n	8001c80 <HAL_GPIO_Init+0x1f8>
 8001c72:	2303      	movs	r3, #3
 8001c74:	e004      	b.n	8001c80 <HAL_GPIO_Init+0x1f8>
 8001c76:	2302      	movs	r3, #2
 8001c78:	e002      	b.n	8001c80 <HAL_GPIO_Init+0x1f8>
 8001c7a:	2301      	movs	r3, #1
 8001c7c:	e000      	b.n	8001c80 <HAL_GPIO_Init+0x1f8>
 8001c7e:	2300      	movs	r3, #0
 8001c80:	697a      	ldr	r2, [r7, #20]
 8001c82:	2103      	movs	r1, #3
 8001c84:	400a      	ands	r2, r1
 8001c86:	0092      	lsls	r2, r2, #2
 8001c88:	4093      	lsls	r3, r2
 8001c8a:	693a      	ldr	r2, [r7, #16]
 8001c8c:	4313      	orrs	r3, r2
 8001c8e:	613b      	str	r3, [r7, #16]
 8001c90:	4935      	ldr	r1, [pc, #212]	@ (8001d68 <HAL_GPIO_Init+0x2e0>)
 8001c92:	697b      	ldr	r3, [r7, #20]
 8001c94:	089b      	lsrs	r3, r3, #2
 8001c96:	3302      	adds	r3, #2
 8001c98:	009b      	lsls	r3, r3, #2
 8001c9a:	693a      	ldr	r2, [r7, #16]
 8001c9c:	505a      	str	r2, [r3, r1]
 8001c9e:	4b38      	ldr	r3, [pc, #224]	@ (8001d80 <HAL_GPIO_Init+0x2f8>)
 8001ca0:	689b      	ldr	r3, [r3, #8]
 8001ca2:	613b      	str	r3, [r7, #16]
 8001ca4:	68fb      	ldr	r3, [r7, #12]
 8001ca6:	43da      	mvns	r2, r3
 8001ca8:	693b      	ldr	r3, [r7, #16]
 8001caa:	4013      	ands	r3, r2
 8001cac:	613b      	str	r3, [r7, #16]
 8001cae:	683b      	ldr	r3, [r7, #0]
 8001cb0:	685a      	ldr	r2, [r3, #4]
 8001cb2:	2380      	movs	r3, #128	@ 0x80
 8001cb4:	035b      	lsls	r3, r3, #13
 8001cb6:	4013      	ands	r3, r2
 8001cb8:	d003      	beq.n	8001cc2 <HAL_GPIO_Init+0x23a>
 8001cba:	693a      	ldr	r2, [r7, #16]
 8001cbc:	68fb      	ldr	r3, [r7, #12]
 8001cbe:	4313      	orrs	r3, r2
 8001cc0:	613b      	str	r3, [r7, #16]
 8001cc2:	4b2f      	ldr	r3, [pc, #188]	@ (8001d80 <HAL_GPIO_Init+0x2f8>)
 8001cc4:	693a      	ldr	r2, [r7, #16]
 8001cc6:	609a      	str	r2, [r3, #8]
 8001cc8:	4b2d      	ldr	r3, [pc, #180]	@ (8001d80 <HAL_GPIO_Init+0x2f8>)
 8001cca:	68db      	ldr	r3, [r3, #12]
 8001ccc:	613b      	str	r3, [r7, #16]
 8001cce:	68fb      	ldr	r3, [r7, #12]
 8001cd0:	43da      	mvns	r2, r3
 8001cd2:	693b      	ldr	r3, [r7, #16]
 8001cd4:	4013      	ands	r3, r2
 8001cd6:	613b      	str	r3, [r7, #16]
 8001cd8:	683b      	ldr	r3, [r7, #0]
 8001cda:	685a      	ldr	r2, [r3, #4]
 8001cdc:	2380      	movs	r3, #128	@ 0x80
 8001cde:	039b      	lsls	r3, r3, #14
 8001ce0:	4013      	ands	r3, r2
 8001ce2:	d003      	beq.n	8001cec <HAL_GPIO_Init+0x264>
 8001ce4:	693a      	ldr	r2, [r7, #16]
 8001ce6:	68fb      	ldr	r3, [r7, #12]
 8001ce8:	4313      	orrs	r3, r2
 8001cea:	613b      	str	r3, [r7, #16]
 8001cec:	4b24      	ldr	r3, [pc, #144]	@ (8001d80 <HAL_GPIO_Init+0x2f8>)
 8001cee:	693a      	ldr	r2, [r7, #16]
 8001cf0:	60da      	str	r2, [r3, #12]
 8001cf2:	4b23      	ldr	r3, [pc, #140]	@ (8001d80 <HAL_GPIO_Init+0x2f8>)
 8001cf4:	685b      	ldr	r3, [r3, #4]
 8001cf6:	613b      	str	r3, [r7, #16]
 8001cf8:	68fb      	ldr	r3, [r7, #12]
 8001cfa:	43da      	mvns	r2, r3
 8001cfc:	693b      	ldr	r3, [r7, #16]
 8001cfe:	4013      	ands	r3, r2
 8001d00:	613b      	str	r3, [r7, #16]
 8001d02:	683b      	ldr	r3, [r7, #0]
 8001d04:	685a      	ldr	r2, [r3, #4]
 8001d06:	2380      	movs	r3, #128	@ 0x80
 8001d08:	029b      	lsls	r3, r3, #10
 8001d0a:	4013      	ands	r3, r2
 8001d0c:	d003      	beq.n	8001d16 <HAL_GPIO_Init+0x28e>
 8001d0e:	693a      	ldr	r2, [r7, #16]
 8001d10:	68fb      	ldr	r3, [r7, #12]
 8001d12:	4313      	orrs	r3, r2
 8001d14:	613b      	str	r3, [r7, #16]
 8001d16:	4b1a      	ldr	r3, [pc, #104]	@ (8001d80 <HAL_GPIO_Init+0x2f8>)
 8001d18:	693a      	ldr	r2, [r7, #16]
 8001d1a:	605a      	str	r2, [r3, #4]
 8001d1c:	4b18      	ldr	r3, [pc, #96]	@ (8001d80 <HAL_GPIO_Init+0x2f8>)
 8001d1e:	681b      	ldr	r3, [r3, #0]
 8001d20:	613b      	str	r3, [r7, #16]
 8001d22:	68fb      	ldr	r3, [r7, #12]
 8001d24:	43da      	mvns	r2, r3
 8001d26:	693b      	ldr	r3, [r7, #16]
 8001d28:	4013      	ands	r3, r2
 8001d2a:	613b      	str	r3, [r7, #16]
 8001d2c:	683b      	ldr	r3, [r7, #0]
 8001d2e:	685a      	ldr	r2, [r3, #4]
 8001d30:	2380      	movs	r3, #128	@ 0x80
 8001d32:	025b      	lsls	r3, r3, #9
 8001d34:	4013      	ands	r3, r2
 8001d36:	d003      	beq.n	8001d40 <HAL_GPIO_Init+0x2b8>
 8001d38:	693a      	ldr	r2, [r7, #16]
 8001d3a:	68fb      	ldr	r3, [r7, #12]
 8001d3c:	4313      	orrs	r3, r2
 8001d3e:	613b      	str	r3, [r7, #16]
 8001d40:	4b0f      	ldr	r3, [pc, #60]	@ (8001d80 <HAL_GPIO_Init+0x2f8>)
 8001d42:	693a      	ldr	r2, [r7, #16]
 8001d44:	601a      	str	r2, [r3, #0]
 8001d46:	697b      	ldr	r3, [r7, #20]
 8001d48:	3301      	adds	r3, #1
 8001d4a:	617b      	str	r3, [r7, #20]
 8001d4c:	683b      	ldr	r3, [r7, #0]
 8001d4e:	681a      	ldr	r2, [r3, #0]
 8001d50:	697b      	ldr	r3, [r7, #20]
 8001d52:	40da      	lsrs	r2, r3
 8001d54:	1e13      	subs	r3, r2, #0
 8001d56:	d000      	beq.n	8001d5a <HAL_GPIO_Init+0x2d2>
 8001d58:	e6a2      	b.n	8001aa0 <HAL_GPIO_Init+0x18>
 8001d5a:	46c0      	nop			@ (mov r8, r8)
 8001d5c:	46c0      	nop			@ (mov r8, r8)
 8001d5e:	46bd      	mov	sp, r7
 8001d60:	b006      	add	sp, #24
 8001d62:	bd80      	pop	{r7, pc}
 8001d64:	40021000 	.word	0x40021000
 8001d68:	40010000 	.word	0x40010000
 8001d6c:	50000400 	.word	0x50000400
 8001d70:	50000800 	.word	0x50000800
 8001d74:	50000c00 	.word	0x50000c00
 8001d78:	50001000 	.word	0x50001000
 8001d7c:	50001c00 	.word	0x50001c00
 8001d80:	40010400 	.word	0x40010400

08001d84 <HAL_GPIO_DeInit>:
 8001d84:	b580      	push	{r7, lr}
 8001d86:	b086      	sub	sp, #24
 8001d88:	af00      	add	r7, sp, #0
 8001d8a:	6078      	str	r0, [r7, #4]
 8001d8c:	6039      	str	r1, [r7, #0]
 8001d8e:	2300      	movs	r3, #0
 8001d90:	617b      	str	r3, [r7, #20]
 8001d92:	2300      	movs	r3, #0
 8001d94:	613b      	str	r3, [r7, #16]
 8001d96:	2300      	movs	r3, #0
 8001d98:	60fb      	str	r3, [r7, #12]
 8001d9a:	e0bc      	b.n	8001f16 <HAL_GPIO_DeInit+0x192>
 8001d9c:	2201      	movs	r2, #1
 8001d9e:	697b      	ldr	r3, [r7, #20]
 8001da0:	409a      	lsls	r2, r3
 8001da2:	683b      	ldr	r3, [r7, #0]
 8001da4:	4013      	ands	r3, r2
 8001da6:	613b      	str	r3, [r7, #16]
 8001da8:	693b      	ldr	r3, [r7, #16]
 8001daa:	2b00      	cmp	r3, #0
 8001dac:	d100      	bne.n	8001db0 <HAL_GPIO_DeInit+0x2c>
 8001dae:	e0af      	b.n	8001f10 <HAL_GPIO_DeInit+0x18c>
 8001db0:	4a5e      	ldr	r2, [pc, #376]	@ (8001f2c <HAL_GPIO_DeInit+0x1a8>)
 8001db2:	697b      	ldr	r3, [r7, #20]
 8001db4:	089b      	lsrs	r3, r3, #2
 8001db6:	3302      	adds	r3, #2
 8001db8:	009b      	lsls	r3, r3, #2
 8001dba:	589b      	ldr	r3, [r3, r2]
 8001dbc:	60fb      	str	r3, [r7, #12]
 8001dbe:	697b      	ldr	r3, [r7, #20]
 8001dc0:	2203      	movs	r2, #3
 8001dc2:	4013      	ands	r3, r2
 8001dc4:	009b      	lsls	r3, r3, #2
 8001dc6:	220f      	movs	r2, #15
 8001dc8:	409a      	lsls	r2, r3
 8001dca:	68fb      	ldr	r3, [r7, #12]
 8001dcc:	4013      	ands	r3, r2
 8001dce:	60fb      	str	r3, [r7, #12]
 8001dd0:	687a      	ldr	r2, [r7, #4]
 8001dd2:	23a0      	movs	r3, #160	@ 0xa0
 8001dd4:	05db      	lsls	r3, r3, #23
 8001dd6:	429a      	cmp	r2, r3
 8001dd8:	d01f      	beq.n	8001e1a <HAL_GPIO_DeInit+0x96>
 8001dda:	687b      	ldr	r3, [r7, #4]
 8001ddc:	4a54      	ldr	r2, [pc, #336]	@ (8001f30 <HAL_GPIO_DeInit+0x1ac>)
 8001dde:	4293      	cmp	r3, r2
 8001de0:	d019      	beq.n	8001e16 <HAL_GPIO_DeInit+0x92>
 8001de2:	687b      	ldr	r3, [r7, #4]
 8001de4:	4a53      	ldr	r2, [pc, #332]	@ (8001f34 <HAL_GPIO_DeInit+0x1b0>)
 8001de6:	4293      	cmp	r3, r2
 8001de8:	d013      	beq.n	8001e12 <HAL_GPIO_DeInit+0x8e>
 8001dea:	687b      	ldr	r3, [r7, #4]
 8001dec:	4a52      	ldr	r2, [pc, #328]	@ (8001f38 <HAL_GPIO_DeInit+0x1b4>)
 8001dee:	4293      	cmp	r3, r2
 8001df0:	d00d      	beq.n	8001e0e <HAL_GPIO_DeInit+0x8a>
 8001df2:	687b      	ldr	r3, [r7, #4]
 8001df4:	4a51      	ldr	r2, [pc, #324]	@ (8001f3c <HAL_GPIO_DeInit+0x1b8>)
 8001df6:	4293      	cmp	r3, r2
 8001df8:	d007      	beq.n	8001e0a <HAL_GPIO_DeInit+0x86>
 8001dfa:	687b      	ldr	r3, [r7, #4]
 8001dfc:	4a50      	ldr	r2, [pc, #320]	@ (8001f40 <HAL_GPIO_DeInit+0x1bc>)
 8001dfe:	4293      	cmp	r3, r2
 8001e00:	d101      	bne.n	8001e06 <HAL_GPIO_DeInit+0x82>
 8001e02:	2305      	movs	r3, #5
 8001e04:	e00a      	b.n	8001e1c <HAL_GPIO_DeInit+0x98>
 8001e06:	2306      	movs	r3, #6
 8001e08:	e008      	b.n	8001e1c <HAL_GPIO_DeInit+0x98>
 8001e0a:	2304      	movs	r3, #4
 8001e0c:	e006      	b.n	8001e1c <HAL_GPIO_DeInit+0x98>
 8001e0e:	2303      	movs	r3, #3
 8001e10:	e004      	b.n	8001e1c <HAL_GPIO_DeInit+0x98>
 8001e12:	2302      	movs	r3, #2
 8001e14:	e002      	b.n	8001e1c <HAL_GPIO_DeInit+0x98>
 8001e16:	2301      	movs	r3, #1
 8001e18:	e000      	b.n	8001e1c <HAL_GPIO_DeInit+0x98>
 8001e1a:	2300      	movs	r3, #0
 8001e1c:	697a      	ldr	r2, [r7, #20]
 8001e1e:	2103      	movs	r1, #3
 8001e20:	400a      	ands	r2, r1
 8001e22:	0092      	lsls	r2, r2, #2
 8001e24:	4093      	lsls	r3, r2
 8001e26:	68fa      	ldr	r2, [r7, #12]
 8001e28:	429a      	cmp	r2, r3
 8001e2a:	d132      	bne.n	8001e92 <HAL_GPIO_DeInit+0x10e>
 8001e2c:	4b45      	ldr	r3, [pc, #276]	@ (8001f44 <HAL_GPIO_DeInit+0x1c0>)
 8001e2e:	681a      	ldr	r2, [r3, #0]
 8001e30:	693b      	ldr	r3, [r7, #16]
 8001e32:	43d9      	mvns	r1, r3
 8001e34:	4b43      	ldr	r3, [pc, #268]	@ (8001f44 <HAL_GPIO_DeInit+0x1c0>)
 8001e36:	400a      	ands	r2, r1
 8001e38:	601a      	str	r2, [r3, #0]
 8001e3a:	4b42      	ldr	r3, [pc, #264]	@ (8001f44 <HAL_GPIO_DeInit+0x1c0>)
 8001e3c:	685a      	ldr	r2, [r3, #4]
 8001e3e:	693b      	ldr	r3, [r7, #16]
 8001e40:	43d9      	mvns	r1, r3
 8001e42:	4b40      	ldr	r3, [pc, #256]	@ (8001f44 <HAL_GPIO_DeInit+0x1c0>)
 8001e44:	400a      	ands	r2, r1
 8001e46:	605a      	str	r2, [r3, #4]
 8001e48:	4b3e      	ldr	r3, [pc, #248]	@ (8001f44 <HAL_GPIO_DeInit+0x1c0>)
 8001e4a:	68da      	ldr	r2, [r3, #12]
 8001e4c:	693b      	ldr	r3, [r7, #16]
 8001e4e:	43d9      	mvns	r1, r3
 8001e50:	4b3c      	ldr	r3, [pc, #240]	@ (8001f44 <HAL_GPIO_DeInit+0x1c0>)
 8001e52:	400a      	ands	r2, r1
 8001e54:	60da      	str	r2, [r3, #12]
 8001e56:	4b3b      	ldr	r3, [pc, #236]	@ (8001f44 <HAL_GPIO_DeInit+0x1c0>)
 8001e58:	689a      	ldr	r2, [r3, #8]
 8001e5a:	693b      	ldr	r3, [r7, #16]
 8001e5c:	43d9      	mvns	r1, r3
 8001e5e:	4b39      	ldr	r3, [pc, #228]	@ (8001f44 <HAL_GPIO_DeInit+0x1c0>)
 8001e60:	400a      	ands	r2, r1
 8001e62:	609a      	str	r2, [r3, #8]
 8001e64:	697b      	ldr	r3, [r7, #20]
 8001e66:	2203      	movs	r2, #3
 8001e68:	4013      	ands	r3, r2
 8001e6a:	009b      	lsls	r3, r3, #2
 8001e6c:	220f      	movs	r2, #15
 8001e6e:	409a      	lsls	r2, r3
 8001e70:	0013      	movs	r3, r2
 8001e72:	60fb      	str	r3, [r7, #12]
 8001e74:	4a2d      	ldr	r2, [pc, #180]	@ (8001f2c <HAL_GPIO_DeInit+0x1a8>)
 8001e76:	697b      	ldr	r3, [r7, #20]
 8001e78:	089b      	lsrs	r3, r3, #2
 8001e7a:	3302      	adds	r3, #2
 8001e7c:	009b      	lsls	r3, r3, #2
 8001e7e:	589a      	ldr	r2, [r3, r2]
 8001e80:	68fb      	ldr	r3, [r7, #12]
 8001e82:	43d9      	mvns	r1, r3
 8001e84:	4829      	ldr	r0, [pc, #164]	@ (8001f2c <HAL_GPIO_DeInit+0x1a8>)
 8001e86:	697b      	ldr	r3, [r7, #20]
 8001e88:	089b      	lsrs	r3, r3, #2
 8001e8a:	400a      	ands	r2, r1
 8001e8c:	3302      	adds	r3, #2
 8001e8e:	009b      	lsls	r3, r3, #2
 8001e90:	501a      	str	r2, [r3, r0]
 8001e92:	687b      	ldr	r3, [r7, #4]
 8001e94:	681a      	ldr	r2, [r3, #0]
 8001e96:	697b      	ldr	r3, [r7, #20]
 8001e98:	005b      	lsls	r3, r3, #1
 8001e9a:	2103      	movs	r1, #3
 8001e9c:	4099      	lsls	r1, r3
 8001e9e:	000b      	movs	r3, r1
 8001ea0:	431a      	orrs	r2, r3
 8001ea2:	687b      	ldr	r3, [r7, #4]
 8001ea4:	601a      	str	r2, [r3, #0]
 8001ea6:	697b      	ldr	r3, [r7, #20]
 8001ea8:	08da      	lsrs	r2, r3, #3
 8001eaa:	687b      	ldr	r3, [r7, #4]
 8001eac:	3208      	adds	r2, #8
 8001eae:	0092      	lsls	r2, r2, #2
 8001eb0:	58d3      	ldr	r3, [r2, r3]
 8001eb2:	697a      	ldr	r2, [r7, #20]
 8001eb4:	2107      	movs	r1, #7
 8001eb6:	400a      	ands	r2, r1
 8001eb8:	0092      	lsls	r2, r2, #2
 8001eba:	210f      	movs	r1, #15
 8001ebc:	4091      	lsls	r1, r2
 8001ebe:	000a      	movs	r2, r1
 8001ec0:	43d1      	mvns	r1, r2
 8001ec2:	697a      	ldr	r2, [r7, #20]
 8001ec4:	08d2      	lsrs	r2, r2, #3
 8001ec6:	4019      	ands	r1, r3
 8001ec8:	687b      	ldr	r3, [r7, #4]
 8001eca:	3208      	adds	r2, #8
 8001ecc:	0092      	lsls	r2, r2, #2
 8001ece:	50d1      	str	r1, [r2, r3]
 8001ed0:	687b      	ldr	r3, [r7, #4]
 8001ed2:	68db      	ldr	r3, [r3, #12]
 8001ed4:	697a      	ldr	r2, [r7, #20]
 8001ed6:	0052      	lsls	r2, r2, #1
 8001ed8:	2103      	movs	r1, #3
 8001eda:	4091      	lsls	r1, r2
 8001edc:	000a      	movs	r2, r1
 8001ede:	43d2      	mvns	r2, r2
 8001ee0:	401a      	ands	r2, r3
 8001ee2:	687b      	ldr	r3, [r7, #4]
 8001ee4:	60da      	str	r2, [r3, #12]
 8001ee6:	687b      	ldr	r3, [r7, #4]
 8001ee8:	685b      	ldr	r3, [r3, #4]
 8001eea:	2101      	movs	r1, #1
 8001eec:	697a      	ldr	r2, [r7, #20]
 8001eee:	4091      	lsls	r1, r2
 8001ef0:	000a      	movs	r2, r1
 8001ef2:	43d2      	mvns	r2, r2
 8001ef4:	401a      	ands	r2, r3
 8001ef6:	687b      	ldr	r3, [r7, #4]
 8001ef8:	605a      	str	r2, [r3, #4]
 8001efa:	687b      	ldr	r3, [r7, #4]
 8001efc:	689b      	ldr	r3, [r3, #8]
 8001efe:	697a      	ldr	r2, [r7, #20]
 8001f00:	0052      	lsls	r2, r2, #1
 8001f02:	2103      	movs	r1, #3
 8001f04:	4091      	lsls	r1, r2
 8001f06:	000a      	movs	r2, r1
 8001f08:	43d2      	mvns	r2, r2
 8001f0a:	401a      	ands	r2, r3
 8001f0c:	687b      	ldr	r3, [r7, #4]
 8001f0e:	609a      	str	r2, [r3, #8]
 8001f10:	697b      	ldr	r3, [r7, #20]
 8001f12:	3301      	adds	r3, #1
 8001f14:	617b      	str	r3, [r7, #20]
 8001f16:	683a      	ldr	r2, [r7, #0]
 8001f18:	697b      	ldr	r3, [r7, #20]
 8001f1a:	40da      	lsrs	r2, r3
 8001f1c:	1e13      	subs	r3, r2, #0
 8001f1e:	d000      	beq.n	8001f22 <HAL_GPIO_DeInit+0x19e>
 8001f20:	e73c      	b.n	8001d9c <HAL_GPIO_DeInit+0x18>
 8001f22:	46c0      	nop			@ (mov r8, r8)
 8001f24:	46c0      	nop			@ (mov r8, r8)
 8001f26:	46bd      	mov	sp, r7
 8001f28:	b006      	add	sp, #24
 8001f2a:	bd80      	pop	{r7, pc}
 8001f2c:	40010000 	.word	0x40010000
 8001f30:	50000400 	.word	0x50000400
 8001f34:	50000800 	.word	0x50000800
 8001f38:	50000c00 	.word	0x50000c00
 8001f3c:	50001000 	.word	0x50001000
 8001f40:	50001c00 	.word	0x50001c00
 8001f44:	40010400 	.word	0x40010400

08001f48 <HAL_GPIO_WritePin>:
 8001f48:	b580      	push	{r7, lr}
 8001f4a:	b082      	sub	sp, #8
 8001f4c:	af00      	add	r7, sp, #0
 8001f4e:	6078      	str	r0, [r7, #4]
 8001f50:	0008      	movs	r0, r1
 8001f52:	0011      	movs	r1, r2
 8001f54:	1cbb      	adds	r3, r7, #2
 8001f56:	1c02      	adds	r2, r0, #0
 8001f58:	801a      	strh	r2, [r3, #0]
 8001f5a:	1c7b      	adds	r3, r7, #1
 8001f5c:	1c0a      	adds	r2, r1, #0
 8001f5e:	701a      	strb	r2, [r3, #0]
 8001f60:	1c7b      	adds	r3, r7, #1
 8001f62:	781b      	ldrb	r3, [r3, #0]
 8001f64:	2b00      	cmp	r3, #0
 8001f66:	d004      	beq.n	8001f72 <HAL_GPIO_WritePin+0x2a>
 8001f68:	1cbb      	adds	r3, r7, #2
 8001f6a:	881a      	ldrh	r2, [r3, #0]
 8001f6c:	687b      	ldr	r3, [r7, #4]
 8001f6e:	619a      	str	r2, [r3, #24]
 8001f70:	e003      	b.n	8001f7a <HAL_GPIO_WritePin+0x32>
 8001f72:	1cbb      	adds	r3, r7, #2
 8001f74:	881a      	ldrh	r2, [r3, #0]
 8001f76:	687b      	ldr	r3, [r7, #4]
 8001f78:	629a      	str	r2, [r3, #40]	@ 0x28
 8001f7a:	46c0      	nop			@ (mov r8, r8)
 8001f7c:	46bd      	mov	sp, r7
 8001f7e:	b002      	add	sp, #8
 8001f80:	bd80      	pop	{r7, pc}
	...

08001f84 <HAL_I2C_Init>:
 8001f84:	b580      	push	{r7, lr}
 8001f86:	b082      	sub	sp, #8
 8001f88:	af00      	add	r7, sp, #0
 8001f8a:	6078      	str	r0, [r7, #4]
 8001f8c:	687b      	ldr	r3, [r7, #4]
 8001f8e:	2b00      	cmp	r3, #0
 8001f90:	d101      	bne.n	8001f96 <HAL_I2C_Init+0x12>
 8001f92:	2301      	movs	r3, #1
 8001f94:	e08f      	b.n	80020b6 <HAL_I2C_Init+0x132>
 8001f96:	687b      	ldr	r3, [r7, #4]
 8001f98:	2241      	movs	r2, #65	@ 0x41
 8001f9a:	5c9b      	ldrb	r3, [r3, r2]
 8001f9c:	b2db      	uxtb	r3, r3
 8001f9e:	2b00      	cmp	r3, #0
 8001fa0:	d107      	bne.n	8001fb2 <HAL_I2C_Init+0x2e>
 8001fa2:	687b      	ldr	r3, [r7, #4]
 8001fa4:	2240      	movs	r2, #64	@ 0x40
 8001fa6:	2100      	movs	r1, #0
 8001fa8:	5499      	strb	r1, [r3, r2]
 8001faa:	687b      	ldr	r3, [r7, #4]
 8001fac:	0018      	movs	r0, r3
 8001fae:	f7fe fb25 	bl	80005fc <HAL_I2C_MspInit>
 8001fb2:	687b      	ldr	r3, [r7, #4]
 8001fb4:	2241      	movs	r2, #65	@ 0x41
 8001fb6:	2124      	movs	r1, #36	@ 0x24
 8001fb8:	5499      	strb	r1, [r3, r2]
 8001fba:	687b      	ldr	r3, [r7, #4]
 8001fbc:	681b      	ldr	r3, [r3, #0]
 8001fbe:	681a      	ldr	r2, [r3, #0]
 8001fc0:	687b      	ldr	r3, [r7, #4]
 8001fc2:	681b      	ldr	r3, [r3, #0]
 8001fc4:	2101      	movs	r1, #1
 8001fc6:	438a      	bics	r2, r1
 8001fc8:	601a      	str	r2, [r3, #0]
 8001fca:	687b      	ldr	r3, [r7, #4]
 8001fcc:	685a      	ldr	r2, [r3, #4]
 8001fce:	687b      	ldr	r3, [r7, #4]
 8001fd0:	681b      	ldr	r3, [r3, #0]
 8001fd2:	493b      	ldr	r1, [pc, #236]	@ (80020c0 <HAL_I2C_Init+0x13c>)
 8001fd4:	400a      	ands	r2, r1
 8001fd6:	611a      	str	r2, [r3, #16]
 8001fd8:	687b      	ldr	r3, [r7, #4]
 8001fda:	681b      	ldr	r3, [r3, #0]
 8001fdc:	689a      	ldr	r2, [r3, #8]
 8001fde:	687b      	ldr	r3, [r7, #4]
 8001fe0:	681b      	ldr	r3, [r3, #0]
 8001fe2:	4938      	ldr	r1, [pc, #224]	@ (80020c4 <HAL_I2C_Init+0x140>)
 8001fe4:	400a      	ands	r2, r1
 8001fe6:	609a      	str	r2, [r3, #8]
 8001fe8:	687b      	ldr	r3, [r7, #4]
 8001fea:	68db      	ldr	r3, [r3, #12]
 8001fec:	2b01      	cmp	r3, #1
 8001fee:	d108      	bne.n	8002002 <HAL_I2C_Init+0x7e>
 8001ff0:	687b      	ldr	r3, [r7, #4]
 8001ff2:	689a      	ldr	r2, [r3, #8]
 8001ff4:	687b      	ldr	r3, [r7, #4]
 8001ff6:	681b      	ldr	r3, [r3, #0]
 8001ff8:	2180      	movs	r1, #128	@ 0x80
 8001ffa:	0209      	lsls	r1, r1, #8
 8001ffc:	430a      	orrs	r2, r1
 8001ffe:	609a      	str	r2, [r3, #8]
 8002000:	e007      	b.n	8002012 <HAL_I2C_Init+0x8e>
 8002002:	687b      	ldr	r3, [r7, #4]
 8002004:	689a      	ldr	r2, [r3, #8]
 8002006:	687b      	ldr	r3, [r7, #4]
 8002008:	681b      	ldr	r3, [r3, #0]
 800200a:	2184      	movs	r1, #132	@ 0x84
 800200c:	0209      	lsls	r1, r1, #8
 800200e:	430a      	orrs	r2, r1
 8002010:	609a      	str	r2, [r3, #8]
 8002012:	687b      	ldr	r3, [r7, #4]
 8002014:	68db      	ldr	r3, [r3, #12]
 8002016:	2b02      	cmp	r3, #2
 8002018:	d109      	bne.n	800202e <HAL_I2C_Init+0xaa>
 800201a:	687b      	ldr	r3, [r7, #4]
 800201c:	681b      	ldr	r3, [r3, #0]
 800201e:	685a      	ldr	r2, [r3, #4]
 8002020:	687b      	ldr	r3, [r7, #4]
 8002022:	681b      	ldr	r3, [r3, #0]
 8002024:	2180      	movs	r1, #128	@ 0x80
 8002026:	0109      	lsls	r1, r1, #4
 8002028:	430a      	orrs	r2, r1
 800202a:	605a      	str	r2, [r3, #4]
 800202c:	e007      	b.n	800203e <HAL_I2C_Init+0xba>
 800202e:	687b      	ldr	r3, [r7, #4]
 8002030:	681b      	ldr	r3, [r3, #0]
 8002032:	685a      	ldr	r2, [r3, #4]
 8002034:	687b      	ldr	r3, [r7, #4]
 8002036:	681b      	ldr	r3, [r3, #0]
 8002038:	4923      	ldr	r1, [pc, #140]	@ (80020c8 <HAL_I2C_Init+0x144>)
 800203a:	400a      	ands	r2, r1
 800203c:	605a      	str	r2, [r3, #4]
 800203e:	687b      	ldr	r3, [r7, #4]
 8002040:	681b      	ldr	r3, [r3, #0]
 8002042:	685a      	ldr	r2, [r3, #4]
 8002044:	687b      	ldr	r3, [r7, #4]
 8002046:	681b      	ldr	r3, [r3, #0]
 8002048:	4920      	ldr	r1, [pc, #128]	@ (80020cc <HAL_I2C_Init+0x148>)
 800204a:	430a      	orrs	r2, r1
 800204c:	605a      	str	r2, [r3, #4]
 800204e:	687b      	ldr	r3, [r7, #4]
 8002050:	681b      	ldr	r3, [r3, #0]
 8002052:	68da      	ldr	r2, [r3, #12]
 8002054:	687b      	ldr	r3, [r7, #4]
 8002056:	681b      	ldr	r3, [r3, #0]
 8002058:	491a      	ldr	r1, [pc, #104]	@ (80020c4 <HAL_I2C_Init+0x140>)
 800205a:	400a      	ands	r2, r1
 800205c:	60da      	str	r2, [r3, #12]
 800205e:	687b      	ldr	r3, [r7, #4]
 8002060:	691a      	ldr	r2, [r3, #16]
 8002062:	687b      	ldr	r3, [r7, #4]
 8002064:	695b      	ldr	r3, [r3, #20]
 8002066:	431a      	orrs	r2, r3
 8002068:	0011      	movs	r1, r2
 800206a:	687b      	ldr	r3, [r7, #4]
 800206c:	699b      	ldr	r3, [r3, #24]
 800206e:	021a      	lsls	r2, r3, #8
 8002070:	687b      	ldr	r3, [r7, #4]
 8002072:	681b      	ldr	r3, [r3, #0]
 8002074:	430a      	orrs	r2, r1
 8002076:	60da      	str	r2, [r3, #12]
 8002078:	687b      	ldr	r3, [r7, #4]
 800207a:	69d9      	ldr	r1, [r3, #28]
 800207c:	687b      	ldr	r3, [r7, #4]
 800207e:	6a1a      	ldr	r2, [r3, #32]
 8002080:	687b      	ldr	r3, [r7, #4]
 8002082:	681b      	ldr	r3, [r3, #0]
 8002084:	430a      	orrs	r2, r1
 8002086:	601a      	str	r2, [r3, #0]
 8002088:	687b      	ldr	r3, [r7, #4]
 800208a:	681b      	ldr	r3, [r3, #0]
 800208c:	681a      	ldr	r2, [r3, #0]
 800208e:	687b      	ldr	r3, [r7, #4]
 8002090:	681b      	ldr	r3, [r3, #0]
 8002092:	2101      	movs	r1, #1
 8002094:	430a      	orrs	r2, r1
 8002096:	601a      	str	r2, [r3, #0]
 8002098:	687b      	ldr	r3, [r7, #4]
 800209a:	2200      	movs	r2, #0
 800209c:	645a      	str	r2, [r3, #68]	@ 0x44
 800209e:	687b      	ldr	r3, [r7, #4]
 80020a0:	2241      	movs	r2, #65	@ 0x41
 80020a2:	2120      	movs	r1, #32
 80020a4:	5499      	strb	r1, [r3, r2]
 80020a6:	687b      	ldr	r3, [r7, #4]
 80020a8:	2200      	movs	r2, #0
 80020aa:	631a      	str	r2, [r3, #48]	@ 0x30
 80020ac:	687b      	ldr	r3, [r7, #4]
 80020ae:	2242      	movs	r2, #66	@ 0x42
 80020b0:	2100      	movs	r1, #0
 80020b2:	5499      	strb	r1, [r3, r2]
 80020b4:	2300      	movs	r3, #0
 80020b6:	0018      	movs	r0, r3
 80020b8:	46bd      	mov	sp, r7
 80020ba:	b002      	add	sp, #8
 80020bc:	bd80      	pop	{r7, pc}
 80020be:	46c0      	nop			@ (mov r8, r8)
 80020c0:	f0ffffff 	.word	0xf0ffffff
 80020c4:	ffff7fff 	.word	0xffff7fff
 80020c8:	fffff7ff 	.word	0xfffff7ff
 80020cc:	02008000 	.word	0x02008000

080020d0 <HAL_I2C_DeInit>:
 80020d0:	b580      	push	{r7, lr}
 80020d2:	b082      	sub	sp, #8
 80020d4:	af00      	add	r7, sp, #0
 80020d6:	6078      	str	r0, [r7, #4]
 80020d8:	687b      	ldr	r3, [r7, #4]
 80020da:	2b00      	cmp	r3, #0
 80020dc:	d101      	bne.n	80020e2 <HAL_I2C_DeInit+0x12>
 80020de:	2301      	movs	r3, #1
 80020e0:	e022      	b.n	8002128 <HAL_I2C_DeInit+0x58>
 80020e2:	687b      	ldr	r3, [r7, #4]
 80020e4:	2241      	movs	r2, #65	@ 0x41
 80020e6:	2124      	movs	r1, #36	@ 0x24
 80020e8:	5499      	strb	r1, [r3, r2]
 80020ea:	687b      	ldr	r3, [r7, #4]
 80020ec:	681b      	ldr	r3, [r3, #0]
 80020ee:	681a      	ldr	r2, [r3, #0]
 80020f0:	687b      	ldr	r3, [r7, #4]
 80020f2:	681b      	ldr	r3, [r3, #0]
 80020f4:	2101      	movs	r1, #1
 80020f6:	438a      	bics	r2, r1
 80020f8:	601a      	str	r2, [r3, #0]
 80020fa:	687b      	ldr	r3, [r7, #4]
 80020fc:	0018      	movs	r0, r3
 80020fe:	f7fe fac1 	bl	8000684 <HAL_I2C_MspDeInit>
 8002102:	687b      	ldr	r3, [r7, #4]
 8002104:	2200      	movs	r2, #0
 8002106:	645a      	str	r2, [r3, #68]	@ 0x44
 8002108:	687b      	ldr	r3, [r7, #4]
 800210a:	2241      	movs	r2, #65	@ 0x41
 800210c:	2100      	movs	r1, #0
 800210e:	5499      	strb	r1, [r3, r2]
 8002110:	687b      	ldr	r3, [r7, #4]
 8002112:	2200      	movs	r2, #0
 8002114:	631a      	str	r2, [r3, #48]	@ 0x30
 8002116:	687b      	ldr	r3, [r7, #4]
 8002118:	2242      	movs	r2, #66	@ 0x42
 800211a:	2100      	movs	r1, #0
 800211c:	5499      	strb	r1, [r3, r2]
 800211e:	687b      	ldr	r3, [r7, #4]
 8002120:	2240      	movs	r2, #64	@ 0x40
 8002122:	2100      	movs	r1, #0
 8002124:	5499      	strb	r1, [r3, r2]
 8002126:	2300      	movs	r3, #0
 8002128:	0018      	movs	r0, r3
 800212a:	46bd      	mov	sp, r7
 800212c:	b002      	add	sp, #8
 800212e:	bd80      	pop	{r7, pc}

08002130 <HAL_I2CEx_ConfigAnalogFilter>:
 8002130:	b580      	push	{r7, lr}
 8002132:	b082      	sub	sp, #8
 8002134:	af00      	add	r7, sp, #0
 8002136:	6078      	str	r0, [r7, #4]
 8002138:	6039      	str	r1, [r7, #0]
 800213a:	687b      	ldr	r3, [r7, #4]
 800213c:	2241      	movs	r2, #65	@ 0x41
 800213e:	5c9b      	ldrb	r3, [r3, r2]
 8002140:	b2db      	uxtb	r3, r3
 8002142:	2b20      	cmp	r3, #32
 8002144:	d138      	bne.n	80021b8 <HAL_I2CEx_ConfigAnalogFilter+0x88>
 8002146:	687b      	ldr	r3, [r7, #4]
 8002148:	2240      	movs	r2, #64	@ 0x40
 800214a:	5c9b      	ldrb	r3, [r3, r2]
 800214c:	2b01      	cmp	r3, #1
 800214e:	d101      	bne.n	8002154 <HAL_I2CEx_ConfigAnalogFilter+0x24>
 8002150:	2302      	movs	r3, #2
 8002152:	e032      	b.n	80021ba <HAL_I2CEx_ConfigAnalogFilter+0x8a>
 8002154:	687b      	ldr	r3, [r7, #4]
 8002156:	2240      	movs	r2, #64	@ 0x40
 8002158:	2101      	movs	r1, #1
 800215a:	5499      	strb	r1, [r3, r2]
 800215c:	687b      	ldr	r3, [r7, #4]
 800215e:	2241      	movs	r2, #65	@ 0x41
 8002160:	2124      	movs	r1, #36	@ 0x24
 8002162:	5499      	strb	r1, [r3, r2]
 8002164:	687b      	ldr	r3, [r7, #4]
 8002166:	681b      	ldr	r3, [r3, #0]
 8002168:	681a      	ldr	r2, [r3, #0]
 800216a:	687b      	ldr	r3, [r7, #4]
 800216c:	681b      	ldr	r3, [r3, #0]
 800216e:	2101      	movs	r1, #1
 8002170:	438a      	bics	r2, r1
 8002172:	601a      	str	r2, [r3, #0]
 8002174:	687b      	ldr	r3, [r7, #4]
 8002176:	681b      	ldr	r3, [r3, #0]
 8002178:	681a      	ldr	r2, [r3, #0]
 800217a:	687b      	ldr	r3, [r7, #4]
 800217c:	681b      	ldr	r3, [r3, #0]
 800217e:	4911      	ldr	r1, [pc, #68]	@ (80021c4 <HAL_I2CEx_ConfigAnalogFilter+0x94>)
 8002180:	400a      	ands	r2, r1
 8002182:	601a      	str	r2, [r3, #0]
 8002184:	687b      	ldr	r3, [r7, #4]
 8002186:	681b      	ldr	r3, [r3, #0]
 8002188:	6819      	ldr	r1, [r3, #0]
 800218a:	687b      	ldr	r3, [r7, #4]
 800218c:	681b      	ldr	r3, [r3, #0]
 800218e:	683a      	ldr	r2, [r7, #0]
 8002190:	430a      	orrs	r2, r1
 8002192:	601a      	str	r2, [r3, #0]
 8002194:	687b      	ldr	r3, [r7, #4]
 8002196:	681b      	ldr	r3, [r3, #0]
 8002198:	681a      	ldr	r2, [r3, #0]
 800219a:	687b      	ldr	r3, [r7, #4]
 800219c:	681b      	ldr	r3, [r3, #0]
 800219e:	2101      	movs	r1, #1
 80021a0:	430a      	orrs	r2, r1
 80021a2:	601a      	str	r2, [r3, #0]
 80021a4:	687b      	ldr	r3, [r7, #4]
 80021a6:	2241      	movs	r2, #65	@ 0x41
 80021a8:	2120      	movs	r1, #32
 80021aa:	5499      	strb	r1, [r3, r2]
 80021ac:	687b      	ldr	r3, [r7, #4]
 80021ae:	2240      	movs	r2, #64	@ 0x40
 80021b0:	2100      	movs	r1, #0
 80021b2:	5499      	strb	r1, [r3, r2]
 80021b4:	2300      	movs	r3, #0
 80021b6:	e000      	b.n	80021ba <HAL_I2CEx_ConfigAnalogFilter+0x8a>
 80021b8:	2302      	movs	r3, #2
 80021ba:	0018      	movs	r0, r3
 80021bc:	46bd      	mov	sp, r7
 80021be:	b002      	add	sp, #8
 80021c0:	bd80      	pop	{r7, pc}
 80021c2:	46c0      	nop			@ (mov r8, r8)
 80021c4:	ffffefff 	.word	0xffffefff

080021c8 <HAL_I2CEx_ConfigDigitalFilter>:
 80021c8:	b580      	push	{r7, lr}
 80021ca:	b084      	sub	sp, #16
 80021cc:	af00      	add	r7, sp, #0
 80021ce:	6078      	str	r0, [r7, #4]
 80021d0:	6039      	str	r1, [r7, #0]
 80021d2:	687b      	ldr	r3, [r7, #4]
 80021d4:	2241      	movs	r2, #65	@ 0x41
 80021d6:	5c9b      	ldrb	r3, [r3, r2]
 80021d8:	b2db      	uxtb	r3, r3
 80021da:	2b20      	cmp	r3, #32
 80021dc:	d139      	bne.n	8002252 <HAL_I2CEx_ConfigDigitalFilter+0x8a>
 80021de:	687b      	ldr	r3, [r7, #4]
 80021e0:	2240      	movs	r2, #64	@ 0x40
 80021e2:	5c9b      	ldrb	r3, [r3, r2]
 80021e4:	2b01      	cmp	r3, #1
 80021e6:	d101      	bne.n	80021ec <HAL_I2CEx_ConfigDigitalFilter+0x24>
 80021e8:	2302      	movs	r3, #2
 80021ea:	e033      	b.n	8002254 <HAL_I2CEx_ConfigDigitalFilter+0x8c>
 80021ec:	687b      	ldr	r3, [r7, #4]
 80021ee:	2240      	movs	r2, #64	@ 0x40
 80021f0:	2101      	movs	r1, #1
 80021f2:	5499      	strb	r1, [r3, r2]
 80021f4:	687b      	ldr	r3, [r7, #4]
 80021f6:	2241      	movs	r2, #65	@ 0x41
 80021f8:	2124      	movs	r1, #36	@ 0x24
 80021fa:	5499      	strb	r1, [r3, r2]
 80021fc:	687b      	ldr	r3, [r7, #4]
 80021fe:	681b      	ldr	r3, [r3, #0]
 8002200:	681a      	ldr	r2, [r3, #0]
 8002202:	687b      	ldr	r3, [r7, #4]
 8002204:	681b      	ldr	r3, [r3, #0]
 8002206:	2101      	movs	r1, #1
 8002208:	438a      	bics	r2, r1
 800220a:	601a      	str	r2, [r3, #0]
 800220c:	687b      	ldr	r3, [r7, #4]
 800220e:	681b      	ldr	r3, [r3, #0]
 8002210:	681b      	ldr	r3, [r3, #0]
 8002212:	60fb      	str	r3, [r7, #12]
 8002214:	68fb      	ldr	r3, [r7, #12]
 8002216:	4a11      	ldr	r2, [pc, #68]	@ (800225c <HAL_I2CEx_ConfigDigitalFilter+0x94>)
 8002218:	4013      	ands	r3, r2
 800221a:	60fb      	str	r3, [r7, #12]
 800221c:	683b      	ldr	r3, [r7, #0]
 800221e:	021b      	lsls	r3, r3, #8
 8002220:	68fa      	ldr	r2, [r7, #12]
 8002222:	4313      	orrs	r3, r2
 8002224:	60fb      	str	r3, [r7, #12]
 8002226:	687b      	ldr	r3, [r7, #4]
 8002228:	681b      	ldr	r3, [r3, #0]
 800222a:	68fa      	ldr	r2, [r7, #12]
 800222c:	601a      	str	r2, [r3, #0]
 800222e:	687b      	ldr	r3, [r7, #4]
 8002230:	681b      	ldr	r3, [r3, #0]
 8002232:	681a      	ldr	r2, [r3, #0]
 8002234:	687b      	ldr	r3, [r7, #4]
 8002236:	681b      	ldr	r3, [r3, #0]
 8002238:	2101      	movs	r1, #1
 800223a:	430a      	orrs	r2, r1
 800223c:	601a      	str	r2, [r3, #0]
 800223e:	687b      	ldr	r3, [r7, #4]
 8002240:	2241      	movs	r2, #65	@ 0x41
 8002242:	2120      	movs	r1, #32
 8002244:	5499      	strb	r1, [r3, r2]
 8002246:	687b      	ldr	r3, [r7, #4]
 8002248:	2240      	movs	r2, #64	@ 0x40
 800224a:	2100      	movs	r1, #0
 800224c:	5499      	strb	r1, [r3, r2]
 800224e:	2300      	movs	r3, #0
 8002250:	e000      	b.n	8002254 <HAL_I2CEx_ConfigDigitalFilter+0x8c>
 8002252:	2302      	movs	r3, #2
 8002254:	0018      	movs	r0, r3
 8002256:	46bd      	mov	sp, r7
 8002258:	b004      	add	sp, #16
 800225a:	bd80      	pop	{r7, pc}
 800225c:	fffff0ff 	.word	0xfffff0ff

08002260 <HAL_PWR_EnterSTOPMode>:
 8002260:	b580      	push	{r7, lr}
 8002262:	b086      	sub	sp, #24
 8002264:	af00      	add	r7, sp, #0
 8002266:	6078      	str	r0, [r7, #4]
 8002268:	000a      	movs	r2, r1
 800226a:	1cfb      	adds	r3, r7, #3
 800226c:	701a      	strb	r2, [r3, #0]
 800226e:	2300      	movs	r3, #0
 8002270:	617b      	str	r3, [r7, #20]
 8002272:	4b25      	ldr	r3, [pc, #148]	@ (8002308 <HAL_PWR_EnterSTOPMode+0xa8>)
 8002274:	681a      	ldr	r2, [r3, #0]
 8002276:	2380      	movs	r3, #128	@ 0x80
 8002278:	009b      	lsls	r3, r3, #2
 800227a:	4013      	ands	r3, r2
 800227c:	613b      	str	r3, [r7, #16]
 800227e:	4b23      	ldr	r3, [pc, #140]	@ (800230c <HAL_PWR_EnterSTOPMode+0xac>)
 8002280:	6a1b      	ldr	r3, [r3, #32]
 8002282:	2201      	movs	r2, #1
 8002284:	4013      	ands	r3, r2
 8002286:	60fb      	str	r3, [r7, #12]
 8002288:	693b      	ldr	r3, [r7, #16]
 800228a:	2b00      	cmp	r3, #0
 800228c:	d008      	beq.n	80022a0 <HAL_PWR_EnterSTOPMode+0x40>
 800228e:	68fb      	ldr	r3, [r7, #12]
 8002290:	2b00      	cmp	r3, #0
 8002292:	d005      	beq.n	80022a0 <HAL_PWR_EnterSTOPMode+0x40>
 8002294:	4b1c      	ldr	r3, [pc, #112]	@ (8002308 <HAL_PWR_EnterSTOPMode+0xa8>)
 8002296:	681a      	ldr	r2, [r3, #0]
 8002298:	4b1b      	ldr	r3, [pc, #108]	@ (8002308 <HAL_PWR_EnterSTOPMode+0xa8>)
 800229a:	491d      	ldr	r1, [pc, #116]	@ (8002310 <HAL_PWR_EnterSTOPMode+0xb0>)
 800229c:	400a      	ands	r2, r1
 800229e:	601a      	str	r2, [r3, #0]
 80022a0:	4b19      	ldr	r3, [pc, #100]	@ (8002308 <HAL_PWR_EnterSTOPMode+0xa8>)
 80022a2:	681b      	ldr	r3, [r3, #0]
 80022a4:	617b      	str	r3, [r7, #20]
 80022a6:	697b      	ldr	r3, [r7, #20]
 80022a8:	2203      	movs	r2, #3
 80022aa:	4393      	bics	r3, r2
 80022ac:	617b      	str	r3, [r7, #20]
 80022ae:	697a      	ldr	r2, [r7, #20]
 80022b0:	687b      	ldr	r3, [r7, #4]
 80022b2:	4313      	orrs	r3, r2
 80022b4:	617b      	str	r3, [r7, #20]
 80022b6:	4b14      	ldr	r3, [pc, #80]	@ (8002308 <HAL_PWR_EnterSTOPMode+0xa8>)
 80022b8:	697a      	ldr	r2, [r7, #20]
 80022ba:	601a      	str	r2, [r3, #0]
 80022bc:	4b15      	ldr	r3, [pc, #84]	@ (8002314 <HAL_PWR_EnterSTOPMode+0xb4>)
 80022be:	691a      	ldr	r2, [r3, #16]
 80022c0:	4b14      	ldr	r3, [pc, #80]	@ (8002314 <HAL_PWR_EnterSTOPMode+0xb4>)
 80022c2:	2104      	movs	r1, #4
 80022c4:	430a      	orrs	r2, r1
 80022c6:	611a      	str	r2, [r3, #16]
 80022c8:	1cfb      	adds	r3, r7, #3
 80022ca:	781b      	ldrb	r3, [r3, #0]
 80022cc:	2b01      	cmp	r3, #1
 80022ce:	d101      	bne.n	80022d4 <HAL_PWR_EnterSTOPMode+0x74>
 80022d0:	bf30      	wfi
 80022d2:	e002      	b.n	80022da <HAL_PWR_EnterSTOPMode+0x7a>
 80022d4:	bf40      	sev
 80022d6:	bf20      	wfe
 80022d8:	bf20      	wfe
 80022da:	4b0e      	ldr	r3, [pc, #56]	@ (8002314 <HAL_PWR_EnterSTOPMode+0xb4>)
 80022dc:	691a      	ldr	r2, [r3, #16]
 80022de:	4b0d      	ldr	r3, [pc, #52]	@ (8002314 <HAL_PWR_EnterSTOPMode+0xb4>)
 80022e0:	2104      	movs	r1, #4
 80022e2:	438a      	bics	r2, r1
 80022e4:	611a      	str	r2, [r3, #16]
 80022e6:	693b      	ldr	r3, [r7, #16]
 80022e8:	2b00      	cmp	r3, #0
 80022ea:	d009      	beq.n	8002300 <HAL_PWR_EnterSTOPMode+0xa0>
 80022ec:	68fb      	ldr	r3, [r7, #12]
 80022ee:	2b00      	cmp	r3, #0
 80022f0:	d006      	beq.n	8002300 <HAL_PWR_EnterSTOPMode+0xa0>
 80022f2:	4b05      	ldr	r3, [pc, #20]	@ (8002308 <HAL_PWR_EnterSTOPMode+0xa8>)
 80022f4:	681a      	ldr	r2, [r3, #0]
 80022f6:	4b04      	ldr	r3, [pc, #16]	@ (8002308 <HAL_PWR_EnterSTOPMode+0xa8>)
 80022f8:	2180      	movs	r1, #128	@ 0x80
 80022fa:	0089      	lsls	r1, r1, #2
 80022fc:	430a      	orrs	r2, r1
 80022fe:	601a      	str	r2, [r3, #0]
 8002300:	46c0      	nop			@ (mov r8, r8)
 8002302:	46bd      	mov	sp, r7
 8002304:	b006      	add	sp, #24
 8002306:	bd80      	pop	{r7, pc}
 8002308:	40007000 	.word	0x40007000
 800230c:	40010000 	.word	0x40010000
 8002310:	fffffdff 	.word	0xfffffdff
 8002314:	e000ed00 	.word	0xe000ed00

08002318 <HAL_RCC_OscConfig>:
 8002318:	b5b0      	push	{r4, r5, r7, lr}
 800231a:	b08a      	sub	sp, #40	@ 0x28
 800231c:	af00      	add	r7, sp, #0
 800231e:	6078      	str	r0, [r7, #4]
 8002320:	687b      	ldr	r3, [r7, #4]
 8002322:	2b00      	cmp	r3, #0
 8002324:	d102      	bne.n	800232c <HAL_RCC_OscConfig+0x14>
 8002326:	2301      	movs	r3, #1
 8002328:	f000 fbbf 	bl	8002aaa <HAL_RCC_OscConfig+0x792>
 800232c:	4bc9      	ldr	r3, [pc, #804]	@ (8002654 <HAL_RCC_OscConfig+0x33c>)
 800232e:	68db      	ldr	r3, [r3, #12]
 8002330:	220c      	movs	r2, #12
 8002332:	4013      	ands	r3, r2
 8002334:	61fb      	str	r3, [r7, #28]
 8002336:	4bc7      	ldr	r3, [pc, #796]	@ (8002654 <HAL_RCC_OscConfig+0x33c>)
 8002338:	68da      	ldr	r2, [r3, #12]
 800233a:	2380      	movs	r3, #128	@ 0x80
 800233c:	025b      	lsls	r3, r3, #9
 800233e:	4013      	ands	r3, r2
 8002340:	61bb      	str	r3, [r7, #24]
 8002342:	687b      	ldr	r3, [r7, #4]
 8002344:	681b      	ldr	r3, [r3, #0]
 8002346:	2201      	movs	r2, #1
 8002348:	4013      	ands	r3, r2
 800234a:	d100      	bne.n	800234e <HAL_RCC_OscConfig+0x36>
 800234c:	e07e      	b.n	800244c <HAL_RCC_OscConfig+0x134>
 800234e:	69fb      	ldr	r3, [r7, #28]
 8002350:	2b08      	cmp	r3, #8
 8002352:	d007      	beq.n	8002364 <HAL_RCC_OscConfig+0x4c>
 8002354:	69fb      	ldr	r3, [r7, #28]
 8002356:	2b0c      	cmp	r3, #12
 8002358:	d112      	bne.n	8002380 <HAL_RCC_OscConfig+0x68>
 800235a:	69ba      	ldr	r2, [r7, #24]
 800235c:	2380      	movs	r3, #128	@ 0x80
 800235e:	025b      	lsls	r3, r3, #9
 8002360:	429a      	cmp	r2, r3
 8002362:	d10d      	bne.n	8002380 <HAL_RCC_OscConfig+0x68>
 8002364:	4bbb      	ldr	r3, [pc, #748]	@ (8002654 <HAL_RCC_OscConfig+0x33c>)
 8002366:	681a      	ldr	r2, [r3, #0]
 8002368:	2380      	movs	r3, #128	@ 0x80
 800236a:	029b      	lsls	r3, r3, #10
 800236c:	4013      	ands	r3, r2
 800236e:	d100      	bne.n	8002372 <HAL_RCC_OscConfig+0x5a>
 8002370:	e06b      	b.n	800244a <HAL_RCC_OscConfig+0x132>
 8002372:	687b      	ldr	r3, [r7, #4]
 8002374:	685b      	ldr	r3, [r3, #4]
 8002376:	2b00      	cmp	r3, #0
 8002378:	d167      	bne.n	800244a <HAL_RCC_OscConfig+0x132>
 800237a:	2301      	movs	r3, #1
 800237c:	f000 fb95 	bl	8002aaa <HAL_RCC_OscConfig+0x792>
 8002380:	687b      	ldr	r3, [r7, #4]
 8002382:	685a      	ldr	r2, [r3, #4]
 8002384:	2380      	movs	r3, #128	@ 0x80
 8002386:	025b      	lsls	r3, r3, #9
 8002388:	429a      	cmp	r2, r3
 800238a:	d107      	bne.n	800239c <HAL_RCC_OscConfig+0x84>
 800238c:	4bb1      	ldr	r3, [pc, #708]	@ (8002654 <HAL_RCC_OscConfig+0x33c>)
 800238e:	681a      	ldr	r2, [r3, #0]
 8002390:	4bb0      	ldr	r3, [pc, #704]	@ (8002654 <HAL_RCC_OscConfig+0x33c>)
 8002392:	2180      	movs	r1, #128	@ 0x80
 8002394:	0249      	lsls	r1, r1, #9
 8002396:	430a      	orrs	r2, r1
 8002398:	601a      	str	r2, [r3, #0]
 800239a:	e027      	b.n	80023ec <HAL_RCC_OscConfig+0xd4>
 800239c:	687b      	ldr	r3, [r7, #4]
 800239e:	685a      	ldr	r2, [r3, #4]
 80023a0:	23a0      	movs	r3, #160	@ 0xa0
 80023a2:	02db      	lsls	r3, r3, #11
 80023a4:	429a      	cmp	r2, r3
 80023a6:	d10e      	bne.n	80023c6 <HAL_RCC_OscConfig+0xae>
 80023a8:	4baa      	ldr	r3, [pc, #680]	@ (8002654 <HAL_RCC_OscConfig+0x33c>)
 80023aa:	681a      	ldr	r2, [r3, #0]
 80023ac:	4ba9      	ldr	r3, [pc, #676]	@ (8002654 <HAL_RCC_OscConfig+0x33c>)
 80023ae:	2180      	movs	r1, #128	@ 0x80
 80023b0:	02c9      	lsls	r1, r1, #11
 80023b2:	430a      	orrs	r2, r1
 80023b4:	601a      	str	r2, [r3, #0]
 80023b6:	4ba7      	ldr	r3, [pc, #668]	@ (8002654 <HAL_RCC_OscConfig+0x33c>)
 80023b8:	681a      	ldr	r2, [r3, #0]
 80023ba:	4ba6      	ldr	r3, [pc, #664]	@ (8002654 <HAL_RCC_OscConfig+0x33c>)
 80023bc:	2180      	movs	r1, #128	@ 0x80
 80023be:	0249      	lsls	r1, r1, #9
 80023c0:	430a      	orrs	r2, r1
 80023c2:	601a      	str	r2, [r3, #0]
 80023c4:	e012      	b.n	80023ec <HAL_RCC_OscConfig+0xd4>
 80023c6:	4ba3      	ldr	r3, [pc, #652]	@ (8002654 <HAL_RCC_OscConfig+0x33c>)
 80023c8:	681a      	ldr	r2, [r3, #0]
 80023ca:	4ba2      	ldr	r3, [pc, #648]	@ (8002654 <HAL_RCC_OscConfig+0x33c>)
 80023cc:	49a2      	ldr	r1, [pc, #648]	@ (8002658 <HAL_RCC_OscConfig+0x340>)
 80023ce:	400a      	ands	r2, r1
 80023d0:	601a      	str	r2, [r3, #0]
 80023d2:	4ba0      	ldr	r3, [pc, #640]	@ (8002654 <HAL_RCC_OscConfig+0x33c>)
 80023d4:	681a      	ldr	r2, [r3, #0]
 80023d6:	2380      	movs	r3, #128	@ 0x80
 80023d8:	025b      	lsls	r3, r3, #9
 80023da:	4013      	ands	r3, r2
 80023dc:	60fb      	str	r3, [r7, #12]
 80023de:	68fb      	ldr	r3, [r7, #12]
 80023e0:	4b9c      	ldr	r3, [pc, #624]	@ (8002654 <HAL_RCC_OscConfig+0x33c>)
 80023e2:	681a      	ldr	r2, [r3, #0]
 80023e4:	4b9b      	ldr	r3, [pc, #620]	@ (8002654 <HAL_RCC_OscConfig+0x33c>)
 80023e6:	499d      	ldr	r1, [pc, #628]	@ (800265c <HAL_RCC_OscConfig+0x344>)
 80023e8:	400a      	ands	r2, r1
 80023ea:	601a      	str	r2, [r3, #0]
 80023ec:	687b      	ldr	r3, [r7, #4]
 80023ee:	685b      	ldr	r3, [r3, #4]
 80023f0:	2b00      	cmp	r3, #0
 80023f2:	d015      	beq.n	8002420 <HAL_RCC_OscConfig+0x108>
 80023f4:	f7fe ff60 	bl	80012b8 <HAL_GetTick>
 80023f8:	0003      	movs	r3, r0
 80023fa:	617b      	str	r3, [r7, #20]
 80023fc:	e009      	b.n	8002412 <HAL_RCC_OscConfig+0xfa>
 80023fe:	f7fe ff5b 	bl	80012b8 <HAL_GetTick>
 8002402:	0002      	movs	r2, r0
 8002404:	697b      	ldr	r3, [r7, #20]
 8002406:	1ad3      	subs	r3, r2, r3
 8002408:	2b64      	cmp	r3, #100	@ 0x64
 800240a:	d902      	bls.n	8002412 <HAL_RCC_OscConfig+0xfa>
 800240c:	2303      	movs	r3, #3
 800240e:	f000 fb4c 	bl	8002aaa <HAL_RCC_OscConfig+0x792>
 8002412:	4b90      	ldr	r3, [pc, #576]	@ (8002654 <HAL_RCC_OscConfig+0x33c>)
 8002414:	681a      	ldr	r2, [r3, #0]
 8002416:	2380      	movs	r3, #128	@ 0x80
 8002418:	029b      	lsls	r3, r3, #10
 800241a:	4013      	ands	r3, r2
 800241c:	d0ef      	beq.n	80023fe <HAL_RCC_OscConfig+0xe6>
 800241e:	e015      	b.n	800244c <HAL_RCC_OscConfig+0x134>
 8002420:	f7fe ff4a 	bl	80012b8 <HAL_GetTick>
 8002424:	0003      	movs	r3, r0
 8002426:	617b      	str	r3, [r7, #20]
 8002428:	e008      	b.n	800243c <HAL_RCC_OscConfig+0x124>
 800242a:	f7fe ff45 	bl	80012b8 <HAL_GetTick>
 800242e:	0002      	movs	r2, r0
 8002430:	697b      	ldr	r3, [r7, #20]
 8002432:	1ad3      	subs	r3, r2, r3
 8002434:	2b64      	cmp	r3, #100	@ 0x64
 8002436:	d901      	bls.n	800243c <HAL_RCC_OscConfig+0x124>
 8002438:	2303      	movs	r3, #3
 800243a:	e336      	b.n	8002aaa <HAL_RCC_OscConfig+0x792>
 800243c:	4b85      	ldr	r3, [pc, #532]	@ (8002654 <HAL_RCC_OscConfig+0x33c>)
 800243e:	681a      	ldr	r2, [r3, #0]
 8002440:	2380      	movs	r3, #128	@ 0x80
 8002442:	029b      	lsls	r3, r3, #10
 8002444:	4013      	ands	r3, r2
 8002446:	d1f0      	bne.n	800242a <HAL_RCC_OscConfig+0x112>
 8002448:	e000      	b.n	800244c <HAL_RCC_OscConfig+0x134>
 800244a:	46c0      	nop			@ (mov r8, r8)
 800244c:	687b      	ldr	r3, [r7, #4]
 800244e:	681b      	ldr	r3, [r3, #0]
 8002450:	2202      	movs	r2, #2
 8002452:	4013      	ands	r3, r2
 8002454:	d100      	bne.n	8002458 <HAL_RCC_OscConfig+0x140>
 8002456:	e099      	b.n	800258c <HAL_RCC_OscConfig+0x274>
 8002458:	687b      	ldr	r3, [r7, #4]
 800245a:	68db      	ldr	r3, [r3, #12]
 800245c:	627b      	str	r3, [r7, #36]	@ 0x24
 800245e:	6a7b      	ldr	r3, [r7, #36]	@ 0x24
 8002460:	2220      	movs	r2, #32
 8002462:	4013      	ands	r3, r2
 8002464:	d009      	beq.n	800247a <HAL_RCC_OscConfig+0x162>
 8002466:	4b7b      	ldr	r3, [pc, #492]	@ (8002654 <HAL_RCC_OscConfig+0x33c>)
 8002468:	681a      	ldr	r2, [r3, #0]
 800246a:	4b7a      	ldr	r3, [pc, #488]	@ (8002654 <HAL_RCC_OscConfig+0x33c>)
 800246c:	2120      	movs	r1, #32
 800246e:	430a      	orrs	r2, r1
 8002470:	601a      	str	r2, [r3, #0]
 8002472:	6a7b      	ldr	r3, [r7, #36]	@ 0x24
 8002474:	2220      	movs	r2, #32
 8002476:	4393      	bics	r3, r2
 8002478:	627b      	str	r3, [r7, #36]	@ 0x24
 800247a:	69fb      	ldr	r3, [r7, #28]
 800247c:	2b04      	cmp	r3, #4
 800247e:	d005      	beq.n	800248c <HAL_RCC_OscConfig+0x174>
 8002480:	69fb      	ldr	r3, [r7, #28]
 8002482:	2b0c      	cmp	r3, #12
 8002484:	d13e      	bne.n	8002504 <HAL_RCC_OscConfig+0x1ec>
 8002486:	69bb      	ldr	r3, [r7, #24]
 8002488:	2b00      	cmp	r3, #0
 800248a:	d13b      	bne.n	8002504 <HAL_RCC_OscConfig+0x1ec>
 800248c:	4b71      	ldr	r3, [pc, #452]	@ (8002654 <HAL_RCC_OscConfig+0x33c>)
 800248e:	681b      	ldr	r3, [r3, #0]
 8002490:	2204      	movs	r2, #4
 8002492:	4013      	ands	r3, r2
 8002494:	d004      	beq.n	80024a0 <HAL_RCC_OscConfig+0x188>
 8002496:	6a7b      	ldr	r3, [r7, #36]	@ 0x24
 8002498:	2b00      	cmp	r3, #0
 800249a:	d101      	bne.n	80024a0 <HAL_RCC_OscConfig+0x188>
 800249c:	2301      	movs	r3, #1
 800249e:	e304      	b.n	8002aaa <HAL_RCC_OscConfig+0x792>
 80024a0:	4b6c      	ldr	r3, [pc, #432]	@ (8002654 <HAL_RCC_OscConfig+0x33c>)
 80024a2:	685b      	ldr	r3, [r3, #4]
 80024a4:	4a6e      	ldr	r2, [pc, #440]	@ (8002660 <HAL_RCC_OscConfig+0x348>)
 80024a6:	4013      	ands	r3, r2
 80024a8:	0019      	movs	r1, r3
 80024aa:	687b      	ldr	r3, [r7, #4]
 80024ac:	691b      	ldr	r3, [r3, #16]
 80024ae:	021a      	lsls	r2, r3, #8
 80024b0:	4b68      	ldr	r3, [pc, #416]	@ (8002654 <HAL_RCC_OscConfig+0x33c>)
 80024b2:	430a      	orrs	r2, r1
 80024b4:	605a      	str	r2, [r3, #4]
 80024b6:	4b67      	ldr	r3, [pc, #412]	@ (8002654 <HAL_RCC_OscConfig+0x33c>)
 80024b8:	681b      	ldr	r3, [r3, #0]
 80024ba:	2209      	movs	r2, #9
 80024bc:	4393      	bics	r3, r2
 80024be:	0019      	movs	r1, r3
 80024c0:	4b64      	ldr	r3, [pc, #400]	@ (8002654 <HAL_RCC_OscConfig+0x33c>)
 80024c2:	6a7a      	ldr	r2, [r7, #36]	@ 0x24
 80024c4:	430a      	orrs	r2, r1
 80024c6:	601a      	str	r2, [r3, #0]
 80024c8:	f000 fc42 	bl	8002d50 <HAL_RCC_GetSysClockFreq>
 80024cc:	0001      	movs	r1, r0
 80024ce:	4b61      	ldr	r3, [pc, #388]	@ (8002654 <HAL_RCC_OscConfig+0x33c>)
 80024d0:	68db      	ldr	r3, [r3, #12]
 80024d2:	091b      	lsrs	r3, r3, #4
 80024d4:	220f      	movs	r2, #15
 80024d6:	4013      	ands	r3, r2
 80024d8:	4a62      	ldr	r2, [pc, #392]	@ (8002664 <HAL_RCC_OscConfig+0x34c>)
 80024da:	5cd3      	ldrb	r3, [r2, r3]
 80024dc:	000a      	movs	r2, r1
 80024de:	40da      	lsrs	r2, r3
 80024e0:	4b61      	ldr	r3, [pc, #388]	@ (8002668 <HAL_RCC_OscConfig+0x350>)
 80024e2:	601a      	str	r2, [r3, #0]
 80024e4:	4b61      	ldr	r3, [pc, #388]	@ (800266c <HAL_RCC_OscConfig+0x354>)
 80024e6:	681b      	ldr	r3, [r3, #0]
 80024e8:	2513      	movs	r5, #19
 80024ea:	197c      	adds	r4, r7, r5
 80024ec:	0018      	movs	r0, r3
 80024ee:	f7fe fe9d 	bl	800122c <HAL_InitTick>
 80024f2:	0003      	movs	r3, r0
 80024f4:	7023      	strb	r3, [r4, #0]
 80024f6:	197b      	adds	r3, r7, r5
 80024f8:	781b      	ldrb	r3, [r3, #0]
 80024fa:	2b00      	cmp	r3, #0
 80024fc:	d046      	beq.n	800258c <HAL_RCC_OscConfig+0x274>
 80024fe:	197b      	adds	r3, r7, r5
 8002500:	781b      	ldrb	r3, [r3, #0]
 8002502:	e2d2      	b.n	8002aaa <HAL_RCC_OscConfig+0x792>
 8002504:	6a7b      	ldr	r3, [r7, #36]	@ 0x24
 8002506:	2b00      	cmp	r3, #0
 8002508:	d027      	beq.n	800255a <HAL_RCC_OscConfig+0x242>
 800250a:	4b52      	ldr	r3, [pc, #328]	@ (8002654 <HAL_RCC_OscConfig+0x33c>)
 800250c:	681b      	ldr	r3, [r3, #0]
 800250e:	2209      	movs	r2, #9
 8002510:	4393      	bics	r3, r2
 8002512:	0019      	movs	r1, r3
 8002514:	4b4f      	ldr	r3, [pc, #316]	@ (8002654 <HAL_RCC_OscConfig+0x33c>)
 8002516:	6a7a      	ldr	r2, [r7, #36]	@ 0x24
 8002518:	430a      	orrs	r2, r1
 800251a:	601a      	str	r2, [r3, #0]
 800251c:	f7fe fecc 	bl	80012b8 <HAL_GetTick>
 8002520:	0003      	movs	r3, r0
 8002522:	617b      	str	r3, [r7, #20]
 8002524:	e008      	b.n	8002538 <HAL_RCC_OscConfig+0x220>
 8002526:	f7fe fec7 	bl	80012b8 <HAL_GetTick>
 800252a:	0002      	movs	r2, r0
 800252c:	697b      	ldr	r3, [r7, #20]
 800252e:	1ad3      	subs	r3, r2, r3
 8002530:	2b02      	cmp	r3, #2
 8002532:	d901      	bls.n	8002538 <HAL_RCC_OscConfig+0x220>
 8002534:	2303      	movs	r3, #3
 8002536:	e2b8      	b.n	8002aaa <HAL_RCC_OscConfig+0x792>
 8002538:	4b46      	ldr	r3, [pc, #280]	@ (8002654 <HAL_RCC_OscConfig+0x33c>)
 800253a:	681b      	ldr	r3, [r3, #0]
 800253c:	2204      	movs	r2, #4
 800253e:	4013      	ands	r3, r2
 8002540:	d0f1      	beq.n	8002526 <HAL_RCC_OscConfig+0x20e>
 8002542:	4b44      	ldr	r3, [pc, #272]	@ (8002654 <HAL_RCC_OscConfig+0x33c>)
 8002544:	685b      	ldr	r3, [r3, #4]
 8002546:	4a46      	ldr	r2, [pc, #280]	@ (8002660 <HAL_RCC_OscConfig+0x348>)
 8002548:	4013      	ands	r3, r2
 800254a:	0019      	movs	r1, r3
 800254c:	687b      	ldr	r3, [r7, #4]
 800254e:	691b      	ldr	r3, [r3, #16]
 8002550:	021a      	lsls	r2, r3, #8
 8002552:	4b40      	ldr	r3, [pc, #256]	@ (8002654 <HAL_RCC_OscConfig+0x33c>)
 8002554:	430a      	orrs	r2, r1
 8002556:	605a      	str	r2, [r3, #4]
 8002558:	e018      	b.n	800258c <HAL_RCC_OscConfig+0x274>
 800255a:	4b3e      	ldr	r3, [pc, #248]	@ (8002654 <HAL_RCC_OscConfig+0x33c>)
 800255c:	681a      	ldr	r2, [r3, #0]
 800255e:	4b3d      	ldr	r3, [pc, #244]	@ (8002654 <HAL_RCC_OscConfig+0x33c>)
 8002560:	2101      	movs	r1, #1
 8002562:	438a      	bics	r2, r1
 8002564:	601a      	str	r2, [r3, #0]
 8002566:	f7fe fea7 	bl	80012b8 <HAL_GetTick>
 800256a:	0003      	movs	r3, r0
 800256c:	617b      	str	r3, [r7, #20]
 800256e:	e008      	b.n	8002582 <HAL_RCC_OscConfig+0x26a>
 8002570:	f7fe fea2 	bl	80012b8 <HAL_GetTick>
 8002574:	0002      	movs	r2, r0
 8002576:	697b      	ldr	r3, [r7, #20]
 8002578:	1ad3      	subs	r3, r2, r3
 800257a:	2b02      	cmp	r3, #2
 800257c:	d901      	bls.n	8002582 <HAL_RCC_OscConfig+0x26a>
 800257e:	2303      	movs	r3, #3
 8002580:	e293      	b.n	8002aaa <HAL_RCC_OscConfig+0x792>
 8002582:	4b34      	ldr	r3, [pc, #208]	@ (8002654 <HAL_RCC_OscConfig+0x33c>)
 8002584:	681b      	ldr	r3, [r3, #0]
 8002586:	2204      	movs	r2, #4
 8002588:	4013      	ands	r3, r2
 800258a:	d1f1      	bne.n	8002570 <HAL_RCC_OscConfig+0x258>
 800258c:	687b      	ldr	r3, [r7, #4]
 800258e:	681b      	ldr	r3, [r3, #0]
 8002590:	2210      	movs	r2, #16
 8002592:	4013      	ands	r3, r2
 8002594:	d100      	bne.n	8002598 <HAL_RCC_OscConfig+0x280>
 8002596:	e0a2      	b.n	80026de <HAL_RCC_OscConfig+0x3c6>
 8002598:	69fb      	ldr	r3, [r7, #28]
 800259a:	2b00      	cmp	r3, #0
 800259c:	d140      	bne.n	8002620 <HAL_RCC_OscConfig+0x308>
 800259e:	4b2d      	ldr	r3, [pc, #180]	@ (8002654 <HAL_RCC_OscConfig+0x33c>)
 80025a0:	681a      	ldr	r2, [r3, #0]
 80025a2:	2380      	movs	r3, #128	@ 0x80
 80025a4:	009b      	lsls	r3, r3, #2
 80025a6:	4013      	ands	r3, r2
 80025a8:	d005      	beq.n	80025b6 <HAL_RCC_OscConfig+0x29e>
 80025aa:	687b      	ldr	r3, [r7, #4]
 80025ac:	69db      	ldr	r3, [r3, #28]
 80025ae:	2b00      	cmp	r3, #0
 80025b0:	d101      	bne.n	80025b6 <HAL_RCC_OscConfig+0x29e>
 80025b2:	2301      	movs	r3, #1
 80025b4:	e279      	b.n	8002aaa <HAL_RCC_OscConfig+0x792>
 80025b6:	4b27      	ldr	r3, [pc, #156]	@ (8002654 <HAL_RCC_OscConfig+0x33c>)
 80025b8:	685b      	ldr	r3, [r3, #4]
 80025ba:	4a2d      	ldr	r2, [pc, #180]	@ (8002670 <HAL_RCC_OscConfig+0x358>)
 80025bc:	4013      	ands	r3, r2
 80025be:	0019      	movs	r1, r3
 80025c0:	687b      	ldr	r3, [r7, #4]
 80025c2:	6a5a      	ldr	r2, [r3, #36]	@ 0x24
 80025c4:	4b23      	ldr	r3, [pc, #140]	@ (8002654 <HAL_RCC_OscConfig+0x33c>)
 80025c6:	430a      	orrs	r2, r1
 80025c8:	605a      	str	r2, [r3, #4]
 80025ca:	4b22      	ldr	r3, [pc, #136]	@ (8002654 <HAL_RCC_OscConfig+0x33c>)
 80025cc:	685b      	ldr	r3, [r3, #4]
 80025ce:	021b      	lsls	r3, r3, #8
 80025d0:	0a19      	lsrs	r1, r3, #8
 80025d2:	687b      	ldr	r3, [r7, #4]
 80025d4:	6a1b      	ldr	r3, [r3, #32]
 80025d6:	061a      	lsls	r2, r3, #24
 80025d8:	4b1e      	ldr	r3, [pc, #120]	@ (8002654 <HAL_RCC_OscConfig+0x33c>)
 80025da:	430a      	orrs	r2, r1
 80025dc:	605a      	str	r2, [r3, #4]
 80025de:	687b      	ldr	r3, [r7, #4]
 80025e0:	6a5b      	ldr	r3, [r3, #36]	@ 0x24
 80025e2:	0b5b      	lsrs	r3, r3, #13
 80025e4:	3301      	adds	r3, #1
 80025e6:	2280      	movs	r2, #128	@ 0x80
 80025e8:	0212      	lsls	r2, r2, #8
 80025ea:	409a      	lsls	r2, r3
 80025ec:	4b19      	ldr	r3, [pc, #100]	@ (8002654 <HAL_RCC_OscConfig+0x33c>)
 80025ee:	68db      	ldr	r3, [r3, #12]
 80025f0:	091b      	lsrs	r3, r3, #4
 80025f2:	210f      	movs	r1, #15
 80025f4:	400b      	ands	r3, r1
 80025f6:	491b      	ldr	r1, [pc, #108]	@ (8002664 <HAL_RCC_OscConfig+0x34c>)
 80025f8:	5ccb      	ldrb	r3, [r1, r3]
 80025fa:	40da      	lsrs	r2, r3
 80025fc:	4b1a      	ldr	r3, [pc, #104]	@ (8002668 <HAL_RCC_OscConfig+0x350>)
 80025fe:	601a      	str	r2, [r3, #0]
 8002600:	4b1a      	ldr	r3, [pc, #104]	@ (800266c <HAL_RCC_OscConfig+0x354>)
 8002602:	681b      	ldr	r3, [r3, #0]
 8002604:	2513      	movs	r5, #19
 8002606:	197c      	adds	r4, r7, r5
 8002608:	0018      	movs	r0, r3
 800260a:	f7fe fe0f 	bl	800122c <HAL_InitTick>
 800260e:	0003      	movs	r3, r0
 8002610:	7023      	strb	r3, [r4, #0]
 8002612:	197b      	adds	r3, r7, r5
 8002614:	781b      	ldrb	r3, [r3, #0]
 8002616:	2b00      	cmp	r3, #0
 8002618:	d061      	beq.n	80026de <HAL_RCC_OscConfig+0x3c6>
 800261a:	197b      	adds	r3, r7, r5
 800261c:	781b      	ldrb	r3, [r3, #0]
 800261e:	e244      	b.n	8002aaa <HAL_RCC_OscConfig+0x792>
 8002620:	687b      	ldr	r3, [r7, #4]
 8002622:	69db      	ldr	r3, [r3, #28]
 8002624:	2b00      	cmp	r3, #0
 8002626:	d040      	beq.n	80026aa <HAL_RCC_OscConfig+0x392>
 8002628:	4b0a      	ldr	r3, [pc, #40]	@ (8002654 <HAL_RCC_OscConfig+0x33c>)
 800262a:	681a      	ldr	r2, [r3, #0]
 800262c:	4b09      	ldr	r3, [pc, #36]	@ (8002654 <HAL_RCC_OscConfig+0x33c>)
 800262e:	2180      	movs	r1, #128	@ 0x80
 8002630:	0049      	lsls	r1, r1, #1
 8002632:	430a      	orrs	r2, r1
 8002634:	601a      	str	r2, [r3, #0]
 8002636:	f7fe fe3f 	bl	80012b8 <HAL_GetTick>
 800263a:	0003      	movs	r3, r0
 800263c:	617b      	str	r3, [r7, #20]
 800263e:	e019      	b.n	8002674 <HAL_RCC_OscConfig+0x35c>
 8002640:	f7fe fe3a 	bl	80012b8 <HAL_GetTick>
 8002644:	0002      	movs	r2, r0
 8002646:	697b      	ldr	r3, [r7, #20]
 8002648:	1ad3      	subs	r3, r2, r3
 800264a:	2b02      	cmp	r3, #2
 800264c:	d912      	bls.n	8002674 <HAL_RCC_OscConfig+0x35c>
 800264e:	2303      	movs	r3, #3
 8002650:	e22b      	b.n	8002aaa <HAL_RCC_OscConfig+0x792>
 8002652:	46c0      	nop			@ (mov r8, r8)
 8002654:	40021000 	.word	0x40021000
 8002658:	fffeffff 	.word	0xfffeffff
 800265c:	fffbffff 	.word	0xfffbffff
 8002660:	ffffe0ff 	.word	0xffffe0ff
 8002664:	080065c8 	.word	0x080065c8
 8002668:	20000004 	.word	0x20000004
 800266c:	20000008 	.word	0x20000008
 8002670:	ffff1fff 	.word	0xffff1fff
 8002674:	4bca      	ldr	r3, [pc, #808]	@ (80029a0 <HAL_RCC_OscConfig+0x688>)
 8002676:	681a      	ldr	r2, [r3, #0]
 8002678:	2380      	movs	r3, #128	@ 0x80
 800267a:	009b      	lsls	r3, r3, #2
 800267c:	4013      	ands	r3, r2
 800267e:	d0df      	beq.n	8002640 <HAL_RCC_OscConfig+0x328>
 8002680:	4bc7      	ldr	r3, [pc, #796]	@ (80029a0 <HAL_RCC_OscConfig+0x688>)
 8002682:	685b      	ldr	r3, [r3, #4]
 8002684:	4ac7      	ldr	r2, [pc, #796]	@ (80029a4 <HAL_RCC_OscConfig+0x68c>)
 8002686:	4013      	ands	r3, r2
 8002688:	0019      	movs	r1, r3
 800268a:	687b      	ldr	r3, [r7, #4]
 800268c:	6a5a      	ldr	r2, [r3, #36]	@ 0x24
 800268e:	4bc4      	ldr	r3, [pc, #784]	@ (80029a0 <HAL_RCC_OscConfig+0x688>)
 8002690:	430a      	orrs	r2, r1
 8002692:	605a      	str	r2, [r3, #4]
 8002694:	4bc2      	ldr	r3, [pc, #776]	@ (80029a0 <HAL_RCC_OscConfig+0x688>)
 8002696:	685b      	ldr	r3, [r3, #4]
 8002698:	021b      	lsls	r3, r3, #8
 800269a:	0a19      	lsrs	r1, r3, #8
 800269c:	687b      	ldr	r3, [r7, #4]
 800269e:	6a1b      	ldr	r3, [r3, #32]
 80026a0:	061a      	lsls	r2, r3, #24
 80026a2:	4bbf      	ldr	r3, [pc, #764]	@ (80029a0 <HAL_RCC_OscConfig+0x688>)
 80026a4:	430a      	orrs	r2, r1
 80026a6:	605a      	str	r2, [r3, #4]
 80026a8:	e019      	b.n	80026de <HAL_RCC_OscConfig+0x3c6>
 80026aa:	4bbd      	ldr	r3, [pc, #756]	@ (80029a0 <HAL_RCC_OscConfig+0x688>)
 80026ac:	681a      	ldr	r2, [r3, #0]
 80026ae:	4bbc      	ldr	r3, [pc, #752]	@ (80029a0 <HAL_RCC_OscConfig+0x688>)
 80026b0:	49bd      	ldr	r1, [pc, #756]	@ (80029a8 <HAL_RCC_OscConfig+0x690>)
 80026b2:	400a      	ands	r2, r1
 80026b4:	601a      	str	r2, [r3, #0]
 80026b6:	f7fe fdff 	bl	80012b8 <HAL_GetTick>
 80026ba:	0003      	movs	r3, r0
 80026bc:	617b      	str	r3, [r7, #20]
 80026be:	e008      	b.n	80026d2 <HAL_RCC_OscConfig+0x3ba>
 80026c0:	f7fe fdfa 	bl	80012b8 <HAL_GetTick>
 80026c4:	0002      	movs	r2, r0
 80026c6:	697b      	ldr	r3, [r7, #20]
 80026c8:	1ad3      	subs	r3, r2, r3
 80026ca:	2b02      	cmp	r3, #2
 80026cc:	d901      	bls.n	80026d2 <HAL_RCC_OscConfig+0x3ba>
 80026ce:	2303      	movs	r3, #3
 80026d0:	e1eb      	b.n	8002aaa <HAL_RCC_OscConfig+0x792>
 80026d2:	4bb3      	ldr	r3, [pc, #716]	@ (80029a0 <HAL_RCC_OscConfig+0x688>)
 80026d4:	681a      	ldr	r2, [r3, #0]
 80026d6:	2380      	movs	r3, #128	@ 0x80
 80026d8:	009b      	lsls	r3, r3, #2
 80026da:	4013      	ands	r3, r2
 80026dc:	d1f0      	bne.n	80026c0 <HAL_RCC_OscConfig+0x3a8>
 80026de:	687b      	ldr	r3, [r7, #4]
 80026e0:	681b      	ldr	r3, [r3, #0]
 80026e2:	2208      	movs	r2, #8
 80026e4:	4013      	ands	r3, r2
 80026e6:	d036      	beq.n	8002756 <HAL_RCC_OscConfig+0x43e>
 80026e8:	687b      	ldr	r3, [r7, #4]
 80026ea:	695b      	ldr	r3, [r3, #20]
 80026ec:	2b00      	cmp	r3, #0
 80026ee:	d019      	beq.n	8002724 <HAL_RCC_OscConfig+0x40c>
 80026f0:	4bab      	ldr	r3, [pc, #684]	@ (80029a0 <HAL_RCC_OscConfig+0x688>)
 80026f2:	6d1a      	ldr	r2, [r3, #80]	@ 0x50
 80026f4:	4baa      	ldr	r3, [pc, #680]	@ (80029a0 <HAL_RCC_OscConfig+0x688>)
 80026f6:	2101      	movs	r1, #1
 80026f8:	430a      	orrs	r2, r1
 80026fa:	651a      	str	r2, [r3, #80]	@ 0x50
 80026fc:	f7fe fddc 	bl	80012b8 <HAL_GetTick>
 8002700:	0003      	movs	r3, r0
 8002702:	617b      	str	r3, [r7, #20]
 8002704:	e008      	b.n	8002718 <HAL_RCC_OscConfig+0x400>
 8002706:	f7fe fdd7 	bl	80012b8 <HAL_GetTick>
 800270a:	0002      	movs	r2, r0
 800270c:	697b      	ldr	r3, [r7, #20]
 800270e:	1ad3      	subs	r3, r2, r3
 8002710:	2b02      	cmp	r3, #2
 8002712:	d901      	bls.n	8002718 <HAL_RCC_OscConfig+0x400>
 8002714:	2303      	movs	r3, #3
 8002716:	e1c8      	b.n	8002aaa <HAL_RCC_OscConfig+0x792>
 8002718:	4ba1      	ldr	r3, [pc, #644]	@ (80029a0 <HAL_RCC_OscConfig+0x688>)
 800271a:	6d1b      	ldr	r3, [r3, #80]	@ 0x50
 800271c:	2202      	movs	r2, #2
 800271e:	4013      	ands	r3, r2
 8002720:	d0f1      	beq.n	8002706 <HAL_RCC_OscConfig+0x3ee>
 8002722:	e018      	b.n	8002756 <HAL_RCC_OscConfig+0x43e>
 8002724:	4b9e      	ldr	r3, [pc, #632]	@ (80029a0 <HAL_RCC_OscConfig+0x688>)
 8002726:	6d1a      	ldr	r2, [r3, #80]	@ 0x50
 8002728:	4b9d      	ldr	r3, [pc, #628]	@ (80029a0 <HAL_RCC_OscConfig+0x688>)
 800272a:	2101      	movs	r1, #1
 800272c:	438a      	bics	r2, r1
 800272e:	651a      	str	r2, [r3, #80]	@ 0x50
 8002730:	f7fe fdc2 	bl	80012b8 <HAL_GetTick>
 8002734:	0003      	movs	r3, r0
 8002736:	617b      	str	r3, [r7, #20]
 8002738:	e008      	b.n	800274c <HAL_RCC_OscConfig+0x434>
 800273a:	f7fe fdbd 	bl	80012b8 <HAL_GetTick>
 800273e:	0002      	movs	r2, r0
 8002740:	697b      	ldr	r3, [r7, #20]
 8002742:	1ad3      	subs	r3, r2, r3
 8002744:	2b02      	cmp	r3, #2
 8002746:	d901      	bls.n	800274c <HAL_RCC_OscConfig+0x434>
 8002748:	2303      	movs	r3, #3
 800274a:	e1ae      	b.n	8002aaa <HAL_RCC_OscConfig+0x792>
 800274c:	4b94      	ldr	r3, [pc, #592]	@ (80029a0 <HAL_RCC_OscConfig+0x688>)
 800274e:	6d1b      	ldr	r3, [r3, #80]	@ 0x50
 8002750:	2202      	movs	r2, #2
 8002752:	4013      	ands	r3, r2
 8002754:	d1f1      	bne.n	800273a <HAL_RCC_OscConfig+0x422>
 8002756:	687b      	ldr	r3, [r7, #4]
 8002758:	681b      	ldr	r3, [r3, #0]
 800275a:	2204      	movs	r2, #4
 800275c:	4013      	ands	r3, r2
 800275e:	d100      	bne.n	8002762 <HAL_RCC_OscConfig+0x44a>
 8002760:	e0ae      	b.n	80028c0 <HAL_RCC_OscConfig+0x5a8>
 8002762:	2023      	movs	r0, #35	@ 0x23
 8002764:	183b      	adds	r3, r7, r0
 8002766:	2200      	movs	r2, #0
 8002768:	701a      	strb	r2, [r3, #0]
 800276a:	4b8d      	ldr	r3, [pc, #564]	@ (80029a0 <HAL_RCC_OscConfig+0x688>)
 800276c:	6b9a      	ldr	r2, [r3, #56]	@ 0x38
 800276e:	2380      	movs	r3, #128	@ 0x80
 8002770:	055b      	lsls	r3, r3, #21
 8002772:	4013      	ands	r3, r2
 8002774:	d109      	bne.n	800278a <HAL_RCC_OscConfig+0x472>
 8002776:	4b8a      	ldr	r3, [pc, #552]	@ (80029a0 <HAL_RCC_OscConfig+0x688>)
 8002778:	6b9a      	ldr	r2, [r3, #56]	@ 0x38
 800277a:	4b89      	ldr	r3, [pc, #548]	@ (80029a0 <HAL_RCC_OscConfig+0x688>)
 800277c:	2180      	movs	r1, #128	@ 0x80
 800277e:	0549      	lsls	r1, r1, #21
 8002780:	430a      	orrs	r2, r1
 8002782:	639a      	str	r2, [r3, #56]	@ 0x38
 8002784:	183b      	adds	r3, r7, r0
 8002786:	2201      	movs	r2, #1
 8002788:	701a      	strb	r2, [r3, #0]
 800278a:	4b88      	ldr	r3, [pc, #544]	@ (80029ac <HAL_RCC_OscConfig+0x694>)
 800278c:	681a      	ldr	r2, [r3, #0]
 800278e:	2380      	movs	r3, #128	@ 0x80
 8002790:	005b      	lsls	r3, r3, #1
 8002792:	4013      	ands	r3, r2
 8002794:	d11a      	bne.n	80027cc <HAL_RCC_OscConfig+0x4b4>
 8002796:	4b85      	ldr	r3, [pc, #532]	@ (80029ac <HAL_RCC_OscConfig+0x694>)
 8002798:	681a      	ldr	r2, [r3, #0]
 800279a:	4b84      	ldr	r3, [pc, #528]	@ (80029ac <HAL_RCC_OscConfig+0x694>)
 800279c:	2180      	movs	r1, #128	@ 0x80
 800279e:	0049      	lsls	r1, r1, #1
 80027a0:	430a      	orrs	r2, r1
 80027a2:	601a      	str	r2, [r3, #0]
 80027a4:	f7fe fd88 	bl	80012b8 <HAL_GetTick>
 80027a8:	0003      	movs	r3, r0
 80027aa:	617b      	str	r3, [r7, #20]
 80027ac:	e008      	b.n	80027c0 <HAL_RCC_OscConfig+0x4a8>
 80027ae:	f7fe fd83 	bl	80012b8 <HAL_GetTick>
 80027b2:	0002      	movs	r2, r0
 80027b4:	697b      	ldr	r3, [r7, #20]
 80027b6:	1ad3      	subs	r3, r2, r3
 80027b8:	2b64      	cmp	r3, #100	@ 0x64
 80027ba:	d901      	bls.n	80027c0 <HAL_RCC_OscConfig+0x4a8>
 80027bc:	2303      	movs	r3, #3
 80027be:	e174      	b.n	8002aaa <HAL_RCC_OscConfig+0x792>
 80027c0:	4b7a      	ldr	r3, [pc, #488]	@ (80029ac <HAL_RCC_OscConfig+0x694>)
 80027c2:	681a      	ldr	r2, [r3, #0]
 80027c4:	2380      	movs	r3, #128	@ 0x80
 80027c6:	005b      	lsls	r3, r3, #1
 80027c8:	4013      	ands	r3, r2
 80027ca:	d0f0      	beq.n	80027ae <HAL_RCC_OscConfig+0x496>
 80027cc:	687b      	ldr	r3, [r7, #4]
 80027ce:	689a      	ldr	r2, [r3, #8]
 80027d0:	2380      	movs	r3, #128	@ 0x80
 80027d2:	005b      	lsls	r3, r3, #1
 80027d4:	429a      	cmp	r2, r3
 80027d6:	d107      	bne.n	80027e8 <HAL_RCC_OscConfig+0x4d0>
 80027d8:	4b71      	ldr	r3, [pc, #452]	@ (80029a0 <HAL_RCC_OscConfig+0x688>)
 80027da:	6d1a      	ldr	r2, [r3, #80]	@ 0x50
 80027dc:	4b70      	ldr	r3, [pc, #448]	@ (80029a0 <HAL_RCC_OscConfig+0x688>)
 80027de:	2180      	movs	r1, #128	@ 0x80
 80027e0:	0049      	lsls	r1, r1, #1
 80027e2:	430a      	orrs	r2, r1
 80027e4:	651a      	str	r2, [r3, #80]	@ 0x50
 80027e6:	e031      	b.n	800284c <HAL_RCC_OscConfig+0x534>
 80027e8:	687b      	ldr	r3, [r7, #4]
 80027ea:	689b      	ldr	r3, [r3, #8]
 80027ec:	2b00      	cmp	r3, #0
 80027ee:	d10c      	bne.n	800280a <HAL_RCC_OscConfig+0x4f2>
 80027f0:	4b6b      	ldr	r3, [pc, #428]	@ (80029a0 <HAL_RCC_OscConfig+0x688>)
 80027f2:	6d1a      	ldr	r2, [r3, #80]	@ 0x50
 80027f4:	4b6a      	ldr	r3, [pc, #424]	@ (80029a0 <HAL_RCC_OscConfig+0x688>)
 80027f6:	496c      	ldr	r1, [pc, #432]	@ (80029a8 <HAL_RCC_OscConfig+0x690>)
 80027f8:	400a      	ands	r2, r1
 80027fa:	651a      	str	r2, [r3, #80]	@ 0x50
 80027fc:	4b68      	ldr	r3, [pc, #416]	@ (80029a0 <HAL_RCC_OscConfig+0x688>)
 80027fe:	6d1a      	ldr	r2, [r3, #80]	@ 0x50
 8002800:	4b67      	ldr	r3, [pc, #412]	@ (80029a0 <HAL_RCC_OscConfig+0x688>)
 8002802:	496b      	ldr	r1, [pc, #428]	@ (80029b0 <HAL_RCC_OscConfig+0x698>)
 8002804:	400a      	ands	r2, r1
 8002806:	651a      	str	r2, [r3, #80]	@ 0x50
 8002808:	e020      	b.n	800284c <HAL_RCC_OscConfig+0x534>
 800280a:	687b      	ldr	r3, [r7, #4]
 800280c:	689a      	ldr	r2, [r3, #8]
 800280e:	23a0      	movs	r3, #160	@ 0xa0
 8002810:	00db      	lsls	r3, r3, #3
 8002812:	429a      	cmp	r2, r3
 8002814:	d10e      	bne.n	8002834 <HAL_RCC_OscConfig+0x51c>
 8002816:	4b62      	ldr	r3, [pc, #392]	@ (80029a0 <HAL_RCC_OscConfig+0x688>)
 8002818:	6d1a      	ldr	r2, [r3, #80]	@ 0x50
 800281a:	4b61      	ldr	r3, [pc, #388]	@ (80029a0 <HAL_RCC_OscConfig+0x688>)
 800281c:	2180      	movs	r1, #128	@ 0x80
 800281e:	00c9      	lsls	r1, r1, #3
 8002820:	430a      	orrs	r2, r1
 8002822:	651a      	str	r2, [r3, #80]	@ 0x50
 8002824:	4b5e      	ldr	r3, [pc, #376]	@ (80029a0 <HAL_RCC_OscConfig+0x688>)
 8002826:	6d1a      	ldr	r2, [r3, #80]	@ 0x50
 8002828:	4b5d      	ldr	r3, [pc, #372]	@ (80029a0 <HAL_RCC_OscConfig+0x688>)
 800282a:	2180      	movs	r1, #128	@ 0x80
 800282c:	0049      	lsls	r1, r1, #1
 800282e:	430a      	orrs	r2, r1
 8002830:	651a      	str	r2, [r3, #80]	@ 0x50
 8002832:	e00b      	b.n	800284c <HAL_RCC_OscConfig+0x534>
 8002834:	4b5a      	ldr	r3, [pc, #360]	@ (80029a0 <HAL_RCC_OscConfig+0x688>)
 8002836:	6d1a      	ldr	r2, [r3, #80]	@ 0x50
 8002838:	4b59      	ldr	r3, [pc, #356]	@ (80029a0 <HAL_RCC_OscConfig+0x688>)
 800283a:	495b      	ldr	r1, [pc, #364]	@ (80029a8 <HAL_RCC_OscConfig+0x690>)
 800283c:	400a      	ands	r2, r1
 800283e:	651a      	str	r2, [r3, #80]	@ 0x50
 8002840:	4b57      	ldr	r3, [pc, #348]	@ (80029a0 <HAL_RCC_OscConfig+0x688>)
 8002842:	6d1a      	ldr	r2, [r3, #80]	@ 0x50
 8002844:	4b56      	ldr	r3, [pc, #344]	@ (80029a0 <HAL_RCC_OscConfig+0x688>)
 8002846:	495a      	ldr	r1, [pc, #360]	@ (80029b0 <HAL_RCC_OscConfig+0x698>)
 8002848:	400a      	ands	r2, r1
 800284a:	651a      	str	r2, [r3, #80]	@ 0x50
 800284c:	687b      	ldr	r3, [r7, #4]
 800284e:	689b      	ldr	r3, [r3, #8]
 8002850:	2b00      	cmp	r3, #0
 8002852:	d015      	beq.n	8002880 <HAL_RCC_OscConfig+0x568>
 8002854:	f7fe fd30 	bl	80012b8 <HAL_GetTick>
 8002858:	0003      	movs	r3, r0
 800285a:	617b      	str	r3, [r7, #20]
 800285c:	e009      	b.n	8002872 <HAL_RCC_OscConfig+0x55a>
 800285e:	f7fe fd2b 	bl	80012b8 <HAL_GetTick>
 8002862:	0002      	movs	r2, r0
 8002864:	697b      	ldr	r3, [r7, #20]
 8002866:	1ad3      	subs	r3, r2, r3
 8002868:	4a52      	ldr	r2, [pc, #328]	@ (80029b4 <HAL_RCC_OscConfig+0x69c>)
 800286a:	4293      	cmp	r3, r2
 800286c:	d901      	bls.n	8002872 <HAL_RCC_OscConfig+0x55a>
 800286e:	2303      	movs	r3, #3
 8002870:	e11b      	b.n	8002aaa <HAL_RCC_OscConfig+0x792>
 8002872:	4b4b      	ldr	r3, [pc, #300]	@ (80029a0 <HAL_RCC_OscConfig+0x688>)
 8002874:	6d1a      	ldr	r2, [r3, #80]	@ 0x50
 8002876:	2380      	movs	r3, #128	@ 0x80
 8002878:	009b      	lsls	r3, r3, #2
 800287a:	4013      	ands	r3, r2
 800287c:	d0ef      	beq.n	800285e <HAL_RCC_OscConfig+0x546>
 800287e:	e014      	b.n	80028aa <HAL_RCC_OscConfig+0x592>
 8002880:	f7fe fd1a 	bl	80012b8 <HAL_GetTick>
 8002884:	0003      	movs	r3, r0
 8002886:	617b      	str	r3, [r7, #20]
 8002888:	e009      	b.n	800289e <HAL_RCC_OscConfig+0x586>
 800288a:	f7fe fd15 	bl	80012b8 <HAL_GetTick>
 800288e:	0002      	movs	r2, r0
 8002890:	697b      	ldr	r3, [r7, #20]
 8002892:	1ad3      	subs	r3, r2, r3
 8002894:	4a47      	ldr	r2, [pc, #284]	@ (80029b4 <HAL_RCC_OscConfig+0x69c>)
 8002896:	4293      	cmp	r3, r2
 8002898:	d901      	bls.n	800289e <HAL_RCC_OscConfig+0x586>
 800289a:	2303      	movs	r3, #3
 800289c:	e105      	b.n	8002aaa <HAL_RCC_OscConfig+0x792>
 800289e:	4b40      	ldr	r3, [pc, #256]	@ (80029a0 <HAL_RCC_OscConfig+0x688>)
 80028a0:	6d1a      	ldr	r2, [r3, #80]	@ 0x50
 80028a2:	2380      	movs	r3, #128	@ 0x80
 80028a4:	009b      	lsls	r3, r3, #2
 80028a6:	4013      	ands	r3, r2
 80028a8:	d1ef      	bne.n	800288a <HAL_RCC_OscConfig+0x572>
 80028aa:	2323      	movs	r3, #35	@ 0x23
 80028ac:	18fb      	adds	r3, r7, r3
 80028ae:	781b      	ldrb	r3, [r3, #0]
 80028b0:	2b01      	cmp	r3, #1
 80028b2:	d105      	bne.n	80028c0 <HAL_RCC_OscConfig+0x5a8>
 80028b4:	4b3a      	ldr	r3, [pc, #232]	@ (80029a0 <HAL_RCC_OscConfig+0x688>)
 80028b6:	6b9a      	ldr	r2, [r3, #56]	@ 0x38
 80028b8:	4b39      	ldr	r3, [pc, #228]	@ (80029a0 <HAL_RCC_OscConfig+0x688>)
 80028ba:	493f      	ldr	r1, [pc, #252]	@ (80029b8 <HAL_RCC_OscConfig+0x6a0>)
 80028bc:	400a      	ands	r2, r1
 80028be:	639a      	str	r2, [r3, #56]	@ 0x38
 80028c0:	687b      	ldr	r3, [r7, #4]
 80028c2:	681b      	ldr	r3, [r3, #0]
 80028c4:	2220      	movs	r2, #32
 80028c6:	4013      	ands	r3, r2
 80028c8:	d049      	beq.n	800295e <HAL_RCC_OscConfig+0x646>
 80028ca:	687b      	ldr	r3, [r7, #4]
 80028cc:	699b      	ldr	r3, [r3, #24]
 80028ce:	2b00      	cmp	r3, #0
 80028d0:	d026      	beq.n	8002920 <HAL_RCC_OscConfig+0x608>
 80028d2:	4b33      	ldr	r3, [pc, #204]	@ (80029a0 <HAL_RCC_OscConfig+0x688>)
 80028d4:	689a      	ldr	r2, [r3, #8]
 80028d6:	4b32      	ldr	r3, [pc, #200]	@ (80029a0 <HAL_RCC_OscConfig+0x688>)
 80028d8:	2101      	movs	r1, #1
 80028da:	430a      	orrs	r2, r1
 80028dc:	609a      	str	r2, [r3, #8]
 80028de:	4b30      	ldr	r3, [pc, #192]	@ (80029a0 <HAL_RCC_OscConfig+0x688>)
 80028e0:	6b5a      	ldr	r2, [r3, #52]	@ 0x34
 80028e2:	4b2f      	ldr	r3, [pc, #188]	@ (80029a0 <HAL_RCC_OscConfig+0x688>)
 80028e4:	2101      	movs	r1, #1
 80028e6:	430a      	orrs	r2, r1
 80028e8:	635a      	str	r2, [r3, #52]	@ 0x34
 80028ea:	4b34      	ldr	r3, [pc, #208]	@ (80029bc <HAL_RCC_OscConfig+0x6a4>)
 80028ec:	6a1a      	ldr	r2, [r3, #32]
 80028ee:	4b33      	ldr	r3, [pc, #204]	@ (80029bc <HAL_RCC_OscConfig+0x6a4>)
 80028f0:	2180      	movs	r1, #128	@ 0x80
 80028f2:	0189      	lsls	r1, r1, #6
 80028f4:	430a      	orrs	r2, r1
 80028f6:	621a      	str	r2, [r3, #32]
 80028f8:	f7fe fcde 	bl	80012b8 <HAL_GetTick>
 80028fc:	0003      	movs	r3, r0
 80028fe:	617b      	str	r3, [r7, #20]
 8002900:	e008      	b.n	8002914 <HAL_RCC_OscConfig+0x5fc>
 8002902:	f7fe fcd9 	bl	80012b8 <HAL_GetTick>
 8002906:	0002      	movs	r2, r0
 8002908:	697b      	ldr	r3, [r7, #20]
 800290a:	1ad3      	subs	r3, r2, r3
 800290c:	2b02      	cmp	r3, #2
 800290e:	d901      	bls.n	8002914 <HAL_RCC_OscConfig+0x5fc>
 8002910:	2303      	movs	r3, #3
 8002912:	e0ca      	b.n	8002aaa <HAL_RCC_OscConfig+0x792>
 8002914:	4b22      	ldr	r3, [pc, #136]	@ (80029a0 <HAL_RCC_OscConfig+0x688>)
 8002916:	689b      	ldr	r3, [r3, #8]
 8002918:	2202      	movs	r2, #2
 800291a:	4013      	ands	r3, r2
 800291c:	d0f1      	beq.n	8002902 <HAL_RCC_OscConfig+0x5ea>
 800291e:	e01e      	b.n	800295e <HAL_RCC_OscConfig+0x646>
 8002920:	4b1f      	ldr	r3, [pc, #124]	@ (80029a0 <HAL_RCC_OscConfig+0x688>)
 8002922:	689a      	ldr	r2, [r3, #8]
 8002924:	4b1e      	ldr	r3, [pc, #120]	@ (80029a0 <HAL_RCC_OscConfig+0x688>)
 8002926:	2101      	movs	r1, #1
 8002928:	438a      	bics	r2, r1
 800292a:	609a      	str	r2, [r3, #8]
 800292c:	4b23      	ldr	r3, [pc, #140]	@ (80029bc <HAL_RCC_OscConfig+0x6a4>)
 800292e:	6a1a      	ldr	r2, [r3, #32]
 8002930:	4b22      	ldr	r3, [pc, #136]	@ (80029bc <HAL_RCC_OscConfig+0x6a4>)
 8002932:	4923      	ldr	r1, [pc, #140]	@ (80029c0 <HAL_RCC_OscConfig+0x6a8>)
 8002934:	400a      	ands	r2, r1
 8002936:	621a      	str	r2, [r3, #32]
 8002938:	f7fe fcbe 	bl	80012b8 <HAL_GetTick>
 800293c:	0003      	movs	r3, r0
 800293e:	617b      	str	r3, [r7, #20]
 8002940:	e008      	b.n	8002954 <HAL_RCC_OscConfig+0x63c>
 8002942:	f7fe fcb9 	bl	80012b8 <HAL_GetTick>
 8002946:	0002      	movs	r2, r0
 8002948:	697b      	ldr	r3, [r7, #20]
 800294a:	1ad3      	subs	r3, r2, r3
 800294c:	2b02      	cmp	r3, #2
 800294e:	d901      	bls.n	8002954 <HAL_RCC_OscConfig+0x63c>
 8002950:	2303      	movs	r3, #3
 8002952:	e0aa      	b.n	8002aaa <HAL_RCC_OscConfig+0x792>
 8002954:	4b12      	ldr	r3, [pc, #72]	@ (80029a0 <HAL_RCC_OscConfig+0x688>)
 8002956:	689b      	ldr	r3, [r3, #8]
 8002958:	2202      	movs	r2, #2
 800295a:	4013      	ands	r3, r2
 800295c:	d1f1      	bne.n	8002942 <HAL_RCC_OscConfig+0x62a>
 800295e:	687b      	ldr	r3, [r7, #4]
 8002960:	6a9b      	ldr	r3, [r3, #40]	@ 0x28
 8002962:	2b00      	cmp	r3, #0
 8002964:	d100      	bne.n	8002968 <HAL_RCC_OscConfig+0x650>
 8002966:	e09f      	b.n	8002aa8 <HAL_RCC_OscConfig+0x790>
 8002968:	69fb      	ldr	r3, [r7, #28]
 800296a:	2b0c      	cmp	r3, #12
 800296c:	d100      	bne.n	8002970 <HAL_RCC_OscConfig+0x658>
 800296e:	e078      	b.n	8002a62 <HAL_RCC_OscConfig+0x74a>
 8002970:	687b      	ldr	r3, [r7, #4]
 8002972:	6a9b      	ldr	r3, [r3, #40]	@ 0x28
 8002974:	2b02      	cmp	r3, #2
 8002976:	d159      	bne.n	8002a2c <HAL_RCC_OscConfig+0x714>
 8002978:	4b09      	ldr	r3, [pc, #36]	@ (80029a0 <HAL_RCC_OscConfig+0x688>)
 800297a:	681a      	ldr	r2, [r3, #0]
 800297c:	4b08      	ldr	r3, [pc, #32]	@ (80029a0 <HAL_RCC_OscConfig+0x688>)
 800297e:	4911      	ldr	r1, [pc, #68]	@ (80029c4 <HAL_RCC_OscConfig+0x6ac>)
 8002980:	400a      	ands	r2, r1
 8002982:	601a      	str	r2, [r3, #0]
 8002984:	f7fe fc98 	bl	80012b8 <HAL_GetTick>
 8002988:	0003      	movs	r3, r0
 800298a:	617b      	str	r3, [r7, #20]
 800298c:	e01c      	b.n	80029c8 <HAL_RCC_OscConfig+0x6b0>
 800298e:	f7fe fc93 	bl	80012b8 <HAL_GetTick>
 8002992:	0002      	movs	r2, r0
 8002994:	697b      	ldr	r3, [r7, #20]
 8002996:	1ad3      	subs	r3, r2, r3
 8002998:	2b02      	cmp	r3, #2
 800299a:	d915      	bls.n	80029c8 <HAL_RCC_OscConfig+0x6b0>
 800299c:	2303      	movs	r3, #3
 800299e:	e084      	b.n	8002aaa <HAL_RCC_OscConfig+0x792>
 80029a0:	40021000 	.word	0x40021000
 80029a4:	ffff1fff 	.word	0xffff1fff
 80029a8:	fffffeff 	.word	0xfffffeff
 80029ac:	40007000 	.word	0x40007000
 80029b0:	fffffbff 	.word	0xfffffbff
 80029b4:	00001388 	.word	0x00001388
 80029b8:	efffffff 	.word	0xefffffff
 80029bc:	40010000 	.word	0x40010000
 80029c0:	ffffdfff 	.word	0xffffdfff
 80029c4:	feffffff 	.word	0xfeffffff
 80029c8:	4b3a      	ldr	r3, [pc, #232]	@ (8002ab4 <HAL_RCC_OscConfig+0x79c>)
 80029ca:	681a      	ldr	r2, [r3, #0]
 80029cc:	2380      	movs	r3, #128	@ 0x80
 80029ce:	049b      	lsls	r3, r3, #18
 80029d0:	4013      	ands	r3, r2
 80029d2:	d1dc      	bne.n	800298e <HAL_RCC_OscConfig+0x676>
 80029d4:	4b37      	ldr	r3, [pc, #220]	@ (8002ab4 <HAL_RCC_OscConfig+0x79c>)
 80029d6:	68db      	ldr	r3, [r3, #12]
 80029d8:	4a37      	ldr	r2, [pc, #220]	@ (8002ab8 <HAL_RCC_OscConfig+0x7a0>)
 80029da:	4013      	ands	r3, r2
 80029dc:	0019      	movs	r1, r3
 80029de:	687b      	ldr	r3, [r7, #4]
 80029e0:	6ada      	ldr	r2, [r3, #44]	@ 0x2c
 80029e2:	687b      	ldr	r3, [r7, #4]
 80029e4:	6b1b      	ldr	r3, [r3, #48]	@ 0x30
 80029e6:	431a      	orrs	r2, r3
 80029e8:	687b      	ldr	r3, [r7, #4]
 80029ea:	6b5b      	ldr	r3, [r3, #52]	@ 0x34
 80029ec:	431a      	orrs	r2, r3
 80029ee:	4b31      	ldr	r3, [pc, #196]	@ (8002ab4 <HAL_RCC_OscConfig+0x79c>)
 80029f0:	430a      	orrs	r2, r1
 80029f2:	60da      	str	r2, [r3, #12]
 80029f4:	4b2f      	ldr	r3, [pc, #188]	@ (8002ab4 <HAL_RCC_OscConfig+0x79c>)
 80029f6:	681a      	ldr	r2, [r3, #0]
 80029f8:	4b2e      	ldr	r3, [pc, #184]	@ (8002ab4 <HAL_RCC_OscConfig+0x79c>)
 80029fa:	2180      	movs	r1, #128	@ 0x80
 80029fc:	0449      	lsls	r1, r1, #17
 80029fe:	430a      	orrs	r2, r1
 8002a00:	601a      	str	r2, [r3, #0]
 8002a02:	f7fe fc59 	bl	80012b8 <HAL_GetTick>
 8002a06:	0003      	movs	r3, r0
 8002a08:	617b      	str	r3, [r7, #20]
 8002a0a:	e008      	b.n	8002a1e <HAL_RCC_OscConfig+0x706>
 8002a0c:	f7fe fc54 	bl	80012b8 <HAL_GetTick>
 8002a10:	0002      	movs	r2, r0
 8002a12:	697b      	ldr	r3, [r7, #20]
 8002a14:	1ad3      	subs	r3, r2, r3
 8002a16:	2b02      	cmp	r3, #2
 8002a18:	d901      	bls.n	8002a1e <HAL_RCC_OscConfig+0x706>
 8002a1a:	2303      	movs	r3, #3
 8002a1c:	e045      	b.n	8002aaa <HAL_RCC_OscConfig+0x792>
 8002a1e:	4b25      	ldr	r3, [pc, #148]	@ (8002ab4 <HAL_RCC_OscConfig+0x79c>)
 8002a20:	681a      	ldr	r2, [r3, #0]
 8002a22:	2380      	movs	r3, #128	@ 0x80
 8002a24:	049b      	lsls	r3, r3, #18
 8002a26:	4013      	ands	r3, r2
 8002a28:	d0f0      	beq.n	8002a0c <HAL_RCC_OscConfig+0x6f4>
 8002a2a:	e03d      	b.n	8002aa8 <HAL_RCC_OscConfig+0x790>
 8002a2c:	4b21      	ldr	r3, [pc, #132]	@ (8002ab4 <HAL_RCC_OscConfig+0x79c>)
 8002a2e:	681a      	ldr	r2, [r3, #0]
 8002a30:	4b20      	ldr	r3, [pc, #128]	@ (8002ab4 <HAL_RCC_OscConfig+0x79c>)
 8002a32:	4922      	ldr	r1, [pc, #136]	@ (8002abc <HAL_RCC_OscConfig+0x7a4>)
 8002a34:	400a      	ands	r2, r1
 8002a36:	601a      	str	r2, [r3, #0]
 8002a38:	f7fe fc3e 	bl	80012b8 <HAL_GetTick>
 8002a3c:	0003      	movs	r3, r0
 8002a3e:	617b      	str	r3, [r7, #20]
 8002a40:	e008      	b.n	8002a54 <HAL_RCC_OscConfig+0x73c>
 8002a42:	f7fe fc39 	bl	80012b8 <HAL_GetTick>
 8002a46:	0002      	movs	r2, r0
 8002a48:	697b      	ldr	r3, [r7, #20]
 8002a4a:	1ad3      	subs	r3, r2, r3
 8002a4c:	2b02      	cmp	r3, #2
 8002a4e:	d901      	bls.n	8002a54 <HAL_RCC_OscConfig+0x73c>
 8002a50:	2303      	movs	r3, #3
 8002a52:	e02a      	b.n	8002aaa <HAL_RCC_OscConfig+0x792>
 8002a54:	4b17      	ldr	r3, [pc, #92]	@ (8002ab4 <HAL_RCC_OscConfig+0x79c>)
 8002a56:	681a      	ldr	r2, [r3, #0]
 8002a58:	2380      	movs	r3, #128	@ 0x80
 8002a5a:	049b      	lsls	r3, r3, #18
 8002a5c:	4013      	ands	r3, r2
 8002a5e:	d1f0      	bne.n	8002a42 <HAL_RCC_OscConfig+0x72a>
 8002a60:	e022      	b.n	8002aa8 <HAL_RCC_OscConfig+0x790>
 8002a62:	687b      	ldr	r3, [r7, #4]
 8002a64:	6a9b      	ldr	r3, [r3, #40]	@ 0x28
 8002a66:	2b01      	cmp	r3, #1
 8002a68:	d101      	bne.n	8002a6e <HAL_RCC_OscConfig+0x756>
 8002a6a:	2301      	movs	r3, #1
 8002a6c:	e01d      	b.n	8002aaa <HAL_RCC_OscConfig+0x792>
 8002a6e:	4b11      	ldr	r3, [pc, #68]	@ (8002ab4 <HAL_RCC_OscConfig+0x79c>)
 8002a70:	68db      	ldr	r3, [r3, #12]
 8002a72:	61bb      	str	r3, [r7, #24]
 8002a74:	69ba      	ldr	r2, [r7, #24]
 8002a76:	2380      	movs	r3, #128	@ 0x80
 8002a78:	025b      	lsls	r3, r3, #9
 8002a7a:	401a      	ands	r2, r3
 8002a7c:	687b      	ldr	r3, [r7, #4]
 8002a7e:	6adb      	ldr	r3, [r3, #44]	@ 0x2c
 8002a80:	429a      	cmp	r2, r3
 8002a82:	d10f      	bne.n	8002aa4 <HAL_RCC_OscConfig+0x78c>
 8002a84:	69ba      	ldr	r2, [r7, #24]
 8002a86:	23f0      	movs	r3, #240	@ 0xf0
 8002a88:	039b      	lsls	r3, r3, #14
 8002a8a:	401a      	ands	r2, r3
 8002a8c:	687b      	ldr	r3, [r7, #4]
 8002a8e:	6b1b      	ldr	r3, [r3, #48]	@ 0x30
 8002a90:	429a      	cmp	r2, r3
 8002a92:	d107      	bne.n	8002aa4 <HAL_RCC_OscConfig+0x78c>
 8002a94:	69ba      	ldr	r2, [r7, #24]
 8002a96:	23c0      	movs	r3, #192	@ 0xc0
 8002a98:	041b      	lsls	r3, r3, #16
 8002a9a:	401a      	ands	r2, r3
 8002a9c:	687b      	ldr	r3, [r7, #4]
 8002a9e:	6b5b      	ldr	r3, [r3, #52]	@ 0x34
 8002aa0:	429a      	cmp	r2, r3
 8002aa2:	d001      	beq.n	8002aa8 <HAL_RCC_OscConfig+0x790>
 8002aa4:	2301      	movs	r3, #1
 8002aa6:	e000      	b.n	8002aaa <HAL_RCC_OscConfig+0x792>
 8002aa8:	2300      	movs	r3, #0
 8002aaa:	0018      	movs	r0, r3
 8002aac:	46bd      	mov	sp, r7
 8002aae:	b00a      	add	sp, #40	@ 0x28
 8002ab0:	bdb0      	pop	{r4, r5, r7, pc}
 8002ab2:	46c0      	nop			@ (mov r8, r8)
 8002ab4:	40021000 	.word	0x40021000
 8002ab8:	ff02ffff 	.word	0xff02ffff
 8002abc:	feffffff 	.word	0xfeffffff

08002ac0 <HAL_RCC_ClockConfig>:
 8002ac0:	b5b0      	push	{r4, r5, r7, lr}
 8002ac2:	b084      	sub	sp, #16
 8002ac4:	af00      	add	r7, sp, #0
 8002ac6:	6078      	str	r0, [r7, #4]
 8002ac8:	6039      	str	r1, [r7, #0]
 8002aca:	687b      	ldr	r3, [r7, #4]
 8002acc:	2b00      	cmp	r3, #0
 8002ace:	d101      	bne.n	8002ad4 <HAL_RCC_ClockConfig+0x14>
 8002ad0:	2301      	movs	r3, #1
 8002ad2:	e128      	b.n	8002d26 <HAL_RCC_ClockConfig+0x266>
 8002ad4:	4b96      	ldr	r3, [pc, #600]	@ (8002d30 <HAL_RCC_ClockConfig+0x270>)
 8002ad6:	681b      	ldr	r3, [r3, #0]
 8002ad8:	2201      	movs	r2, #1
 8002ada:	4013      	ands	r3, r2
 8002adc:	683a      	ldr	r2, [r7, #0]
 8002ade:	429a      	cmp	r2, r3
 8002ae0:	d91e      	bls.n	8002b20 <HAL_RCC_ClockConfig+0x60>
 8002ae2:	4b93      	ldr	r3, [pc, #588]	@ (8002d30 <HAL_RCC_ClockConfig+0x270>)
 8002ae4:	681b      	ldr	r3, [r3, #0]
 8002ae6:	2201      	movs	r2, #1
 8002ae8:	4393      	bics	r3, r2
 8002aea:	0019      	movs	r1, r3
 8002aec:	4b90      	ldr	r3, [pc, #576]	@ (8002d30 <HAL_RCC_ClockConfig+0x270>)
 8002aee:	683a      	ldr	r2, [r7, #0]
 8002af0:	430a      	orrs	r2, r1
 8002af2:	601a      	str	r2, [r3, #0]
 8002af4:	f7fe fbe0 	bl	80012b8 <HAL_GetTick>
 8002af8:	0003      	movs	r3, r0
 8002afa:	60fb      	str	r3, [r7, #12]
 8002afc:	e009      	b.n	8002b12 <HAL_RCC_ClockConfig+0x52>
 8002afe:	f7fe fbdb 	bl	80012b8 <HAL_GetTick>
 8002b02:	0002      	movs	r2, r0
 8002b04:	68fb      	ldr	r3, [r7, #12]
 8002b06:	1ad3      	subs	r3, r2, r3
 8002b08:	4a8a      	ldr	r2, [pc, #552]	@ (8002d34 <HAL_RCC_ClockConfig+0x274>)
 8002b0a:	4293      	cmp	r3, r2
 8002b0c:	d901      	bls.n	8002b12 <HAL_RCC_ClockConfig+0x52>
 8002b0e:	2303      	movs	r3, #3
 8002b10:	e109      	b.n	8002d26 <HAL_RCC_ClockConfig+0x266>
 8002b12:	4b87      	ldr	r3, [pc, #540]	@ (8002d30 <HAL_RCC_ClockConfig+0x270>)
 8002b14:	681b      	ldr	r3, [r3, #0]
 8002b16:	2201      	movs	r2, #1
 8002b18:	4013      	ands	r3, r2
 8002b1a:	683a      	ldr	r2, [r7, #0]
 8002b1c:	429a      	cmp	r2, r3
 8002b1e:	d1ee      	bne.n	8002afe <HAL_RCC_ClockConfig+0x3e>
 8002b20:	687b      	ldr	r3, [r7, #4]
 8002b22:	681b      	ldr	r3, [r3, #0]
 8002b24:	2202      	movs	r2, #2
 8002b26:	4013      	ands	r3, r2
 8002b28:	d009      	beq.n	8002b3e <HAL_RCC_ClockConfig+0x7e>
 8002b2a:	4b83      	ldr	r3, [pc, #524]	@ (8002d38 <HAL_RCC_ClockConfig+0x278>)
 8002b2c:	68db      	ldr	r3, [r3, #12]
 8002b2e:	22f0      	movs	r2, #240	@ 0xf0
 8002b30:	4393      	bics	r3, r2
 8002b32:	0019      	movs	r1, r3
 8002b34:	687b      	ldr	r3, [r7, #4]
 8002b36:	689a      	ldr	r2, [r3, #8]
 8002b38:	4b7f      	ldr	r3, [pc, #508]	@ (8002d38 <HAL_RCC_ClockConfig+0x278>)
 8002b3a:	430a      	orrs	r2, r1
 8002b3c:	60da      	str	r2, [r3, #12]
 8002b3e:	687b      	ldr	r3, [r7, #4]
 8002b40:	681b      	ldr	r3, [r3, #0]
 8002b42:	2201      	movs	r2, #1
 8002b44:	4013      	ands	r3, r2
 8002b46:	d100      	bne.n	8002b4a <HAL_RCC_ClockConfig+0x8a>
 8002b48:	e089      	b.n	8002c5e <HAL_RCC_ClockConfig+0x19e>
 8002b4a:	687b      	ldr	r3, [r7, #4]
 8002b4c:	685b      	ldr	r3, [r3, #4]
 8002b4e:	2b02      	cmp	r3, #2
 8002b50:	d107      	bne.n	8002b62 <HAL_RCC_ClockConfig+0xa2>
 8002b52:	4b79      	ldr	r3, [pc, #484]	@ (8002d38 <HAL_RCC_ClockConfig+0x278>)
 8002b54:	681a      	ldr	r2, [r3, #0]
 8002b56:	2380      	movs	r3, #128	@ 0x80
 8002b58:	029b      	lsls	r3, r3, #10
 8002b5a:	4013      	ands	r3, r2
 8002b5c:	d120      	bne.n	8002ba0 <HAL_RCC_ClockConfig+0xe0>
 8002b5e:	2301      	movs	r3, #1
 8002b60:	e0e1      	b.n	8002d26 <HAL_RCC_ClockConfig+0x266>
 8002b62:	687b      	ldr	r3, [r7, #4]
 8002b64:	685b      	ldr	r3, [r3, #4]
 8002b66:	2b03      	cmp	r3, #3
 8002b68:	d107      	bne.n	8002b7a <HAL_RCC_ClockConfig+0xba>
 8002b6a:	4b73      	ldr	r3, [pc, #460]	@ (8002d38 <HAL_RCC_ClockConfig+0x278>)
 8002b6c:	681a      	ldr	r2, [r3, #0]
 8002b6e:	2380      	movs	r3, #128	@ 0x80
 8002b70:	049b      	lsls	r3, r3, #18
 8002b72:	4013      	ands	r3, r2
 8002b74:	d114      	bne.n	8002ba0 <HAL_RCC_ClockConfig+0xe0>
 8002b76:	2301      	movs	r3, #1
 8002b78:	e0d5      	b.n	8002d26 <HAL_RCC_ClockConfig+0x266>
 8002b7a:	687b      	ldr	r3, [r7, #4]
 8002b7c:	685b      	ldr	r3, [r3, #4]
 8002b7e:	2b01      	cmp	r3, #1
 8002b80:	d106      	bne.n	8002b90 <HAL_RCC_ClockConfig+0xd0>
 8002b82:	4b6d      	ldr	r3, [pc, #436]	@ (8002d38 <HAL_RCC_ClockConfig+0x278>)
 8002b84:	681b      	ldr	r3, [r3, #0]
 8002b86:	2204      	movs	r2, #4
 8002b88:	4013      	ands	r3, r2
 8002b8a:	d109      	bne.n	8002ba0 <HAL_RCC_ClockConfig+0xe0>
 8002b8c:	2301      	movs	r3, #1
 8002b8e:	e0ca      	b.n	8002d26 <HAL_RCC_ClockConfig+0x266>
 8002b90:	4b69      	ldr	r3, [pc, #420]	@ (8002d38 <HAL_RCC_ClockConfig+0x278>)
 8002b92:	681a      	ldr	r2, [r3, #0]
 8002b94:	2380      	movs	r3, #128	@ 0x80
 8002b96:	009b      	lsls	r3, r3, #2
 8002b98:	4013      	ands	r3, r2
 8002b9a:	d101      	bne.n	8002ba0 <HAL_RCC_ClockConfig+0xe0>
 8002b9c:	2301      	movs	r3, #1
 8002b9e:	e0c2      	b.n	8002d26 <HAL_RCC_ClockConfig+0x266>
 8002ba0:	4b65      	ldr	r3, [pc, #404]	@ (8002d38 <HAL_RCC_ClockConfig+0x278>)
 8002ba2:	68db      	ldr	r3, [r3, #12]
 8002ba4:	2203      	movs	r2, #3
 8002ba6:	4393      	bics	r3, r2
 8002ba8:	0019      	movs	r1, r3
 8002baa:	687b      	ldr	r3, [r7, #4]
 8002bac:	685a      	ldr	r2, [r3, #4]
 8002bae:	4b62      	ldr	r3, [pc, #392]	@ (8002d38 <HAL_RCC_ClockConfig+0x278>)
 8002bb0:	430a      	orrs	r2, r1
 8002bb2:	60da      	str	r2, [r3, #12]
 8002bb4:	f7fe fb80 	bl	80012b8 <HAL_GetTick>
 8002bb8:	0003      	movs	r3, r0
 8002bba:	60fb      	str	r3, [r7, #12]
 8002bbc:	687b      	ldr	r3, [r7, #4]
 8002bbe:	685b      	ldr	r3, [r3, #4]
 8002bc0:	2b02      	cmp	r3, #2
 8002bc2:	d111      	bne.n	8002be8 <HAL_RCC_ClockConfig+0x128>
 8002bc4:	e009      	b.n	8002bda <HAL_RCC_ClockConfig+0x11a>
 8002bc6:	f7fe fb77 	bl	80012b8 <HAL_GetTick>
 8002bca:	0002      	movs	r2, r0
 8002bcc:	68fb      	ldr	r3, [r7, #12]
 8002bce:	1ad3      	subs	r3, r2, r3
 8002bd0:	4a58      	ldr	r2, [pc, #352]	@ (8002d34 <HAL_RCC_ClockConfig+0x274>)
 8002bd2:	4293      	cmp	r3, r2
 8002bd4:	d901      	bls.n	8002bda <HAL_RCC_ClockConfig+0x11a>
 8002bd6:	2303      	movs	r3, #3
 8002bd8:	e0a5      	b.n	8002d26 <HAL_RCC_ClockConfig+0x266>
 8002bda:	4b57      	ldr	r3, [pc, #348]	@ (8002d38 <HAL_RCC_ClockConfig+0x278>)
 8002bdc:	68db      	ldr	r3, [r3, #12]
 8002bde:	220c      	movs	r2, #12
 8002be0:	4013      	ands	r3, r2
 8002be2:	2b08      	cmp	r3, #8
 8002be4:	d1ef      	bne.n	8002bc6 <HAL_RCC_ClockConfig+0x106>
 8002be6:	e03a      	b.n	8002c5e <HAL_RCC_ClockConfig+0x19e>
 8002be8:	687b      	ldr	r3, [r7, #4]
 8002bea:	685b      	ldr	r3, [r3, #4]
 8002bec:	2b03      	cmp	r3, #3
 8002bee:	d111      	bne.n	8002c14 <HAL_RCC_ClockConfig+0x154>
 8002bf0:	e009      	b.n	8002c06 <HAL_RCC_ClockConfig+0x146>
 8002bf2:	f7fe fb61 	bl	80012b8 <HAL_GetTick>
 8002bf6:	0002      	movs	r2, r0
 8002bf8:	68fb      	ldr	r3, [r7, #12]
 8002bfa:	1ad3      	subs	r3, r2, r3
 8002bfc:	4a4d      	ldr	r2, [pc, #308]	@ (8002d34 <HAL_RCC_ClockConfig+0x274>)
 8002bfe:	4293      	cmp	r3, r2
 8002c00:	d901      	bls.n	8002c06 <HAL_RCC_ClockConfig+0x146>
 8002c02:	2303      	movs	r3, #3
 8002c04:	e08f      	b.n	8002d26 <HAL_RCC_ClockConfig+0x266>
 8002c06:	4b4c      	ldr	r3, [pc, #304]	@ (8002d38 <HAL_RCC_ClockConfig+0x278>)
 8002c08:	68db      	ldr	r3, [r3, #12]
 8002c0a:	220c      	movs	r2, #12
 8002c0c:	4013      	ands	r3, r2
 8002c0e:	2b0c      	cmp	r3, #12
 8002c10:	d1ef      	bne.n	8002bf2 <HAL_RCC_ClockConfig+0x132>
 8002c12:	e024      	b.n	8002c5e <HAL_RCC_ClockConfig+0x19e>
 8002c14:	687b      	ldr	r3, [r7, #4]
 8002c16:	685b      	ldr	r3, [r3, #4]
 8002c18:	2b01      	cmp	r3, #1
 8002c1a:	d11b      	bne.n	8002c54 <HAL_RCC_ClockConfig+0x194>
 8002c1c:	e009      	b.n	8002c32 <HAL_RCC_ClockConfig+0x172>
 8002c1e:	f7fe fb4b 	bl	80012b8 <HAL_GetTick>
 8002c22:	0002      	movs	r2, r0
 8002c24:	68fb      	ldr	r3, [r7, #12]
 8002c26:	1ad3      	subs	r3, r2, r3
 8002c28:	4a42      	ldr	r2, [pc, #264]	@ (8002d34 <HAL_RCC_ClockConfig+0x274>)
 8002c2a:	4293      	cmp	r3, r2
 8002c2c:	d901      	bls.n	8002c32 <HAL_RCC_ClockConfig+0x172>
 8002c2e:	2303      	movs	r3, #3
 8002c30:	e079      	b.n	8002d26 <HAL_RCC_ClockConfig+0x266>
 8002c32:	4b41      	ldr	r3, [pc, #260]	@ (8002d38 <HAL_RCC_ClockConfig+0x278>)
 8002c34:	68db      	ldr	r3, [r3, #12]
 8002c36:	220c      	movs	r2, #12
 8002c38:	4013      	ands	r3, r2
 8002c3a:	2b04      	cmp	r3, #4
 8002c3c:	d1ef      	bne.n	8002c1e <HAL_RCC_ClockConfig+0x15e>
 8002c3e:	e00e      	b.n	8002c5e <HAL_RCC_ClockConfig+0x19e>
 8002c40:	f7fe fb3a 	bl	80012b8 <HAL_GetTick>
 8002c44:	0002      	movs	r2, r0
 8002c46:	68fb      	ldr	r3, [r7, #12]
 8002c48:	1ad3      	subs	r3, r2, r3
 8002c4a:	4a3a      	ldr	r2, [pc, #232]	@ (8002d34 <HAL_RCC_ClockConfig+0x274>)
 8002c4c:	4293      	cmp	r3, r2
 8002c4e:	d901      	bls.n	8002c54 <HAL_RCC_ClockConfig+0x194>
 8002c50:	2303      	movs	r3, #3
 8002c52:	e068      	b.n	8002d26 <HAL_RCC_ClockConfig+0x266>
 8002c54:	4b38      	ldr	r3, [pc, #224]	@ (8002d38 <HAL_RCC_ClockConfig+0x278>)
 8002c56:	68db      	ldr	r3, [r3, #12]
 8002c58:	220c      	movs	r2, #12
 8002c5a:	4013      	ands	r3, r2
 8002c5c:	d1f0      	bne.n	8002c40 <HAL_RCC_ClockConfig+0x180>
 8002c5e:	4b34      	ldr	r3, [pc, #208]	@ (8002d30 <HAL_RCC_ClockConfig+0x270>)
 8002c60:	681b      	ldr	r3, [r3, #0]
 8002c62:	2201      	movs	r2, #1
 8002c64:	4013      	ands	r3, r2
 8002c66:	683a      	ldr	r2, [r7, #0]
 8002c68:	429a      	cmp	r2, r3
 8002c6a:	d21e      	bcs.n	8002caa <HAL_RCC_ClockConfig+0x1ea>
 8002c6c:	4b30      	ldr	r3, [pc, #192]	@ (8002d30 <HAL_RCC_ClockConfig+0x270>)
 8002c6e:	681b      	ldr	r3, [r3, #0]
 8002c70:	2201      	movs	r2, #1
 8002c72:	4393      	bics	r3, r2
 8002c74:	0019      	movs	r1, r3
 8002c76:	4b2e      	ldr	r3, [pc, #184]	@ (8002d30 <HAL_RCC_ClockConfig+0x270>)
 8002c78:	683a      	ldr	r2, [r7, #0]
 8002c7a:	430a      	orrs	r2, r1
 8002c7c:	601a      	str	r2, [r3, #0]
 8002c7e:	f7fe fb1b 	bl	80012b8 <HAL_GetTick>
 8002c82:	0003      	movs	r3, r0
 8002c84:	60fb      	str	r3, [r7, #12]
 8002c86:	e009      	b.n	8002c9c <HAL_RCC_ClockConfig+0x1dc>
 8002c88:	f7fe fb16 	bl	80012b8 <HAL_GetTick>
 8002c8c:	0002      	movs	r2, r0
 8002c8e:	68fb      	ldr	r3, [r7, #12]
 8002c90:	1ad3      	subs	r3, r2, r3
 8002c92:	4a28      	ldr	r2, [pc, #160]	@ (8002d34 <HAL_RCC_ClockConfig+0x274>)
 8002c94:	4293      	cmp	r3, r2
 8002c96:	d901      	bls.n	8002c9c <HAL_RCC_ClockConfig+0x1dc>
 8002c98:	2303      	movs	r3, #3
 8002c9a:	e044      	b.n	8002d26 <HAL_RCC_ClockConfig+0x266>
 8002c9c:	4b24      	ldr	r3, [pc, #144]	@ (8002d30 <HAL_RCC_ClockConfig+0x270>)
 8002c9e:	681b      	ldr	r3, [r3, #0]
 8002ca0:	2201      	movs	r2, #1
 8002ca2:	4013      	ands	r3, r2
 8002ca4:	683a      	ldr	r2, [r7, #0]
 8002ca6:	429a      	cmp	r2, r3
 8002ca8:	d1ee      	bne.n	8002c88 <HAL_RCC_ClockConfig+0x1c8>
 8002caa:	687b      	ldr	r3, [r7, #4]
 8002cac:	681b      	ldr	r3, [r3, #0]
 8002cae:	2204      	movs	r2, #4
 8002cb0:	4013      	ands	r3, r2
 8002cb2:	d009      	beq.n	8002cc8 <HAL_RCC_ClockConfig+0x208>
 8002cb4:	4b20      	ldr	r3, [pc, #128]	@ (8002d38 <HAL_RCC_ClockConfig+0x278>)
 8002cb6:	68db      	ldr	r3, [r3, #12]
 8002cb8:	4a20      	ldr	r2, [pc, #128]	@ (8002d3c <HAL_RCC_ClockConfig+0x27c>)
 8002cba:	4013      	ands	r3, r2
 8002cbc:	0019      	movs	r1, r3
 8002cbe:	687b      	ldr	r3, [r7, #4]
 8002cc0:	68da      	ldr	r2, [r3, #12]
 8002cc2:	4b1d      	ldr	r3, [pc, #116]	@ (8002d38 <HAL_RCC_ClockConfig+0x278>)
 8002cc4:	430a      	orrs	r2, r1
 8002cc6:	60da      	str	r2, [r3, #12]
 8002cc8:	687b      	ldr	r3, [r7, #4]
 8002cca:	681b      	ldr	r3, [r3, #0]
 8002ccc:	2208      	movs	r2, #8
 8002cce:	4013      	ands	r3, r2
 8002cd0:	d00a      	beq.n	8002ce8 <HAL_RCC_ClockConfig+0x228>
 8002cd2:	4b19      	ldr	r3, [pc, #100]	@ (8002d38 <HAL_RCC_ClockConfig+0x278>)
 8002cd4:	68db      	ldr	r3, [r3, #12]
 8002cd6:	4a1a      	ldr	r2, [pc, #104]	@ (8002d40 <HAL_RCC_ClockConfig+0x280>)
 8002cd8:	4013      	ands	r3, r2
 8002cda:	0019      	movs	r1, r3
 8002cdc:	687b      	ldr	r3, [r7, #4]
 8002cde:	691b      	ldr	r3, [r3, #16]
 8002ce0:	00da      	lsls	r2, r3, #3
 8002ce2:	4b15      	ldr	r3, [pc, #84]	@ (8002d38 <HAL_RCC_ClockConfig+0x278>)
 8002ce4:	430a      	orrs	r2, r1
 8002ce6:	60da      	str	r2, [r3, #12]
 8002ce8:	f000 f832 	bl	8002d50 <HAL_RCC_GetSysClockFreq>
 8002cec:	0001      	movs	r1, r0
 8002cee:	4b12      	ldr	r3, [pc, #72]	@ (8002d38 <HAL_RCC_ClockConfig+0x278>)
 8002cf0:	68db      	ldr	r3, [r3, #12]
 8002cf2:	091b      	lsrs	r3, r3, #4
 8002cf4:	220f      	movs	r2, #15
 8002cf6:	4013      	ands	r3, r2
 8002cf8:	4a12      	ldr	r2, [pc, #72]	@ (8002d44 <HAL_RCC_ClockConfig+0x284>)
 8002cfa:	5cd3      	ldrb	r3, [r2, r3]
 8002cfc:	000a      	movs	r2, r1
 8002cfe:	40da      	lsrs	r2, r3
 8002d00:	4b11      	ldr	r3, [pc, #68]	@ (8002d48 <HAL_RCC_ClockConfig+0x288>)
 8002d02:	601a      	str	r2, [r3, #0]
 8002d04:	4b11      	ldr	r3, [pc, #68]	@ (8002d4c <HAL_RCC_ClockConfig+0x28c>)
 8002d06:	681b      	ldr	r3, [r3, #0]
 8002d08:	250b      	movs	r5, #11
 8002d0a:	197c      	adds	r4, r7, r5
 8002d0c:	0018      	movs	r0, r3
 8002d0e:	f7fe fa8d 	bl	800122c <HAL_InitTick>
 8002d12:	0003      	movs	r3, r0
 8002d14:	7023      	strb	r3, [r4, #0]
 8002d16:	197b      	adds	r3, r7, r5
 8002d18:	781b      	ldrb	r3, [r3, #0]
 8002d1a:	2b00      	cmp	r3, #0
 8002d1c:	d002      	beq.n	8002d24 <HAL_RCC_ClockConfig+0x264>
 8002d1e:	197b      	adds	r3, r7, r5
 8002d20:	781b      	ldrb	r3, [r3, #0]
 8002d22:	e000      	b.n	8002d26 <HAL_RCC_ClockConfig+0x266>
 8002d24:	2300      	movs	r3, #0
 8002d26:	0018      	movs	r0, r3
 8002d28:	46bd      	mov	sp, r7
 8002d2a:	b004      	add	sp, #16
 8002d2c:	bdb0      	pop	{r4, r5, r7, pc}
 8002d2e:	46c0      	nop			@ (mov r8, r8)
 8002d30:	40022000 	.word	0x40022000
 8002d34:	00001388 	.word	0x00001388
 8002d38:	40021000 	.word	0x40021000
 8002d3c:	fffff8ff 	.word	0xfffff8ff
 8002d40:	ffffc7ff 	.word	0xffffc7ff
 8002d44:	080065c8 	.word	0x080065c8
 8002d48:	20000004 	.word	0x20000004
 8002d4c:	20000008 	.word	0x20000008

08002d50 <HAL_RCC_GetSysClockFreq>:
 8002d50:	b580      	push	{r7, lr}
 8002d52:	b086      	sub	sp, #24
 8002d54:	af00      	add	r7, sp, #0
 8002d56:	4b3c      	ldr	r3, [pc, #240]	@ (8002e48 <HAL_RCC_GetSysClockFreq+0xf8>)
 8002d58:	68db      	ldr	r3, [r3, #12]
 8002d5a:	60fb      	str	r3, [r7, #12]
 8002d5c:	68fb      	ldr	r3, [r7, #12]
 8002d5e:	220c      	movs	r2, #12
 8002d60:	4013      	ands	r3, r2
 8002d62:	2b0c      	cmp	r3, #12
 8002d64:	d013      	beq.n	8002d8e <HAL_RCC_GetSysClockFreq+0x3e>
 8002d66:	d85c      	bhi.n	8002e22 <HAL_RCC_GetSysClockFreq+0xd2>
 8002d68:	2b04      	cmp	r3, #4
 8002d6a:	d002      	beq.n	8002d72 <HAL_RCC_GetSysClockFreq+0x22>
 8002d6c:	2b08      	cmp	r3, #8
 8002d6e:	d00b      	beq.n	8002d88 <HAL_RCC_GetSysClockFreq+0x38>
 8002d70:	e057      	b.n	8002e22 <HAL_RCC_GetSysClockFreq+0xd2>
 8002d72:	4b35      	ldr	r3, [pc, #212]	@ (8002e48 <HAL_RCC_GetSysClockFreq+0xf8>)
 8002d74:	681b      	ldr	r3, [r3, #0]
 8002d76:	2210      	movs	r2, #16
 8002d78:	4013      	ands	r3, r2
 8002d7a:	d002      	beq.n	8002d82 <HAL_RCC_GetSysClockFreq+0x32>
 8002d7c:	4b33      	ldr	r3, [pc, #204]	@ (8002e4c <HAL_RCC_GetSysClockFreq+0xfc>)
 8002d7e:	613b      	str	r3, [r7, #16]
 8002d80:	e05d      	b.n	8002e3e <HAL_RCC_GetSysClockFreq+0xee>
 8002d82:	4b33      	ldr	r3, [pc, #204]	@ (8002e50 <HAL_RCC_GetSysClockFreq+0x100>)
 8002d84:	613b      	str	r3, [r7, #16]
 8002d86:	e05a      	b.n	8002e3e <HAL_RCC_GetSysClockFreq+0xee>
 8002d88:	4b32      	ldr	r3, [pc, #200]	@ (8002e54 <HAL_RCC_GetSysClockFreq+0x104>)
 8002d8a:	613b      	str	r3, [r7, #16]
 8002d8c:	e057      	b.n	8002e3e <HAL_RCC_GetSysClockFreq+0xee>
 8002d8e:	68fb      	ldr	r3, [r7, #12]
 8002d90:	0c9b      	lsrs	r3, r3, #18
 8002d92:	220f      	movs	r2, #15
 8002d94:	4013      	ands	r3, r2
 8002d96:	4a30      	ldr	r2, [pc, #192]	@ (8002e58 <HAL_RCC_GetSysClockFreq+0x108>)
 8002d98:	5cd3      	ldrb	r3, [r2, r3]
 8002d9a:	60bb      	str	r3, [r7, #8]
 8002d9c:	68fb      	ldr	r3, [r7, #12]
 8002d9e:	0d9b      	lsrs	r3, r3, #22
 8002da0:	2203      	movs	r2, #3
 8002da2:	4013      	ands	r3, r2
 8002da4:	3301      	adds	r3, #1
 8002da6:	607b      	str	r3, [r7, #4]
 8002da8:	4b27      	ldr	r3, [pc, #156]	@ (8002e48 <HAL_RCC_GetSysClockFreq+0xf8>)
 8002daa:	68da      	ldr	r2, [r3, #12]
 8002dac:	2380      	movs	r3, #128	@ 0x80
 8002dae:	025b      	lsls	r3, r3, #9
 8002db0:	4013      	ands	r3, r2
 8002db2:	d00f      	beq.n	8002dd4 <HAL_RCC_GetSysClockFreq+0x84>
 8002db4:	68b9      	ldr	r1, [r7, #8]
 8002db6:	000a      	movs	r2, r1
 8002db8:	0152      	lsls	r2, r2, #5
 8002dba:	1a52      	subs	r2, r2, r1
 8002dbc:	0193      	lsls	r3, r2, #6
 8002dbe:	1a9b      	subs	r3, r3, r2
 8002dc0:	00db      	lsls	r3, r3, #3
 8002dc2:	185b      	adds	r3, r3, r1
 8002dc4:	025b      	lsls	r3, r3, #9
 8002dc6:	6879      	ldr	r1, [r7, #4]
 8002dc8:	0018      	movs	r0, r3
 8002dca:	f7fd f9af 	bl	800012c <__udivsi3>
 8002dce:	0003      	movs	r3, r0
 8002dd0:	617b      	str	r3, [r7, #20]
 8002dd2:	e023      	b.n	8002e1c <HAL_RCC_GetSysClockFreq+0xcc>
 8002dd4:	4b1c      	ldr	r3, [pc, #112]	@ (8002e48 <HAL_RCC_GetSysClockFreq+0xf8>)
 8002dd6:	681b      	ldr	r3, [r3, #0]
 8002dd8:	2210      	movs	r2, #16
 8002dda:	4013      	ands	r3, r2
 8002ddc:	d00f      	beq.n	8002dfe <HAL_RCC_GetSysClockFreq+0xae>
 8002dde:	68b9      	ldr	r1, [r7, #8]
 8002de0:	000a      	movs	r2, r1
 8002de2:	0152      	lsls	r2, r2, #5
 8002de4:	1a52      	subs	r2, r2, r1
 8002de6:	0193      	lsls	r3, r2, #6
 8002de8:	1a9b      	subs	r3, r3, r2
 8002dea:	00db      	lsls	r3, r3, #3
 8002dec:	185b      	adds	r3, r3, r1
 8002dee:	021b      	lsls	r3, r3, #8
 8002df0:	6879      	ldr	r1, [r7, #4]
 8002df2:	0018      	movs	r0, r3
 8002df4:	f7fd f99a 	bl	800012c <__udivsi3>
 8002df8:	0003      	movs	r3, r0
 8002dfa:	617b      	str	r3, [r7, #20]
 8002dfc:	e00e      	b.n	8002e1c <HAL_RCC_GetSysClockFreq+0xcc>
 8002dfe:	68b9      	ldr	r1, [r7, #8]
 8002e00:	000a      	movs	r2, r1
 8002e02:	0152      	lsls	r2, r2, #5
 8002e04:	1a52      	subs	r2, r2, r1
 8002e06:	0193      	lsls	r3, r2, #6
 8002e08:	1a9b      	subs	r3, r3, r2
 8002e0a:	00db      	lsls	r3, r3, #3
 8002e0c:	185b      	adds	r3, r3, r1
 8002e0e:	029b      	lsls	r3, r3, #10
 8002e10:	6879      	ldr	r1, [r7, #4]
 8002e12:	0018      	movs	r0, r3
 8002e14:	f7fd f98a 	bl	800012c <__udivsi3>
 8002e18:	0003      	movs	r3, r0
 8002e1a:	617b      	str	r3, [r7, #20]
 8002e1c:	697b      	ldr	r3, [r7, #20]
 8002e1e:	613b      	str	r3, [r7, #16]
 8002e20:	e00d      	b.n	8002e3e <HAL_RCC_GetSysClockFreq+0xee>
 8002e22:	4b09      	ldr	r3, [pc, #36]	@ (8002e48 <HAL_RCC_GetSysClockFreq+0xf8>)
 8002e24:	685b      	ldr	r3, [r3, #4]
 8002e26:	0b5b      	lsrs	r3, r3, #13
 8002e28:	2207      	movs	r2, #7
 8002e2a:	4013      	ands	r3, r2
 8002e2c:	603b      	str	r3, [r7, #0]
 8002e2e:	683b      	ldr	r3, [r7, #0]
 8002e30:	3301      	adds	r3, #1
 8002e32:	2280      	movs	r2, #128	@ 0x80
 8002e34:	0212      	lsls	r2, r2, #8
 8002e36:	409a      	lsls	r2, r3
 8002e38:	0013      	movs	r3, r2
 8002e3a:	613b      	str	r3, [r7, #16]
 8002e3c:	46c0      	nop			@ (mov r8, r8)
 8002e3e:	693b      	ldr	r3, [r7, #16]
 8002e40:	0018      	movs	r0, r3
 8002e42:	46bd      	mov	sp, r7
 8002e44:	b006      	add	sp, #24
 8002e46:	bd80      	pop	{r7, pc}
 8002e48:	40021000 	.word	0x40021000
 8002e4c:	003d0900 	.word	0x003d0900
 8002e50:	00f42400 	.word	0x00f42400
 8002e54:	007a1200 	.word	0x007a1200
 8002e58:	080065e0 	.word	0x080065e0

08002e5c <HAL_RCC_GetHCLKFreq>:
 8002e5c:	b580      	push	{r7, lr}
 8002e5e:	af00      	add	r7, sp, #0
 8002e60:	4b02      	ldr	r3, [pc, #8]	@ (8002e6c <HAL_RCC_GetHCLKFreq+0x10>)
 8002e62:	681b      	ldr	r3, [r3, #0]
 8002e64:	0018      	movs	r0, r3
 8002e66:	46bd      	mov	sp, r7
 8002e68:	bd80      	pop	{r7, pc}
 8002e6a:	46c0      	nop			@ (mov r8, r8)
 8002e6c:	20000004 	.word	0x20000004

08002e70 <HAL_RCC_GetPCLK1Freq>:
 8002e70:	b580      	push	{r7, lr}
 8002e72:	af00      	add	r7, sp, #0
 8002e74:	f7ff fff2 	bl	8002e5c <HAL_RCC_GetHCLKFreq>
 8002e78:	0001      	movs	r1, r0
 8002e7a:	4b06      	ldr	r3, [pc, #24]	@ (8002e94 <HAL_RCC_GetPCLK1Freq+0x24>)
 8002e7c:	68db      	ldr	r3, [r3, #12]
 8002e7e:	0a1b      	lsrs	r3, r3, #8
 8002e80:	2207      	movs	r2, #7
 8002e82:	4013      	ands	r3, r2
 8002e84:	4a04      	ldr	r2, [pc, #16]	@ (8002e98 <HAL_RCC_GetPCLK1Freq+0x28>)
 8002e86:	5cd3      	ldrb	r3, [r2, r3]
 8002e88:	40d9      	lsrs	r1, r3
 8002e8a:	000b      	movs	r3, r1
 8002e8c:	0018      	movs	r0, r3
 8002e8e:	46bd      	mov	sp, r7
 8002e90:	bd80      	pop	{r7, pc}
 8002e92:	46c0      	nop			@ (mov r8, r8)
 8002e94:	40021000 	.word	0x40021000
 8002e98:	080065d8 	.word	0x080065d8

08002e9c <HAL_RCC_GetPCLK2Freq>:
 8002e9c:	b580      	push	{r7, lr}
 8002e9e:	af00      	add	r7, sp, #0
 8002ea0:	f7ff ffdc 	bl	8002e5c <HAL_RCC_GetHCLKFreq>
 8002ea4:	0001      	movs	r1, r0
 8002ea6:	4b06      	ldr	r3, [pc, #24]	@ (8002ec0 <HAL_RCC_GetPCLK2Freq+0x24>)
 8002ea8:	68db      	ldr	r3, [r3, #12]
 8002eaa:	0adb      	lsrs	r3, r3, #11
 8002eac:	2207      	movs	r2, #7
 8002eae:	4013      	ands	r3, r2
 8002eb0:	4a04      	ldr	r2, [pc, #16]	@ (8002ec4 <HAL_RCC_GetPCLK2Freq+0x28>)
 8002eb2:	5cd3      	ldrb	r3, [r2, r3]
 8002eb4:	40d9      	lsrs	r1, r3
 8002eb6:	000b      	movs	r3, r1
 8002eb8:	0018      	movs	r0, r3
 8002eba:	46bd      	mov	sp, r7
 8002ebc:	bd80      	pop	{r7, pc}
 8002ebe:	46c0      	nop			@ (mov r8, r8)
 8002ec0:	40021000 	.word	0x40021000
 8002ec4:	080065d8 	.word	0x080065d8

08002ec8 <HAL_RCCEx_PeriphCLKConfig>:
 8002ec8:	b580      	push	{r7, lr}
 8002eca:	b086      	sub	sp, #24
 8002ecc:	af00      	add	r7, sp, #0
 8002ece:	6078      	str	r0, [r7, #4]
 8002ed0:	2317      	movs	r3, #23
 8002ed2:	18fb      	adds	r3, r7, r3
 8002ed4:	2200      	movs	r2, #0
 8002ed6:	701a      	strb	r2, [r3, #0]
 8002ed8:	687b      	ldr	r3, [r7, #4]
 8002eda:	681b      	ldr	r3, [r3, #0]
 8002edc:	2220      	movs	r2, #32
 8002ede:	4013      	ands	r3, r2
 8002ee0:	d106      	bne.n	8002ef0 <HAL_RCCEx_PeriphCLKConfig+0x28>
 8002ee2:	687b      	ldr	r3, [r7, #4]
 8002ee4:	681a      	ldr	r2, [r3, #0]
 8002ee6:	2380      	movs	r3, #128	@ 0x80
 8002ee8:	011b      	lsls	r3, r3, #4
 8002eea:	4013      	ands	r3, r2
 8002eec:	d100      	bne.n	8002ef0 <HAL_RCCEx_PeriphCLKConfig+0x28>
 8002eee:	e104      	b.n	80030fa <HAL_RCCEx_PeriphCLKConfig+0x232>
 8002ef0:	4bb9      	ldr	r3, [pc, #740]	@ (80031d8 <HAL_RCCEx_PeriphCLKConfig+0x310>)
 8002ef2:	6b9a      	ldr	r2, [r3, #56]	@ 0x38
 8002ef4:	2380      	movs	r3, #128	@ 0x80
 8002ef6:	055b      	lsls	r3, r3, #21
 8002ef8:	4013      	ands	r3, r2
 8002efa:	d10a      	bne.n	8002f12 <HAL_RCCEx_PeriphCLKConfig+0x4a>
 8002efc:	4bb6      	ldr	r3, [pc, #728]	@ (80031d8 <HAL_RCCEx_PeriphCLKConfig+0x310>)
 8002efe:	6b9a      	ldr	r2, [r3, #56]	@ 0x38
 8002f00:	4bb5      	ldr	r3, [pc, #724]	@ (80031d8 <HAL_RCCEx_PeriphCLKConfig+0x310>)
 8002f02:	2180      	movs	r1, #128	@ 0x80
 8002f04:	0549      	lsls	r1, r1, #21
 8002f06:	430a      	orrs	r2, r1
 8002f08:	639a      	str	r2, [r3, #56]	@ 0x38
 8002f0a:	2317      	movs	r3, #23
 8002f0c:	18fb      	adds	r3, r7, r3
 8002f0e:	2201      	movs	r2, #1
 8002f10:	701a      	strb	r2, [r3, #0]
 8002f12:	4bb2      	ldr	r3, [pc, #712]	@ (80031dc <HAL_RCCEx_PeriphCLKConfig+0x314>)
 8002f14:	681a      	ldr	r2, [r3, #0]
 8002f16:	2380      	movs	r3, #128	@ 0x80
 8002f18:	005b      	lsls	r3, r3, #1
 8002f1a:	4013      	ands	r3, r2
 8002f1c:	d11a      	bne.n	8002f54 <HAL_RCCEx_PeriphCLKConfig+0x8c>
 8002f1e:	4baf      	ldr	r3, [pc, #700]	@ (80031dc <HAL_RCCEx_PeriphCLKConfig+0x314>)
 8002f20:	681a      	ldr	r2, [r3, #0]
 8002f22:	4bae      	ldr	r3, [pc, #696]	@ (80031dc <HAL_RCCEx_PeriphCLKConfig+0x314>)
 8002f24:	2180      	movs	r1, #128	@ 0x80
 8002f26:	0049      	lsls	r1, r1, #1
 8002f28:	430a      	orrs	r2, r1
 8002f2a:	601a      	str	r2, [r3, #0]
 8002f2c:	f7fe f9c4 	bl	80012b8 <HAL_GetTick>
 8002f30:	0003      	movs	r3, r0
 8002f32:	613b      	str	r3, [r7, #16]
 8002f34:	e008      	b.n	8002f48 <HAL_RCCEx_PeriphCLKConfig+0x80>
 8002f36:	f7fe f9bf 	bl	80012b8 <HAL_GetTick>
 8002f3a:	0002      	movs	r2, r0
 8002f3c:	693b      	ldr	r3, [r7, #16]
 8002f3e:	1ad3      	subs	r3, r2, r3
 8002f40:	2b64      	cmp	r3, #100	@ 0x64
 8002f42:	d901      	bls.n	8002f48 <HAL_RCCEx_PeriphCLKConfig+0x80>
 8002f44:	2303      	movs	r3, #3
 8002f46:	e143      	b.n	80031d0 <HAL_RCCEx_PeriphCLKConfig+0x308>
 8002f48:	4ba4      	ldr	r3, [pc, #656]	@ (80031dc <HAL_RCCEx_PeriphCLKConfig+0x314>)
 8002f4a:	681a      	ldr	r2, [r3, #0]
 8002f4c:	2380      	movs	r3, #128	@ 0x80
 8002f4e:	005b      	lsls	r3, r3, #1
 8002f50:	4013      	ands	r3, r2
 8002f52:	d0f0      	beq.n	8002f36 <HAL_RCCEx_PeriphCLKConfig+0x6e>
 8002f54:	4ba0      	ldr	r3, [pc, #640]	@ (80031d8 <HAL_RCCEx_PeriphCLKConfig+0x310>)
 8002f56:	681a      	ldr	r2, [r3, #0]
 8002f58:	23c0      	movs	r3, #192	@ 0xc0
 8002f5a:	039b      	lsls	r3, r3, #14
 8002f5c:	4013      	ands	r3, r2
 8002f5e:	60fb      	str	r3, [r7, #12]
 8002f60:	687b      	ldr	r3, [r7, #4]
 8002f62:	685a      	ldr	r2, [r3, #4]
 8002f64:	23c0      	movs	r3, #192	@ 0xc0
 8002f66:	039b      	lsls	r3, r3, #14
 8002f68:	4013      	ands	r3, r2
 8002f6a:	68fa      	ldr	r2, [r7, #12]
 8002f6c:	429a      	cmp	r2, r3
 8002f6e:	d107      	bne.n	8002f80 <HAL_RCCEx_PeriphCLKConfig+0xb8>
 8002f70:	687b      	ldr	r3, [r7, #4]
 8002f72:	689a      	ldr	r2, [r3, #8]
 8002f74:	23c0      	movs	r3, #192	@ 0xc0
 8002f76:	039b      	lsls	r3, r3, #14
 8002f78:	4013      	ands	r3, r2
 8002f7a:	68fa      	ldr	r2, [r7, #12]
 8002f7c:	429a      	cmp	r2, r3
 8002f7e:	d013      	beq.n	8002fa8 <HAL_RCCEx_PeriphCLKConfig+0xe0>
 8002f80:	687b      	ldr	r3, [r7, #4]
 8002f82:	685a      	ldr	r2, [r3, #4]
 8002f84:	23c0      	movs	r3, #192	@ 0xc0
 8002f86:	029b      	lsls	r3, r3, #10
 8002f88:	401a      	ands	r2, r3
 8002f8a:	23c0      	movs	r3, #192	@ 0xc0
 8002f8c:	029b      	lsls	r3, r3, #10
 8002f8e:	429a      	cmp	r2, r3
 8002f90:	d10a      	bne.n	8002fa8 <HAL_RCCEx_PeriphCLKConfig+0xe0>
 8002f92:	4b91      	ldr	r3, [pc, #580]	@ (80031d8 <HAL_RCCEx_PeriphCLKConfig+0x310>)
 8002f94:	681a      	ldr	r2, [r3, #0]
 8002f96:	2380      	movs	r3, #128	@ 0x80
 8002f98:	029b      	lsls	r3, r3, #10
 8002f9a:	401a      	ands	r2, r3
 8002f9c:	2380      	movs	r3, #128	@ 0x80
 8002f9e:	029b      	lsls	r3, r3, #10
 8002fa0:	429a      	cmp	r2, r3
 8002fa2:	d101      	bne.n	8002fa8 <HAL_RCCEx_PeriphCLKConfig+0xe0>
 8002fa4:	2301      	movs	r3, #1
 8002fa6:	e113      	b.n	80031d0 <HAL_RCCEx_PeriphCLKConfig+0x308>
 8002fa8:	4b8b      	ldr	r3, [pc, #556]	@ (80031d8 <HAL_RCCEx_PeriphCLKConfig+0x310>)
 8002faa:	6d1a      	ldr	r2, [r3, #80]	@ 0x50
 8002fac:	23c0      	movs	r3, #192	@ 0xc0
 8002fae:	029b      	lsls	r3, r3, #10
 8002fb0:	4013      	ands	r3, r2
 8002fb2:	60fb      	str	r3, [r7, #12]
 8002fb4:	68fb      	ldr	r3, [r7, #12]
 8002fb6:	2b00      	cmp	r3, #0
 8002fb8:	d049      	beq.n	800304e <HAL_RCCEx_PeriphCLKConfig+0x186>
 8002fba:	687b      	ldr	r3, [r7, #4]
 8002fbc:	685a      	ldr	r2, [r3, #4]
 8002fbe:	23c0      	movs	r3, #192	@ 0xc0
 8002fc0:	029b      	lsls	r3, r3, #10
 8002fc2:	4013      	ands	r3, r2
 8002fc4:	68fa      	ldr	r2, [r7, #12]
 8002fc6:	429a      	cmp	r2, r3
 8002fc8:	d004      	beq.n	8002fd4 <HAL_RCCEx_PeriphCLKConfig+0x10c>
 8002fca:	687b      	ldr	r3, [r7, #4]
 8002fcc:	681b      	ldr	r3, [r3, #0]
 8002fce:	2220      	movs	r2, #32
 8002fd0:	4013      	ands	r3, r2
 8002fd2:	d10d      	bne.n	8002ff0 <HAL_RCCEx_PeriphCLKConfig+0x128>
 8002fd4:	687b      	ldr	r3, [r7, #4]
 8002fd6:	689a      	ldr	r2, [r3, #8]
 8002fd8:	23c0      	movs	r3, #192	@ 0xc0
 8002fda:	029b      	lsls	r3, r3, #10
 8002fdc:	4013      	ands	r3, r2
 8002fde:	68fa      	ldr	r2, [r7, #12]
 8002fe0:	429a      	cmp	r2, r3
 8002fe2:	d034      	beq.n	800304e <HAL_RCCEx_PeriphCLKConfig+0x186>
 8002fe4:	687b      	ldr	r3, [r7, #4]
 8002fe6:	681a      	ldr	r2, [r3, #0]
 8002fe8:	2380      	movs	r3, #128	@ 0x80
 8002fea:	011b      	lsls	r3, r3, #4
 8002fec:	4013      	ands	r3, r2
 8002fee:	d02e      	beq.n	800304e <HAL_RCCEx_PeriphCLKConfig+0x186>
 8002ff0:	4b79      	ldr	r3, [pc, #484]	@ (80031d8 <HAL_RCCEx_PeriphCLKConfig+0x310>)
 8002ff2:	6d1b      	ldr	r3, [r3, #80]	@ 0x50
 8002ff4:	4a7a      	ldr	r2, [pc, #488]	@ (80031e0 <HAL_RCCEx_PeriphCLKConfig+0x318>)
 8002ff6:	4013      	ands	r3, r2
 8002ff8:	60fb      	str	r3, [r7, #12]
 8002ffa:	4b77      	ldr	r3, [pc, #476]	@ (80031d8 <HAL_RCCEx_PeriphCLKConfig+0x310>)
 8002ffc:	6d1a      	ldr	r2, [r3, #80]	@ 0x50
 8002ffe:	4b76      	ldr	r3, [pc, #472]	@ (80031d8 <HAL_RCCEx_PeriphCLKConfig+0x310>)
 8003000:	2180      	movs	r1, #128	@ 0x80
 8003002:	0309      	lsls	r1, r1, #12
 8003004:	430a      	orrs	r2, r1
 8003006:	651a      	str	r2, [r3, #80]	@ 0x50
 8003008:	4b73      	ldr	r3, [pc, #460]	@ (80031d8 <HAL_RCCEx_PeriphCLKConfig+0x310>)
 800300a:	6d1a      	ldr	r2, [r3, #80]	@ 0x50
 800300c:	4b72      	ldr	r3, [pc, #456]	@ (80031d8 <HAL_RCCEx_PeriphCLKConfig+0x310>)
 800300e:	4975      	ldr	r1, [pc, #468]	@ (80031e4 <HAL_RCCEx_PeriphCLKConfig+0x31c>)
 8003010:	400a      	ands	r2, r1
 8003012:	651a      	str	r2, [r3, #80]	@ 0x50
 8003014:	4b70      	ldr	r3, [pc, #448]	@ (80031d8 <HAL_RCCEx_PeriphCLKConfig+0x310>)
 8003016:	68fa      	ldr	r2, [r7, #12]
 8003018:	651a      	str	r2, [r3, #80]	@ 0x50
 800301a:	68fa      	ldr	r2, [r7, #12]
 800301c:	2380      	movs	r3, #128	@ 0x80
 800301e:	005b      	lsls	r3, r3, #1
 8003020:	4013      	ands	r3, r2
 8003022:	d014      	beq.n	800304e <HAL_RCCEx_PeriphCLKConfig+0x186>
 8003024:	f7fe f948 	bl	80012b8 <HAL_GetTick>
 8003028:	0003      	movs	r3, r0
 800302a:	613b      	str	r3, [r7, #16]
 800302c:	e009      	b.n	8003042 <HAL_RCCEx_PeriphCLKConfig+0x17a>
 800302e:	f7fe f943 	bl	80012b8 <HAL_GetTick>
 8003032:	0002      	movs	r2, r0
 8003034:	693b      	ldr	r3, [r7, #16]
 8003036:	1ad3      	subs	r3, r2, r3
 8003038:	4a6b      	ldr	r2, [pc, #428]	@ (80031e8 <HAL_RCCEx_PeriphCLKConfig+0x320>)
 800303a:	4293      	cmp	r3, r2
 800303c:	d901      	bls.n	8003042 <HAL_RCCEx_PeriphCLKConfig+0x17a>
 800303e:	2303      	movs	r3, #3
 8003040:	e0c6      	b.n	80031d0 <HAL_RCCEx_PeriphCLKConfig+0x308>
 8003042:	4b65      	ldr	r3, [pc, #404]	@ (80031d8 <HAL_RCCEx_PeriphCLKConfig+0x310>)
 8003044:	6d1a      	ldr	r2, [r3, #80]	@ 0x50
 8003046:	2380      	movs	r3, #128	@ 0x80
 8003048:	009b      	lsls	r3, r3, #2
 800304a:	4013      	ands	r3, r2
 800304c:	d0ef      	beq.n	800302e <HAL_RCCEx_PeriphCLKConfig+0x166>
 800304e:	687b      	ldr	r3, [r7, #4]
 8003050:	681a      	ldr	r2, [r3, #0]
 8003052:	2380      	movs	r3, #128	@ 0x80
 8003054:	011b      	lsls	r3, r3, #4
 8003056:	4013      	ands	r3, r2
 8003058:	d01f      	beq.n	800309a <HAL_RCCEx_PeriphCLKConfig+0x1d2>
 800305a:	687b      	ldr	r3, [r7, #4]
 800305c:	689a      	ldr	r2, [r3, #8]
 800305e:	23c0      	movs	r3, #192	@ 0xc0
 8003060:	029b      	lsls	r3, r3, #10
 8003062:	401a      	ands	r2, r3
 8003064:	23c0      	movs	r3, #192	@ 0xc0
 8003066:	029b      	lsls	r3, r3, #10
 8003068:	429a      	cmp	r2, r3
 800306a:	d10c      	bne.n	8003086 <HAL_RCCEx_PeriphCLKConfig+0x1be>
 800306c:	4b5a      	ldr	r3, [pc, #360]	@ (80031d8 <HAL_RCCEx_PeriphCLKConfig+0x310>)
 800306e:	681b      	ldr	r3, [r3, #0]
 8003070:	4a5e      	ldr	r2, [pc, #376]	@ (80031ec <HAL_RCCEx_PeriphCLKConfig+0x324>)
 8003072:	4013      	ands	r3, r2
 8003074:	0019      	movs	r1, r3
 8003076:	687b      	ldr	r3, [r7, #4]
 8003078:	689a      	ldr	r2, [r3, #8]
 800307a:	23c0      	movs	r3, #192	@ 0xc0
 800307c:	039b      	lsls	r3, r3, #14
 800307e:	401a      	ands	r2, r3
 8003080:	4b55      	ldr	r3, [pc, #340]	@ (80031d8 <HAL_RCCEx_PeriphCLKConfig+0x310>)
 8003082:	430a      	orrs	r2, r1
 8003084:	601a      	str	r2, [r3, #0]
 8003086:	4b54      	ldr	r3, [pc, #336]	@ (80031d8 <HAL_RCCEx_PeriphCLKConfig+0x310>)
 8003088:	6d19      	ldr	r1, [r3, #80]	@ 0x50
 800308a:	687b      	ldr	r3, [r7, #4]
 800308c:	689a      	ldr	r2, [r3, #8]
 800308e:	23c0      	movs	r3, #192	@ 0xc0
 8003090:	029b      	lsls	r3, r3, #10
 8003092:	401a      	ands	r2, r3
 8003094:	4b50      	ldr	r3, [pc, #320]	@ (80031d8 <HAL_RCCEx_PeriphCLKConfig+0x310>)
 8003096:	430a      	orrs	r2, r1
 8003098:	651a      	str	r2, [r3, #80]	@ 0x50
 800309a:	687b      	ldr	r3, [r7, #4]
 800309c:	681b      	ldr	r3, [r3, #0]
 800309e:	2220      	movs	r2, #32
 80030a0:	4013      	ands	r3, r2
 80030a2:	d01f      	beq.n	80030e4 <HAL_RCCEx_PeriphCLKConfig+0x21c>
 80030a4:	687b      	ldr	r3, [r7, #4]
 80030a6:	685a      	ldr	r2, [r3, #4]
 80030a8:	23c0      	movs	r3, #192	@ 0xc0
 80030aa:	029b      	lsls	r3, r3, #10
 80030ac:	401a      	ands	r2, r3
 80030ae:	23c0      	movs	r3, #192	@ 0xc0
 80030b0:	029b      	lsls	r3, r3, #10
 80030b2:	429a      	cmp	r2, r3
 80030b4:	d10c      	bne.n	80030d0 <HAL_RCCEx_PeriphCLKConfig+0x208>
 80030b6:	4b48      	ldr	r3, [pc, #288]	@ (80031d8 <HAL_RCCEx_PeriphCLKConfig+0x310>)
 80030b8:	681b      	ldr	r3, [r3, #0]
 80030ba:	4a4c      	ldr	r2, [pc, #304]	@ (80031ec <HAL_RCCEx_PeriphCLKConfig+0x324>)
 80030bc:	4013      	ands	r3, r2
 80030be:	0019      	movs	r1, r3
 80030c0:	687b      	ldr	r3, [r7, #4]
 80030c2:	685a      	ldr	r2, [r3, #4]
 80030c4:	23c0      	movs	r3, #192	@ 0xc0
 80030c6:	039b      	lsls	r3, r3, #14
 80030c8:	401a      	ands	r2, r3
 80030ca:	4b43      	ldr	r3, [pc, #268]	@ (80031d8 <HAL_RCCEx_PeriphCLKConfig+0x310>)
 80030cc:	430a      	orrs	r2, r1
 80030ce:	601a      	str	r2, [r3, #0]
 80030d0:	4b41      	ldr	r3, [pc, #260]	@ (80031d8 <HAL_RCCEx_PeriphCLKConfig+0x310>)
 80030d2:	6d19      	ldr	r1, [r3, #80]	@ 0x50
 80030d4:	687b      	ldr	r3, [r7, #4]
 80030d6:	685a      	ldr	r2, [r3, #4]
 80030d8:	23c0      	movs	r3, #192	@ 0xc0
 80030da:	029b      	lsls	r3, r3, #10
 80030dc:	401a      	ands	r2, r3
 80030de:	4b3e      	ldr	r3, [pc, #248]	@ (80031d8 <HAL_RCCEx_PeriphCLKConfig+0x310>)
 80030e0:	430a      	orrs	r2, r1
 80030e2:	651a      	str	r2, [r3, #80]	@ 0x50
 80030e4:	2317      	movs	r3, #23
 80030e6:	18fb      	adds	r3, r7, r3
 80030e8:	781b      	ldrb	r3, [r3, #0]
 80030ea:	2b01      	cmp	r3, #1
 80030ec:	d105      	bne.n	80030fa <HAL_RCCEx_PeriphCLKConfig+0x232>
 80030ee:	4b3a      	ldr	r3, [pc, #232]	@ (80031d8 <HAL_RCCEx_PeriphCLKConfig+0x310>)
 80030f0:	6b9a      	ldr	r2, [r3, #56]	@ 0x38
 80030f2:	4b39      	ldr	r3, [pc, #228]	@ (80031d8 <HAL_RCCEx_PeriphCLKConfig+0x310>)
 80030f4:	493e      	ldr	r1, [pc, #248]	@ (80031f0 <HAL_RCCEx_PeriphCLKConfig+0x328>)
 80030f6:	400a      	ands	r2, r1
 80030f8:	639a      	str	r2, [r3, #56]	@ 0x38
 80030fa:	687b      	ldr	r3, [r7, #4]
 80030fc:	681b      	ldr	r3, [r3, #0]
 80030fe:	2201      	movs	r2, #1
 8003100:	4013      	ands	r3, r2
 8003102:	d009      	beq.n	8003118 <HAL_RCCEx_PeriphCLKConfig+0x250>
 8003104:	4b34      	ldr	r3, [pc, #208]	@ (80031d8 <HAL_RCCEx_PeriphCLKConfig+0x310>)
 8003106:	6cdb      	ldr	r3, [r3, #76]	@ 0x4c
 8003108:	2203      	movs	r2, #3
 800310a:	4393      	bics	r3, r2
 800310c:	0019      	movs	r1, r3
 800310e:	687b      	ldr	r3, [r7, #4]
 8003110:	68da      	ldr	r2, [r3, #12]
 8003112:	4b31      	ldr	r3, [pc, #196]	@ (80031d8 <HAL_RCCEx_PeriphCLKConfig+0x310>)
 8003114:	430a      	orrs	r2, r1
 8003116:	64da      	str	r2, [r3, #76]	@ 0x4c
 8003118:	687b      	ldr	r3, [r7, #4]
 800311a:	681b      	ldr	r3, [r3, #0]
 800311c:	2202      	movs	r2, #2
 800311e:	4013      	ands	r3, r2
 8003120:	d009      	beq.n	8003136 <HAL_RCCEx_PeriphCLKConfig+0x26e>
 8003122:	4b2d      	ldr	r3, [pc, #180]	@ (80031d8 <HAL_RCCEx_PeriphCLKConfig+0x310>)
 8003124:	6cdb      	ldr	r3, [r3, #76]	@ 0x4c
 8003126:	220c      	movs	r2, #12
 8003128:	4393      	bics	r3, r2
 800312a:	0019      	movs	r1, r3
 800312c:	687b      	ldr	r3, [r7, #4]
 800312e:	691a      	ldr	r2, [r3, #16]
 8003130:	4b29      	ldr	r3, [pc, #164]	@ (80031d8 <HAL_RCCEx_PeriphCLKConfig+0x310>)
 8003132:	430a      	orrs	r2, r1
 8003134:	64da      	str	r2, [r3, #76]	@ 0x4c
 8003136:	687b      	ldr	r3, [r7, #4]
 8003138:	681b      	ldr	r3, [r3, #0]
 800313a:	2204      	movs	r2, #4
 800313c:	4013      	ands	r3, r2
 800313e:	d009      	beq.n	8003154 <HAL_RCCEx_PeriphCLKConfig+0x28c>
 8003140:	4b25      	ldr	r3, [pc, #148]	@ (80031d8 <HAL_RCCEx_PeriphCLKConfig+0x310>)
 8003142:	6cdb      	ldr	r3, [r3, #76]	@ 0x4c
 8003144:	4a2b      	ldr	r2, [pc, #172]	@ (80031f4 <HAL_RCCEx_PeriphCLKConfig+0x32c>)
 8003146:	4013      	ands	r3, r2
 8003148:	0019      	movs	r1, r3
 800314a:	687b      	ldr	r3, [r7, #4]
 800314c:	695a      	ldr	r2, [r3, #20]
 800314e:	4b22      	ldr	r3, [pc, #136]	@ (80031d8 <HAL_RCCEx_PeriphCLKConfig+0x310>)
 8003150:	430a      	orrs	r2, r1
 8003152:	64da      	str	r2, [r3, #76]	@ 0x4c
 8003154:	687b      	ldr	r3, [r7, #4]
 8003156:	681b      	ldr	r3, [r3, #0]
 8003158:	2208      	movs	r2, #8
 800315a:	4013      	ands	r3, r2
 800315c:	d009      	beq.n	8003172 <HAL_RCCEx_PeriphCLKConfig+0x2aa>
 800315e:	4b1e      	ldr	r3, [pc, #120]	@ (80031d8 <HAL_RCCEx_PeriphCLKConfig+0x310>)
 8003160:	6cdb      	ldr	r3, [r3, #76]	@ 0x4c
 8003162:	4a25      	ldr	r2, [pc, #148]	@ (80031f8 <HAL_RCCEx_PeriphCLKConfig+0x330>)
 8003164:	4013      	ands	r3, r2
 8003166:	0019      	movs	r1, r3
 8003168:	687b      	ldr	r3, [r7, #4]
 800316a:	699a      	ldr	r2, [r3, #24]
 800316c:	4b1a      	ldr	r3, [pc, #104]	@ (80031d8 <HAL_RCCEx_PeriphCLKConfig+0x310>)
 800316e:	430a      	orrs	r2, r1
 8003170:	64da      	str	r2, [r3, #76]	@ 0x4c
 8003172:	687b      	ldr	r3, [r7, #4]
 8003174:	681a      	ldr	r2, [r3, #0]
 8003176:	2380      	movs	r3, #128	@ 0x80
 8003178:	005b      	lsls	r3, r3, #1
 800317a:	4013      	ands	r3, r2
 800317c:	d009      	beq.n	8003192 <HAL_RCCEx_PeriphCLKConfig+0x2ca>
 800317e:	4b16      	ldr	r3, [pc, #88]	@ (80031d8 <HAL_RCCEx_PeriphCLKConfig+0x310>)
 8003180:	6cdb      	ldr	r3, [r3, #76]	@ 0x4c
 8003182:	4a17      	ldr	r2, [pc, #92]	@ (80031e0 <HAL_RCCEx_PeriphCLKConfig+0x318>)
 8003184:	4013      	ands	r3, r2
 8003186:	0019      	movs	r1, r3
 8003188:	687b      	ldr	r3, [r7, #4]
 800318a:	69da      	ldr	r2, [r3, #28]
 800318c:	4b12      	ldr	r3, [pc, #72]	@ (80031d8 <HAL_RCCEx_PeriphCLKConfig+0x310>)
 800318e:	430a      	orrs	r2, r1
 8003190:	64da      	str	r2, [r3, #76]	@ 0x4c
 8003192:	687b      	ldr	r3, [r7, #4]
 8003194:	681b      	ldr	r3, [r3, #0]
 8003196:	2240      	movs	r2, #64	@ 0x40
 8003198:	4013      	ands	r3, r2
 800319a:	d009      	beq.n	80031b0 <HAL_RCCEx_PeriphCLKConfig+0x2e8>
 800319c:	4b0e      	ldr	r3, [pc, #56]	@ (80031d8 <HAL_RCCEx_PeriphCLKConfig+0x310>)
 800319e:	6cdb      	ldr	r3, [r3, #76]	@ 0x4c
 80031a0:	4a16      	ldr	r2, [pc, #88]	@ (80031fc <HAL_RCCEx_PeriphCLKConfig+0x334>)
 80031a2:	4013      	ands	r3, r2
 80031a4:	0019      	movs	r1, r3
 80031a6:	687b      	ldr	r3, [r7, #4]
 80031a8:	6a5a      	ldr	r2, [r3, #36]	@ 0x24
 80031aa:	4b0b      	ldr	r3, [pc, #44]	@ (80031d8 <HAL_RCCEx_PeriphCLKConfig+0x310>)
 80031ac:	430a      	orrs	r2, r1
 80031ae:	64da      	str	r2, [r3, #76]	@ 0x4c
 80031b0:	687b      	ldr	r3, [r7, #4]
 80031b2:	681b      	ldr	r3, [r3, #0]
 80031b4:	2280      	movs	r2, #128	@ 0x80
 80031b6:	4013      	ands	r3, r2
 80031b8:	d009      	beq.n	80031ce <HAL_RCCEx_PeriphCLKConfig+0x306>
 80031ba:	4b07      	ldr	r3, [pc, #28]	@ (80031d8 <HAL_RCCEx_PeriphCLKConfig+0x310>)
 80031bc:	6cdb      	ldr	r3, [r3, #76]	@ 0x4c
 80031be:	4a10      	ldr	r2, [pc, #64]	@ (8003200 <HAL_RCCEx_PeriphCLKConfig+0x338>)
 80031c0:	4013      	ands	r3, r2
 80031c2:	0019      	movs	r1, r3
 80031c4:	687b      	ldr	r3, [r7, #4]
 80031c6:	6a1a      	ldr	r2, [r3, #32]
 80031c8:	4b03      	ldr	r3, [pc, #12]	@ (80031d8 <HAL_RCCEx_PeriphCLKConfig+0x310>)
 80031ca:	430a      	orrs	r2, r1
 80031cc:	64da      	str	r2, [r3, #76]	@ 0x4c
 80031ce:	2300      	movs	r3, #0
 80031d0:	0018      	movs	r0, r3
 80031d2:	46bd      	mov	sp, r7
 80031d4:	b006      	add	sp, #24
 80031d6:	bd80      	pop	{r7, pc}
 80031d8:	40021000 	.word	0x40021000
 80031dc:	40007000 	.word	0x40007000
 80031e0:	fffcffff 	.word	0xfffcffff
 80031e4:	fff7ffff 	.word	0xfff7ffff
 80031e8:	00001388 	.word	0x00001388
 80031ec:	ffcfffff 	.word	0xffcfffff
 80031f0:	efffffff 	.word	0xefffffff
 80031f4:	fffff3ff 	.word	0xfffff3ff
 80031f8:	ffffcfff 	.word	0xffffcfff
 80031fc:	fbffffff 	.word	0xfbffffff
 8003200:	fff3ffff 	.word	0xfff3ffff

08003204 <HAL_RTC_Init>:
 8003204:	b5b0      	push	{r4, r5, r7, lr}
 8003206:	b084      	sub	sp, #16
 8003208:	af00      	add	r7, sp, #0
 800320a:	6078      	str	r0, [r7, #4]
 800320c:	230f      	movs	r3, #15
 800320e:	18fb      	adds	r3, r7, r3
 8003210:	2201      	movs	r2, #1
 8003212:	701a      	strb	r2, [r3, #0]
 8003214:	687b      	ldr	r3, [r7, #4]
 8003216:	2b00      	cmp	r3, #0
 8003218:	d101      	bne.n	800321e <HAL_RTC_Init+0x1a>
 800321a:	2301      	movs	r3, #1
 800321c:	e088      	b.n	8003330 <HAL_RTC_Init+0x12c>
 800321e:	687b      	ldr	r3, [r7, #4]
 8003220:	2221      	movs	r2, #33	@ 0x21
 8003222:	5c9b      	ldrb	r3, [r3, r2]
 8003224:	b2db      	uxtb	r3, r3
 8003226:	2b00      	cmp	r3, #0
 8003228:	d107      	bne.n	800323a <HAL_RTC_Init+0x36>
 800322a:	687b      	ldr	r3, [r7, #4]
 800322c:	2220      	movs	r2, #32
 800322e:	2100      	movs	r1, #0
 8003230:	5499      	strb	r1, [r3, r2]
 8003232:	687b      	ldr	r3, [r7, #4]
 8003234:	0018      	movs	r0, r3
 8003236:	f7fd fd09 	bl	8000c4c <HAL_RTC_MspInit>
 800323a:	687b      	ldr	r3, [r7, #4]
 800323c:	2221      	movs	r2, #33	@ 0x21
 800323e:	2102      	movs	r1, #2
 8003240:	5499      	strb	r1, [r3, r2]
 8003242:	687b      	ldr	r3, [r7, #4]
 8003244:	681b      	ldr	r3, [r3, #0]
 8003246:	68db      	ldr	r3, [r3, #12]
 8003248:	2210      	movs	r2, #16
 800324a:	4013      	ands	r3, r2
 800324c:	2b10      	cmp	r3, #16
 800324e:	d05f      	beq.n	8003310 <HAL_RTC_Init+0x10c>
 8003250:	687b      	ldr	r3, [r7, #4]
 8003252:	681b      	ldr	r3, [r3, #0]
 8003254:	22ca      	movs	r2, #202	@ 0xca
 8003256:	625a      	str	r2, [r3, #36]	@ 0x24
 8003258:	687b      	ldr	r3, [r7, #4]
 800325a:	681b      	ldr	r3, [r3, #0]
 800325c:	2253      	movs	r2, #83	@ 0x53
 800325e:	625a      	str	r2, [r3, #36]	@ 0x24
 8003260:	250f      	movs	r5, #15
 8003262:	197c      	adds	r4, r7, r5
 8003264:	687b      	ldr	r3, [r7, #4]
 8003266:	0018      	movs	r0, r3
 8003268:	f000 f93e 	bl	80034e8 <RTC_EnterInitMode>
 800326c:	0003      	movs	r3, r0
 800326e:	7023      	strb	r3, [r4, #0]
 8003270:	0028      	movs	r0, r5
 8003272:	183b      	adds	r3, r7, r0
 8003274:	781b      	ldrb	r3, [r3, #0]
 8003276:	2b00      	cmp	r3, #0
 8003278:	d12c      	bne.n	80032d4 <HAL_RTC_Init+0xd0>
 800327a:	687b      	ldr	r3, [r7, #4]
 800327c:	681b      	ldr	r3, [r3, #0]
 800327e:	689a      	ldr	r2, [r3, #8]
 8003280:	687b      	ldr	r3, [r7, #4]
 8003282:	681b      	ldr	r3, [r3, #0]
 8003284:	492c      	ldr	r1, [pc, #176]	@ (8003338 <HAL_RTC_Init+0x134>)
 8003286:	400a      	ands	r2, r1
 8003288:	609a      	str	r2, [r3, #8]
 800328a:	687b      	ldr	r3, [r7, #4]
 800328c:	681b      	ldr	r3, [r3, #0]
 800328e:	6899      	ldr	r1, [r3, #8]
 8003290:	687b      	ldr	r3, [r7, #4]
 8003292:	685a      	ldr	r2, [r3, #4]
 8003294:	687b      	ldr	r3, [r7, #4]
 8003296:	691b      	ldr	r3, [r3, #16]
 8003298:	431a      	orrs	r2, r3
 800329a:	687b      	ldr	r3, [r7, #4]
 800329c:	699b      	ldr	r3, [r3, #24]
 800329e:	431a      	orrs	r2, r3
 80032a0:	687b      	ldr	r3, [r7, #4]
 80032a2:	681b      	ldr	r3, [r3, #0]
 80032a4:	430a      	orrs	r2, r1
 80032a6:	609a      	str	r2, [r3, #8]
 80032a8:	687b      	ldr	r3, [r7, #4]
 80032aa:	681b      	ldr	r3, [r3, #0]
 80032ac:	687a      	ldr	r2, [r7, #4]
 80032ae:	68d2      	ldr	r2, [r2, #12]
 80032b0:	611a      	str	r2, [r3, #16]
 80032b2:	687b      	ldr	r3, [r7, #4]
 80032b4:	681b      	ldr	r3, [r3, #0]
 80032b6:	6919      	ldr	r1, [r3, #16]
 80032b8:	687b      	ldr	r3, [r7, #4]
 80032ba:	689b      	ldr	r3, [r3, #8]
 80032bc:	041a      	lsls	r2, r3, #16
 80032be:	687b      	ldr	r3, [r7, #4]
 80032c0:	681b      	ldr	r3, [r3, #0]
 80032c2:	430a      	orrs	r2, r1
 80032c4:	611a      	str	r2, [r3, #16]
 80032c6:	183c      	adds	r4, r7, r0
 80032c8:	687b      	ldr	r3, [r7, #4]
 80032ca:	0018      	movs	r0, r3
 80032cc:	f000 f950 	bl	8003570 <RTC_ExitInitMode>
 80032d0:	0003      	movs	r3, r0
 80032d2:	7023      	strb	r3, [r4, #0]
 80032d4:	230f      	movs	r3, #15
 80032d6:	18fb      	adds	r3, r7, r3
 80032d8:	781b      	ldrb	r3, [r3, #0]
 80032da:	2b00      	cmp	r3, #0
 80032dc:	d113      	bne.n	8003306 <HAL_RTC_Init+0x102>
 80032de:	687b      	ldr	r3, [r7, #4]
 80032e0:	681b      	ldr	r3, [r3, #0]
 80032e2:	6cda      	ldr	r2, [r3, #76]	@ 0x4c
 80032e4:	687b      	ldr	r3, [r7, #4]
 80032e6:	681b      	ldr	r3, [r3, #0]
 80032e8:	2103      	movs	r1, #3
 80032ea:	438a      	bics	r2, r1
 80032ec:	64da      	str	r2, [r3, #76]	@ 0x4c
 80032ee:	687b      	ldr	r3, [r7, #4]
 80032f0:	681b      	ldr	r3, [r3, #0]
 80032f2:	6cd9      	ldr	r1, [r3, #76]	@ 0x4c
 80032f4:	687b      	ldr	r3, [r7, #4]
 80032f6:	69da      	ldr	r2, [r3, #28]
 80032f8:	687b      	ldr	r3, [r7, #4]
 80032fa:	695b      	ldr	r3, [r3, #20]
 80032fc:	431a      	orrs	r2, r3
 80032fe:	687b      	ldr	r3, [r7, #4]
 8003300:	681b      	ldr	r3, [r3, #0]
 8003302:	430a      	orrs	r2, r1
 8003304:	64da      	str	r2, [r3, #76]	@ 0x4c
 8003306:	687b      	ldr	r3, [r7, #4]
 8003308:	681b      	ldr	r3, [r3, #0]
 800330a:	22ff      	movs	r2, #255	@ 0xff
 800330c:	625a      	str	r2, [r3, #36]	@ 0x24
 800330e:	e003      	b.n	8003318 <HAL_RTC_Init+0x114>
 8003310:	230f      	movs	r3, #15
 8003312:	18fb      	adds	r3, r7, r3
 8003314:	2200      	movs	r2, #0
 8003316:	701a      	strb	r2, [r3, #0]
 8003318:	230f      	movs	r3, #15
 800331a:	18fb      	adds	r3, r7, r3
 800331c:	781b      	ldrb	r3, [r3, #0]
 800331e:	2b00      	cmp	r3, #0
 8003320:	d103      	bne.n	800332a <HAL_RTC_Init+0x126>
 8003322:	687b      	ldr	r3, [r7, #4]
 8003324:	2221      	movs	r2, #33	@ 0x21
 8003326:	2101      	movs	r1, #1
 8003328:	5499      	strb	r1, [r3, r2]
 800332a:	230f      	movs	r3, #15
 800332c:	18fb      	adds	r3, r7, r3
 800332e:	781b      	ldrb	r3, [r3, #0]
 8003330:	0018      	movs	r0, r3
 8003332:	46bd      	mov	sp, r7
 8003334:	b004      	add	sp, #16
 8003336:	bdb0      	pop	{r4, r5, r7, pc}
 8003338:	ff8fffbf 	.word	0xff8fffbf

0800333c <HAL_RTC_GetTime>:
 800333c:	b580      	push	{r7, lr}
 800333e:	b086      	sub	sp, #24
 8003340:	af00      	add	r7, sp, #0
 8003342:	60f8      	str	r0, [r7, #12]
 8003344:	60b9      	str	r1, [r7, #8]
 8003346:	607a      	str	r2, [r7, #4]
 8003348:	2300      	movs	r3, #0
 800334a:	617b      	str	r3, [r7, #20]
 800334c:	68fb      	ldr	r3, [r7, #12]
 800334e:	681b      	ldr	r3, [r3, #0]
 8003350:	6a9a      	ldr	r2, [r3, #40]	@ 0x28
 8003352:	68bb      	ldr	r3, [r7, #8]
 8003354:	605a      	str	r2, [r3, #4]
 8003356:	68fb      	ldr	r3, [r7, #12]
 8003358:	681b      	ldr	r3, [r3, #0]
 800335a:	691b      	ldr	r3, [r3, #16]
 800335c:	045b      	lsls	r3, r3, #17
 800335e:	0c5a      	lsrs	r2, r3, #17
 8003360:	68bb      	ldr	r3, [r7, #8]
 8003362:	609a      	str	r2, [r3, #8]
 8003364:	68fb      	ldr	r3, [r7, #12]
 8003366:	681b      	ldr	r3, [r3, #0]
 8003368:	681b      	ldr	r3, [r3, #0]
 800336a:	4a22      	ldr	r2, [pc, #136]	@ (80033f4 <HAL_RTC_GetTime+0xb8>)
 800336c:	4013      	ands	r3, r2
 800336e:	617b      	str	r3, [r7, #20]
 8003370:	697b      	ldr	r3, [r7, #20]
 8003372:	0c1b      	lsrs	r3, r3, #16
 8003374:	b2db      	uxtb	r3, r3
 8003376:	223f      	movs	r2, #63	@ 0x3f
 8003378:	4013      	ands	r3, r2
 800337a:	b2da      	uxtb	r2, r3
 800337c:	68bb      	ldr	r3, [r7, #8]
 800337e:	701a      	strb	r2, [r3, #0]
 8003380:	697b      	ldr	r3, [r7, #20]
 8003382:	0a1b      	lsrs	r3, r3, #8
 8003384:	b2db      	uxtb	r3, r3
 8003386:	227f      	movs	r2, #127	@ 0x7f
 8003388:	4013      	ands	r3, r2
 800338a:	b2da      	uxtb	r2, r3
 800338c:	68bb      	ldr	r3, [r7, #8]
 800338e:	705a      	strb	r2, [r3, #1]
 8003390:	697b      	ldr	r3, [r7, #20]
 8003392:	b2db      	uxtb	r3, r3
 8003394:	227f      	movs	r2, #127	@ 0x7f
 8003396:	4013      	ands	r3, r2
 8003398:	b2da      	uxtb	r2, r3
 800339a:	68bb      	ldr	r3, [r7, #8]
 800339c:	709a      	strb	r2, [r3, #2]
 800339e:	697b      	ldr	r3, [r7, #20]
 80033a0:	0d9b      	lsrs	r3, r3, #22
 80033a2:	b2db      	uxtb	r3, r3
 80033a4:	2201      	movs	r2, #1
 80033a6:	4013      	ands	r3, r2
 80033a8:	b2da      	uxtb	r2, r3
 80033aa:	68bb      	ldr	r3, [r7, #8]
 80033ac:	70da      	strb	r2, [r3, #3]
 80033ae:	687b      	ldr	r3, [r7, #4]
 80033b0:	2b00      	cmp	r3, #0
 80033b2:	d11a      	bne.n	80033ea <HAL_RTC_GetTime+0xae>
 80033b4:	68bb      	ldr	r3, [r7, #8]
 80033b6:	781b      	ldrb	r3, [r3, #0]
 80033b8:	0018      	movs	r0, r3
 80033ba:	f000 f903 	bl	80035c4 <RTC_Bcd2ToByte>
 80033be:	0003      	movs	r3, r0
 80033c0:	001a      	movs	r2, r3
 80033c2:	68bb      	ldr	r3, [r7, #8]
 80033c4:	701a      	strb	r2, [r3, #0]
 80033c6:	68bb      	ldr	r3, [r7, #8]
 80033c8:	785b      	ldrb	r3, [r3, #1]
 80033ca:	0018      	movs	r0, r3
 80033cc:	f000 f8fa 	bl	80035c4 <RTC_Bcd2ToByte>
 80033d0:	0003      	movs	r3, r0
 80033d2:	001a      	movs	r2, r3
 80033d4:	68bb      	ldr	r3, [r7, #8]
 80033d6:	705a      	strb	r2, [r3, #1]
 80033d8:	68bb      	ldr	r3, [r7, #8]
 80033da:	789b      	ldrb	r3, [r3, #2]
 80033dc:	0018      	movs	r0, r3
 80033de:	f000 f8f1 	bl	80035c4 <RTC_Bcd2ToByte>
 80033e2:	0003      	movs	r3, r0
 80033e4:	001a      	movs	r2, r3
 80033e6:	68bb      	ldr	r3, [r7, #8]
 80033e8:	709a      	strb	r2, [r3, #2]
 80033ea:	2300      	movs	r3, #0
 80033ec:	0018      	movs	r0, r3
 80033ee:	46bd      	mov	sp, r7
 80033f0:	b006      	add	sp, #24
 80033f2:	bd80      	pop	{r7, pc}
 80033f4:	007f7f7f 	.word	0x007f7f7f

080033f8 <HAL_RTC_GetDate>:
 80033f8:	b580      	push	{r7, lr}
 80033fa:	b086      	sub	sp, #24
 80033fc:	af00      	add	r7, sp, #0
 80033fe:	60f8      	str	r0, [r7, #12]
 8003400:	60b9      	str	r1, [r7, #8]
 8003402:	607a      	str	r2, [r7, #4]
 8003404:	2300      	movs	r3, #0
 8003406:	617b      	str	r3, [r7, #20]
 8003408:	68fb      	ldr	r3, [r7, #12]
 800340a:	681b      	ldr	r3, [r3, #0]
 800340c:	685b      	ldr	r3, [r3, #4]
 800340e:	4a21      	ldr	r2, [pc, #132]	@ (8003494 <HAL_RTC_GetDate+0x9c>)
 8003410:	4013      	ands	r3, r2
 8003412:	617b      	str	r3, [r7, #20]
 8003414:	697b      	ldr	r3, [r7, #20]
 8003416:	0c1b      	lsrs	r3, r3, #16
 8003418:	b2da      	uxtb	r2, r3
 800341a:	68bb      	ldr	r3, [r7, #8]
 800341c:	70da      	strb	r2, [r3, #3]
 800341e:	697b      	ldr	r3, [r7, #20]
 8003420:	0a1b      	lsrs	r3, r3, #8
 8003422:	b2db      	uxtb	r3, r3
 8003424:	221f      	movs	r2, #31
 8003426:	4013      	ands	r3, r2
 8003428:	b2da      	uxtb	r2, r3
 800342a:	68bb      	ldr	r3, [r7, #8]
 800342c:	705a      	strb	r2, [r3, #1]
 800342e:	697b      	ldr	r3, [r7, #20]
 8003430:	b2db      	uxtb	r3, r3
 8003432:	223f      	movs	r2, #63	@ 0x3f
 8003434:	4013      	ands	r3, r2
 8003436:	b2da      	uxtb	r2, r3
 8003438:	68bb      	ldr	r3, [r7, #8]
 800343a:	709a      	strb	r2, [r3, #2]
 800343c:	697b      	ldr	r3, [r7, #20]
 800343e:	0b5b      	lsrs	r3, r3, #13
 8003440:	b2db      	uxtb	r3, r3
 8003442:	2207      	movs	r2, #7
 8003444:	4013      	ands	r3, r2
 8003446:	b2da      	uxtb	r2, r3
 8003448:	68bb      	ldr	r3, [r7, #8]
 800344a:	701a      	strb	r2, [r3, #0]
 800344c:	687b      	ldr	r3, [r7, #4]
 800344e:	2b00      	cmp	r3, #0
 8003450:	d11a      	bne.n	8003488 <HAL_RTC_GetDate+0x90>
 8003452:	68bb      	ldr	r3, [r7, #8]
 8003454:	78db      	ldrb	r3, [r3, #3]
 8003456:	0018      	movs	r0, r3
 8003458:	f000 f8b4 	bl	80035c4 <RTC_Bcd2ToByte>
 800345c:	0003      	movs	r3, r0
 800345e:	001a      	movs	r2, r3
 8003460:	68bb      	ldr	r3, [r7, #8]
 8003462:	70da      	strb	r2, [r3, #3]
 8003464:	68bb      	ldr	r3, [r7, #8]
 8003466:	785b      	ldrb	r3, [r3, #1]
 8003468:	0018      	movs	r0, r3
 800346a:	f000 f8ab 	bl	80035c4 <RTC_Bcd2ToByte>
 800346e:	0003      	movs	r3, r0
 8003470:	001a      	movs	r2, r3
 8003472:	68bb      	ldr	r3, [r7, #8]
 8003474:	705a      	strb	r2, [r3, #1]
 8003476:	68bb      	ldr	r3, [r7, #8]
 8003478:	789b      	ldrb	r3, [r3, #2]
 800347a:	0018      	movs	r0, r3
 800347c:	f000 f8a2 	bl	80035c4 <RTC_Bcd2ToByte>
 8003480:	0003      	movs	r3, r0
 8003482:	001a      	movs	r2, r3
 8003484:	68bb      	ldr	r3, [r7, #8]
 8003486:	709a      	strb	r2, [r3, #2]
 8003488:	2300      	movs	r3, #0
 800348a:	0018      	movs	r0, r3
 800348c:	46bd      	mov	sp, r7
 800348e:	b006      	add	sp, #24
 8003490:	bd80      	pop	{r7, pc}
 8003492:	46c0      	nop			@ (mov r8, r8)
 8003494:	00ffff3f 	.word	0x00ffff3f

08003498 <HAL_RTC_WaitForSynchro>:
 8003498:	b580      	push	{r7, lr}
 800349a:	b084      	sub	sp, #16
 800349c:	af00      	add	r7, sp, #0
 800349e:	6078      	str	r0, [r7, #4]
 80034a0:	2300      	movs	r3, #0
 80034a2:	60fb      	str	r3, [r7, #12]
 80034a4:	687b      	ldr	r3, [r7, #4]
 80034a6:	681b      	ldr	r3, [r3, #0]
 80034a8:	4a0e      	ldr	r2, [pc, #56]	@ (80034e4 <HAL_RTC_WaitForSynchro+0x4c>)
 80034aa:	60da      	str	r2, [r3, #12]
 80034ac:	f7fd ff04 	bl	80012b8 <HAL_GetTick>
 80034b0:	0003      	movs	r3, r0
 80034b2:	60fb      	str	r3, [r7, #12]
 80034b4:	e00a      	b.n	80034cc <HAL_RTC_WaitForSynchro+0x34>
 80034b6:	f7fd feff 	bl	80012b8 <HAL_GetTick>
 80034ba:	0002      	movs	r2, r0
 80034bc:	68fb      	ldr	r3, [r7, #12]
 80034be:	1ad2      	subs	r2, r2, r3
 80034c0:	23fa      	movs	r3, #250	@ 0xfa
 80034c2:	009b      	lsls	r3, r3, #2
 80034c4:	429a      	cmp	r2, r3
 80034c6:	d901      	bls.n	80034cc <HAL_RTC_WaitForSynchro+0x34>
 80034c8:	2303      	movs	r3, #3
 80034ca:	e006      	b.n	80034da <HAL_RTC_WaitForSynchro+0x42>
 80034cc:	687b      	ldr	r3, [r7, #4]
 80034ce:	681b      	ldr	r3, [r3, #0]
 80034d0:	68db      	ldr	r3, [r3, #12]
 80034d2:	2220      	movs	r2, #32
 80034d4:	4013      	ands	r3, r2
 80034d6:	d0ee      	beq.n	80034b6 <HAL_RTC_WaitForSynchro+0x1e>
 80034d8:	2300      	movs	r3, #0
 80034da:	0018      	movs	r0, r3
 80034dc:	46bd      	mov	sp, r7
 80034de:	b004      	add	sp, #16
 80034e0:	bd80      	pop	{r7, pc}
 80034e2:	46c0      	nop			@ (mov r8, r8)
 80034e4:	0001ff5f 	.word	0x0001ff5f

080034e8 <RTC_EnterInitMode>:
 80034e8:	b580      	push	{r7, lr}
 80034ea:	b084      	sub	sp, #16
 80034ec:	af00      	add	r7, sp, #0
 80034ee:	6078      	str	r0, [r7, #4]
 80034f0:	2300      	movs	r3, #0
 80034f2:	60bb      	str	r3, [r7, #8]
 80034f4:	230f      	movs	r3, #15
 80034f6:	18fb      	adds	r3, r7, r3
 80034f8:	2200      	movs	r2, #0
 80034fa:	701a      	strb	r2, [r3, #0]
 80034fc:	687b      	ldr	r3, [r7, #4]
 80034fe:	681b      	ldr	r3, [r3, #0]
 8003500:	68db      	ldr	r3, [r3, #12]
 8003502:	2240      	movs	r2, #64	@ 0x40
 8003504:	4013      	ands	r3, r2
 8003506:	d12c      	bne.n	8003562 <RTC_EnterInitMode+0x7a>
 8003508:	687b      	ldr	r3, [r7, #4]
 800350a:	681b      	ldr	r3, [r3, #0]
 800350c:	68da      	ldr	r2, [r3, #12]
 800350e:	687b      	ldr	r3, [r7, #4]
 8003510:	681b      	ldr	r3, [r3, #0]
 8003512:	2180      	movs	r1, #128	@ 0x80
 8003514:	430a      	orrs	r2, r1
 8003516:	60da      	str	r2, [r3, #12]
 8003518:	f7fd fece 	bl	80012b8 <HAL_GetTick>
 800351c:	0003      	movs	r3, r0
 800351e:	60bb      	str	r3, [r7, #8]
 8003520:	e014      	b.n	800354c <RTC_EnterInitMode+0x64>
 8003522:	f7fd fec9 	bl	80012b8 <HAL_GetTick>
 8003526:	0002      	movs	r2, r0
 8003528:	68bb      	ldr	r3, [r7, #8]
 800352a:	1ad2      	subs	r2, r2, r3
 800352c:	200f      	movs	r0, #15
 800352e:	183b      	adds	r3, r7, r0
 8003530:	1839      	adds	r1, r7, r0
 8003532:	7809      	ldrb	r1, [r1, #0]
 8003534:	7019      	strb	r1, [r3, #0]
 8003536:	23fa      	movs	r3, #250	@ 0xfa
 8003538:	009b      	lsls	r3, r3, #2
 800353a:	429a      	cmp	r2, r3
 800353c:	d906      	bls.n	800354c <RTC_EnterInitMode+0x64>
 800353e:	687b      	ldr	r3, [r7, #4]
 8003540:	2221      	movs	r2, #33	@ 0x21
 8003542:	2104      	movs	r1, #4
 8003544:	5499      	strb	r1, [r3, r2]
 8003546:	183b      	adds	r3, r7, r0
 8003548:	2201      	movs	r2, #1
 800354a:	701a      	strb	r2, [r3, #0]
 800354c:	687b      	ldr	r3, [r7, #4]
 800354e:	681b      	ldr	r3, [r3, #0]
 8003550:	68db      	ldr	r3, [r3, #12]
 8003552:	2240      	movs	r2, #64	@ 0x40
 8003554:	4013      	ands	r3, r2
 8003556:	d104      	bne.n	8003562 <RTC_EnterInitMode+0x7a>
 8003558:	230f      	movs	r3, #15
 800355a:	18fb      	adds	r3, r7, r3
 800355c:	781b      	ldrb	r3, [r3, #0]
 800355e:	2b01      	cmp	r3, #1
 8003560:	d1df      	bne.n	8003522 <RTC_EnterInitMode+0x3a>
 8003562:	230f      	movs	r3, #15
 8003564:	18fb      	adds	r3, r7, r3
 8003566:	781b      	ldrb	r3, [r3, #0]
 8003568:	0018      	movs	r0, r3
 800356a:	46bd      	mov	sp, r7
 800356c:	b004      	add	sp, #16
 800356e:	bd80      	pop	{r7, pc}

08003570 <RTC_ExitInitMode>:
 8003570:	b590      	push	{r4, r7, lr}
 8003572:	b085      	sub	sp, #20
 8003574:	af00      	add	r7, sp, #0
 8003576:	6078      	str	r0, [r7, #4]
 8003578:	240f      	movs	r4, #15
 800357a:	193b      	adds	r3, r7, r4
 800357c:	2200      	movs	r2, #0
 800357e:	701a      	strb	r2, [r3, #0]
 8003580:	687b      	ldr	r3, [r7, #4]
 8003582:	681b      	ldr	r3, [r3, #0]
 8003584:	68da      	ldr	r2, [r3, #12]
 8003586:	687b      	ldr	r3, [r7, #4]
 8003588:	681b      	ldr	r3, [r3, #0]
 800358a:	2180      	movs	r1, #128	@ 0x80
 800358c:	438a      	bics	r2, r1
 800358e:	60da      	str	r2, [r3, #12]
 8003590:	687b      	ldr	r3, [r7, #4]
 8003592:	681b      	ldr	r3, [r3, #0]
 8003594:	689b      	ldr	r3, [r3, #8]
 8003596:	2220      	movs	r2, #32
 8003598:	4013      	ands	r3, r2
 800359a:	d10c      	bne.n	80035b6 <RTC_ExitInitMode+0x46>
 800359c:	687b      	ldr	r3, [r7, #4]
 800359e:	0018      	movs	r0, r3
 80035a0:	f7ff ff7a 	bl	8003498 <HAL_RTC_WaitForSynchro>
 80035a4:	1e03      	subs	r3, r0, #0
 80035a6:	d006      	beq.n	80035b6 <RTC_ExitInitMode+0x46>
 80035a8:	687b      	ldr	r3, [r7, #4]
 80035aa:	2221      	movs	r2, #33	@ 0x21
 80035ac:	2104      	movs	r1, #4
 80035ae:	5499      	strb	r1, [r3, r2]
 80035b0:	193b      	adds	r3, r7, r4
 80035b2:	2201      	movs	r2, #1
 80035b4:	701a      	strb	r2, [r3, #0]
 80035b6:	230f      	movs	r3, #15
 80035b8:	18fb      	adds	r3, r7, r3
 80035ba:	781b      	ldrb	r3, [r3, #0]
 80035bc:	0018      	movs	r0, r3
 80035be:	46bd      	mov	sp, r7
 80035c0:	b005      	add	sp, #20
 80035c2:	bd90      	pop	{r4, r7, pc}

080035c4 <RTC_Bcd2ToByte>:
 80035c4:	b580      	push	{r7, lr}
 80035c6:	b084      	sub	sp, #16
 80035c8:	af00      	add	r7, sp, #0
 80035ca:	0002      	movs	r2, r0
 80035cc:	1dfb      	adds	r3, r7, #7
 80035ce:	701a      	strb	r2, [r3, #0]
 80035d0:	2300      	movs	r3, #0
 80035d2:	60fb      	str	r3, [r7, #12]
 80035d4:	1dfb      	adds	r3, r7, #7
 80035d6:	781b      	ldrb	r3, [r3, #0]
 80035d8:	091b      	lsrs	r3, r3, #4
 80035da:	b2db      	uxtb	r3, r3
 80035dc:	001a      	movs	r2, r3
 80035de:	0013      	movs	r3, r2
 80035e0:	009b      	lsls	r3, r3, #2
 80035e2:	189b      	adds	r3, r3, r2
 80035e4:	005b      	lsls	r3, r3, #1
 80035e6:	60fb      	str	r3, [r7, #12]
 80035e8:	68fb      	ldr	r3, [r7, #12]
 80035ea:	b2da      	uxtb	r2, r3
 80035ec:	1dfb      	adds	r3, r7, #7
 80035ee:	781b      	ldrb	r3, [r3, #0]
 80035f0:	210f      	movs	r1, #15
 80035f2:	400b      	ands	r3, r1
 80035f4:	b2db      	uxtb	r3, r3
 80035f6:	18d3      	adds	r3, r2, r3
 80035f8:	b2db      	uxtb	r3, r3
 80035fa:	0018      	movs	r0, r3
 80035fc:	46bd      	mov	sp, r7
 80035fe:	b004      	add	sp, #16
 8003600:	bd80      	pop	{r7, pc}
	...

08003604 <HAL_RTCEx_SetWakeUpTimer_IT>:
 8003604:	b580      	push	{r7, lr}
 8003606:	b086      	sub	sp, #24
 8003608:	af00      	add	r7, sp, #0
 800360a:	60f8      	str	r0, [r7, #12]
 800360c:	60b9      	str	r1, [r7, #8]
 800360e:	607a      	str	r2, [r7, #4]
 8003610:	4b64      	ldr	r3, [pc, #400]	@ (80037a4 <HAL_RTCEx_SetWakeUpTimer_IT+0x1a0>)
 8003612:	681b      	ldr	r3, [r3, #0]
 8003614:	22fa      	movs	r2, #250	@ 0xfa
 8003616:	01d1      	lsls	r1, r2, #7
 8003618:	0018      	movs	r0, r3
 800361a:	f7fc fd87 	bl	800012c <__udivsi3>
 800361e:	0003      	movs	r3, r0
 8003620:	001a      	movs	r2, r3
 8003622:	0013      	movs	r3, r2
 8003624:	015b      	lsls	r3, r3, #5
 8003626:	1a9b      	subs	r3, r3, r2
 8003628:	009b      	lsls	r3, r3, #2
 800362a:	189b      	adds	r3, r3, r2
 800362c:	00db      	lsls	r3, r3, #3
 800362e:	617b      	str	r3, [r7, #20]
 8003630:	68fb      	ldr	r3, [r7, #12]
 8003632:	2220      	movs	r2, #32
 8003634:	5c9b      	ldrb	r3, [r3, r2]
 8003636:	2b01      	cmp	r3, #1
 8003638:	d101      	bne.n	800363e <HAL_RTCEx_SetWakeUpTimer_IT+0x3a>
 800363a:	2302      	movs	r3, #2
 800363c:	e0ad      	b.n	800379a <HAL_RTCEx_SetWakeUpTimer_IT+0x196>
 800363e:	68fb      	ldr	r3, [r7, #12]
 8003640:	2220      	movs	r2, #32
 8003642:	2101      	movs	r1, #1
 8003644:	5499      	strb	r1, [r3, r2]
 8003646:	68fb      	ldr	r3, [r7, #12]
 8003648:	2221      	movs	r2, #33	@ 0x21
 800364a:	2102      	movs	r1, #2
 800364c:	5499      	strb	r1, [r3, r2]
 800364e:	68fb      	ldr	r3, [r7, #12]
 8003650:	681b      	ldr	r3, [r3, #0]
 8003652:	22ca      	movs	r2, #202	@ 0xca
 8003654:	625a      	str	r2, [r3, #36]	@ 0x24
 8003656:	68fb      	ldr	r3, [r7, #12]
 8003658:	681b      	ldr	r3, [r3, #0]
 800365a:	2253      	movs	r2, #83	@ 0x53
 800365c:	625a      	str	r2, [r3, #36]	@ 0x24
 800365e:	68fb      	ldr	r3, [r7, #12]
 8003660:	681b      	ldr	r3, [r3, #0]
 8003662:	689a      	ldr	r2, [r3, #8]
 8003664:	2380      	movs	r3, #128	@ 0x80
 8003666:	00db      	lsls	r3, r3, #3
 8003668:	4013      	ands	r3, r2
 800366a:	d019      	beq.n	80036a0 <HAL_RTCEx_SetWakeUpTimer_IT+0x9c>
 800366c:	697b      	ldr	r3, [r7, #20]
 800366e:	3b01      	subs	r3, #1
 8003670:	617b      	str	r3, [r7, #20]
 8003672:	697b      	ldr	r3, [r7, #20]
 8003674:	2b00      	cmp	r3, #0
 8003676:	d10d      	bne.n	8003694 <HAL_RTCEx_SetWakeUpTimer_IT+0x90>
 8003678:	68fb      	ldr	r3, [r7, #12]
 800367a:	681b      	ldr	r3, [r3, #0]
 800367c:	22ff      	movs	r2, #255	@ 0xff
 800367e:	625a      	str	r2, [r3, #36]	@ 0x24
 8003680:	68fb      	ldr	r3, [r7, #12]
 8003682:	2221      	movs	r2, #33	@ 0x21
 8003684:	2103      	movs	r1, #3
 8003686:	5499      	strb	r1, [r3, r2]
 8003688:	68fb      	ldr	r3, [r7, #12]
 800368a:	2220      	movs	r2, #32
 800368c:	2100      	movs	r1, #0
 800368e:	5499      	strb	r1, [r3, r2]
 8003690:	2303      	movs	r3, #3
 8003692:	e082      	b.n	800379a <HAL_RTCEx_SetWakeUpTimer_IT+0x196>
 8003694:	68fb      	ldr	r3, [r7, #12]
 8003696:	681b      	ldr	r3, [r3, #0]
 8003698:	68db      	ldr	r3, [r3, #12]
 800369a:	2204      	movs	r2, #4
 800369c:	4013      	ands	r3, r2
 800369e:	d1e5      	bne.n	800366c <HAL_RTCEx_SetWakeUpTimer_IT+0x68>
 80036a0:	68fb      	ldr	r3, [r7, #12]
 80036a2:	681b      	ldr	r3, [r3, #0]
 80036a4:	689a      	ldr	r2, [r3, #8]
 80036a6:	68fb      	ldr	r3, [r7, #12]
 80036a8:	681b      	ldr	r3, [r3, #0]
 80036aa:	493f      	ldr	r1, [pc, #252]	@ (80037a8 <HAL_RTCEx_SetWakeUpTimer_IT+0x1a4>)
 80036ac:	400a      	ands	r2, r1
 80036ae:	609a      	str	r2, [r3, #8]
 80036b0:	68fb      	ldr	r3, [r7, #12]
 80036b2:	681b      	ldr	r3, [r3, #0]
 80036b4:	68db      	ldr	r3, [r3, #12]
 80036b6:	22ff      	movs	r2, #255	@ 0xff
 80036b8:	401a      	ands	r2, r3
 80036ba:	68fb      	ldr	r3, [r7, #12]
 80036bc:	681b      	ldr	r3, [r3, #0]
 80036be:	493b      	ldr	r1, [pc, #236]	@ (80037ac <HAL_RTCEx_SetWakeUpTimer_IT+0x1a8>)
 80036c0:	430a      	orrs	r2, r1
 80036c2:	60da      	str	r2, [r3, #12]
 80036c4:	4b37      	ldr	r3, [pc, #220]	@ (80037a4 <HAL_RTCEx_SetWakeUpTimer_IT+0x1a0>)
 80036c6:	681b      	ldr	r3, [r3, #0]
 80036c8:	22fa      	movs	r2, #250	@ 0xfa
 80036ca:	01d1      	lsls	r1, r2, #7
 80036cc:	0018      	movs	r0, r3
 80036ce:	f7fc fd2d 	bl	800012c <__udivsi3>
 80036d2:	0003      	movs	r3, r0
 80036d4:	001a      	movs	r2, r3
 80036d6:	0013      	movs	r3, r2
 80036d8:	015b      	lsls	r3, r3, #5
 80036da:	1a9b      	subs	r3, r3, r2
 80036dc:	009b      	lsls	r3, r3, #2
 80036de:	189b      	adds	r3, r3, r2
 80036e0:	00db      	lsls	r3, r3, #3
 80036e2:	617b      	str	r3, [r7, #20]
 80036e4:	697b      	ldr	r3, [r7, #20]
 80036e6:	3b01      	subs	r3, #1
 80036e8:	617b      	str	r3, [r7, #20]
 80036ea:	697b      	ldr	r3, [r7, #20]
 80036ec:	2b00      	cmp	r3, #0
 80036ee:	d10d      	bne.n	800370c <HAL_RTCEx_SetWakeUpTimer_IT+0x108>
 80036f0:	68fb      	ldr	r3, [r7, #12]
 80036f2:	681b      	ldr	r3, [r3, #0]
 80036f4:	22ff      	movs	r2, #255	@ 0xff
 80036f6:	625a      	str	r2, [r3, #36]	@ 0x24
 80036f8:	68fb      	ldr	r3, [r7, #12]
 80036fa:	2221      	movs	r2, #33	@ 0x21
 80036fc:	2103      	movs	r1, #3
 80036fe:	5499      	strb	r1, [r3, r2]
 8003700:	68fb      	ldr	r3, [r7, #12]
 8003702:	2220      	movs	r2, #32
 8003704:	2100      	movs	r1, #0
 8003706:	5499      	strb	r1, [r3, r2]
 8003708:	2303      	movs	r3, #3
 800370a:	e046      	b.n	800379a <HAL_RTCEx_SetWakeUpTimer_IT+0x196>
 800370c:	68fb      	ldr	r3, [r7, #12]
 800370e:	681b      	ldr	r3, [r3, #0]
 8003710:	68db      	ldr	r3, [r3, #12]
 8003712:	2204      	movs	r2, #4
 8003714:	4013      	ands	r3, r2
 8003716:	d0e5      	beq.n	80036e4 <HAL_RTCEx_SetWakeUpTimer_IT+0xe0>
 8003718:	68fb      	ldr	r3, [r7, #12]
 800371a:	681b      	ldr	r3, [r3, #0]
 800371c:	689a      	ldr	r2, [r3, #8]
 800371e:	68fb      	ldr	r3, [r7, #12]
 8003720:	681b      	ldr	r3, [r3, #0]
 8003722:	2107      	movs	r1, #7
 8003724:	438a      	bics	r2, r1
 8003726:	609a      	str	r2, [r3, #8]
 8003728:	68fb      	ldr	r3, [r7, #12]
 800372a:	681b      	ldr	r3, [r3, #0]
 800372c:	6899      	ldr	r1, [r3, #8]
 800372e:	68fb      	ldr	r3, [r7, #12]
 8003730:	681b      	ldr	r3, [r3, #0]
 8003732:	687a      	ldr	r2, [r7, #4]
 8003734:	430a      	orrs	r2, r1
 8003736:	609a      	str	r2, [r3, #8]
 8003738:	68fb      	ldr	r3, [r7, #12]
 800373a:	681b      	ldr	r3, [r3, #0]
 800373c:	68ba      	ldr	r2, [r7, #8]
 800373e:	615a      	str	r2, [r3, #20]
 8003740:	4b1b      	ldr	r3, [pc, #108]	@ (80037b0 <HAL_RTCEx_SetWakeUpTimer_IT+0x1ac>)
 8003742:	681a      	ldr	r2, [r3, #0]
 8003744:	4b1a      	ldr	r3, [pc, #104]	@ (80037b0 <HAL_RTCEx_SetWakeUpTimer_IT+0x1ac>)
 8003746:	2180      	movs	r1, #128	@ 0x80
 8003748:	0349      	lsls	r1, r1, #13
 800374a:	430a      	orrs	r2, r1
 800374c:	601a      	str	r2, [r3, #0]
 800374e:	4b18      	ldr	r3, [pc, #96]	@ (80037b0 <HAL_RTCEx_SetWakeUpTimer_IT+0x1ac>)
 8003750:	689a      	ldr	r2, [r3, #8]
 8003752:	4b17      	ldr	r3, [pc, #92]	@ (80037b0 <HAL_RTCEx_SetWakeUpTimer_IT+0x1ac>)
 8003754:	2180      	movs	r1, #128	@ 0x80
 8003756:	0349      	lsls	r1, r1, #13
 8003758:	430a      	orrs	r2, r1
 800375a:	609a      	str	r2, [r3, #8]
 800375c:	68fb      	ldr	r3, [r7, #12]
 800375e:	681b      	ldr	r3, [r3, #0]
 8003760:	689a      	ldr	r2, [r3, #8]
 8003762:	68fb      	ldr	r3, [r7, #12]
 8003764:	681b      	ldr	r3, [r3, #0]
 8003766:	2180      	movs	r1, #128	@ 0x80
 8003768:	01c9      	lsls	r1, r1, #7
 800376a:	430a      	orrs	r2, r1
 800376c:	609a      	str	r2, [r3, #8]
 800376e:	68fb      	ldr	r3, [r7, #12]
 8003770:	681b      	ldr	r3, [r3, #0]
 8003772:	689a      	ldr	r2, [r3, #8]
 8003774:	68fb      	ldr	r3, [r7, #12]
 8003776:	681b      	ldr	r3, [r3, #0]
 8003778:	2180      	movs	r1, #128	@ 0x80
 800377a:	00c9      	lsls	r1, r1, #3
 800377c:	430a      	orrs	r2, r1
 800377e:	609a      	str	r2, [r3, #8]
 8003780:	68fb      	ldr	r3, [r7, #12]
 8003782:	681b      	ldr	r3, [r3, #0]
 8003784:	22ff      	movs	r2, #255	@ 0xff
 8003786:	625a      	str	r2, [r3, #36]	@ 0x24
 8003788:	68fb      	ldr	r3, [r7, #12]
 800378a:	2221      	movs	r2, #33	@ 0x21
 800378c:	2101      	movs	r1, #1
 800378e:	5499      	strb	r1, [r3, r2]
 8003790:	68fb      	ldr	r3, [r7, #12]
 8003792:	2220      	movs	r2, #32
 8003794:	2100      	movs	r1, #0
 8003796:	5499      	strb	r1, [r3, r2]
 8003798:	2300      	movs	r3, #0
 800379a:	0018      	movs	r0, r3
 800379c:	46bd      	mov	sp, r7
 800379e:	b006      	add	sp, #24
 80037a0:	bd80      	pop	{r7, pc}
 80037a2:	46c0      	nop			@ (mov r8, r8)
 80037a4:	20000004 	.word	0x20000004
 80037a8:	fffffbff 	.word	0xfffffbff
 80037ac:	fffffb7f 	.word	0xfffffb7f
 80037b0:	40010400 	.word	0x40010400

080037b4 <HAL_RTCEx_DeactivateWakeUpTimer>:
 80037b4:	b580      	push	{r7, lr}
 80037b6:	b084      	sub	sp, #16
 80037b8:	af00      	add	r7, sp, #0
 80037ba:	6078      	str	r0, [r7, #4]
 80037bc:	2300      	movs	r3, #0
 80037be:	60fb      	str	r3, [r7, #12]
 80037c0:	687b      	ldr	r3, [r7, #4]
 80037c2:	2220      	movs	r2, #32
 80037c4:	5c9b      	ldrb	r3, [r3, r2]
 80037c6:	2b01      	cmp	r3, #1
 80037c8:	d101      	bne.n	80037ce <HAL_RTCEx_DeactivateWakeUpTimer+0x1a>
 80037ca:	2302      	movs	r3, #2
 80037cc:	e04e      	b.n	800386c <HAL_RTCEx_DeactivateWakeUpTimer+0xb8>
 80037ce:	687b      	ldr	r3, [r7, #4]
 80037d0:	2220      	movs	r2, #32
 80037d2:	2101      	movs	r1, #1
 80037d4:	5499      	strb	r1, [r3, r2]
 80037d6:	687b      	ldr	r3, [r7, #4]
 80037d8:	2221      	movs	r2, #33	@ 0x21
 80037da:	2102      	movs	r1, #2
 80037dc:	5499      	strb	r1, [r3, r2]
 80037de:	687b      	ldr	r3, [r7, #4]
 80037e0:	681b      	ldr	r3, [r3, #0]
 80037e2:	22ca      	movs	r2, #202	@ 0xca
 80037e4:	625a      	str	r2, [r3, #36]	@ 0x24
 80037e6:	687b      	ldr	r3, [r7, #4]
 80037e8:	681b      	ldr	r3, [r3, #0]
 80037ea:	2253      	movs	r2, #83	@ 0x53
 80037ec:	625a      	str	r2, [r3, #36]	@ 0x24
 80037ee:	687b      	ldr	r3, [r7, #4]
 80037f0:	681b      	ldr	r3, [r3, #0]
 80037f2:	689a      	ldr	r2, [r3, #8]
 80037f4:	687b      	ldr	r3, [r7, #4]
 80037f6:	681b      	ldr	r3, [r3, #0]
 80037f8:	491e      	ldr	r1, [pc, #120]	@ (8003874 <HAL_RTCEx_DeactivateWakeUpTimer+0xc0>)
 80037fa:	400a      	ands	r2, r1
 80037fc:	609a      	str	r2, [r3, #8]
 80037fe:	687b      	ldr	r3, [r7, #4]
 8003800:	681b      	ldr	r3, [r3, #0]
 8003802:	689a      	ldr	r2, [r3, #8]
 8003804:	687b      	ldr	r3, [r7, #4]
 8003806:	681b      	ldr	r3, [r3, #0]
 8003808:	491b      	ldr	r1, [pc, #108]	@ (8003878 <HAL_RTCEx_DeactivateWakeUpTimer+0xc4>)
 800380a:	400a      	ands	r2, r1
 800380c:	609a      	str	r2, [r3, #8]
 800380e:	f7fd fd53 	bl	80012b8 <HAL_GetTick>
 8003812:	0003      	movs	r3, r0
 8003814:	60fb      	str	r3, [r7, #12]
 8003816:	e016      	b.n	8003846 <HAL_RTCEx_DeactivateWakeUpTimer+0x92>
 8003818:	f7fd fd4e 	bl	80012b8 <HAL_GetTick>
 800381c:	0002      	movs	r2, r0
 800381e:	68fb      	ldr	r3, [r7, #12]
 8003820:	1ad2      	subs	r2, r2, r3
 8003822:	23fa      	movs	r3, #250	@ 0xfa
 8003824:	009b      	lsls	r3, r3, #2
 8003826:	429a      	cmp	r2, r3
 8003828:	d90d      	bls.n	8003846 <HAL_RTCEx_DeactivateWakeUpTimer+0x92>
 800382a:	687b      	ldr	r3, [r7, #4]
 800382c:	681b      	ldr	r3, [r3, #0]
 800382e:	22ff      	movs	r2, #255	@ 0xff
 8003830:	625a      	str	r2, [r3, #36]	@ 0x24
 8003832:	687b      	ldr	r3, [r7, #4]
 8003834:	2221      	movs	r2, #33	@ 0x21
 8003836:	2103      	movs	r1, #3
 8003838:	5499      	strb	r1, [r3, r2]
 800383a:	687b      	ldr	r3, [r7, #4]
 800383c:	2220      	movs	r2, #32
 800383e:	2100      	movs	r1, #0
 8003840:	5499      	strb	r1, [r3, r2]
 8003842:	2303      	movs	r3, #3
 8003844:	e012      	b.n	800386c <HAL_RTCEx_DeactivateWakeUpTimer+0xb8>
 8003846:	687b      	ldr	r3, [r7, #4]
 8003848:	681b      	ldr	r3, [r3, #0]
 800384a:	68db      	ldr	r3, [r3, #12]
 800384c:	2204      	movs	r2, #4
 800384e:	4013      	ands	r3, r2
 8003850:	d0e2      	beq.n	8003818 <HAL_RTCEx_DeactivateWakeUpTimer+0x64>
 8003852:	687b      	ldr	r3, [r7, #4]
 8003854:	681b      	ldr	r3, [r3, #0]
 8003856:	22ff      	movs	r2, #255	@ 0xff
 8003858:	625a      	str	r2, [r3, #36]	@ 0x24
 800385a:	687b      	ldr	r3, [r7, #4]
 800385c:	2221      	movs	r2, #33	@ 0x21
 800385e:	2101      	movs	r1, #1
 8003860:	5499      	strb	r1, [r3, r2]
 8003862:	687b      	ldr	r3, [r7, #4]
 8003864:	2220      	movs	r2, #32
 8003866:	2100      	movs	r1, #0
 8003868:	5499      	strb	r1, [r3, r2]
 800386a:	2300      	movs	r3, #0
 800386c:	0018      	movs	r0, r3
 800386e:	46bd      	mov	sp, r7
 8003870:	b004      	add	sp, #16
 8003872:	bd80      	pop	{r7, pc}
 8003874:	fffffbff 	.word	0xfffffbff
 8003878:	ffffbfff 	.word	0xffffbfff

0800387c <HAL_RTCEx_WakeUpTimerIRQHandler>:
 800387c:	b580      	push	{r7, lr}
 800387e:	b082      	sub	sp, #8
 8003880:	af00      	add	r7, sp, #0
 8003882:	6078      	str	r0, [r7, #4]
 8003884:	4b13      	ldr	r3, [pc, #76]	@ (80038d4 <HAL_RTCEx_WakeUpTimerIRQHandler+0x58>)
 8003886:	2280      	movs	r2, #128	@ 0x80
 8003888:	0352      	lsls	r2, r2, #13
 800388a:	615a      	str	r2, [r3, #20]
 800388c:	687b      	ldr	r3, [r7, #4]
 800388e:	681b      	ldr	r3, [r3, #0]
 8003890:	689a      	ldr	r2, [r3, #8]
 8003892:	2380      	movs	r3, #128	@ 0x80
 8003894:	01db      	lsls	r3, r3, #7
 8003896:	4013      	ands	r3, r2
 8003898:	d014      	beq.n	80038c4 <HAL_RTCEx_WakeUpTimerIRQHandler+0x48>
 800389a:	687b      	ldr	r3, [r7, #4]
 800389c:	681b      	ldr	r3, [r3, #0]
 800389e:	68da      	ldr	r2, [r3, #12]
 80038a0:	2380      	movs	r3, #128	@ 0x80
 80038a2:	00db      	lsls	r3, r3, #3
 80038a4:	4013      	ands	r3, r2
 80038a6:	d00d      	beq.n	80038c4 <HAL_RTCEx_WakeUpTimerIRQHandler+0x48>
 80038a8:	687b      	ldr	r3, [r7, #4]
 80038aa:	681b      	ldr	r3, [r3, #0]
 80038ac:	68db      	ldr	r3, [r3, #12]
 80038ae:	22ff      	movs	r2, #255	@ 0xff
 80038b0:	401a      	ands	r2, r3
 80038b2:	687b      	ldr	r3, [r7, #4]
 80038b4:	681b      	ldr	r3, [r3, #0]
 80038b6:	4908      	ldr	r1, [pc, #32]	@ (80038d8 <HAL_RTCEx_WakeUpTimerIRQHandler+0x5c>)
 80038b8:	430a      	orrs	r2, r1
 80038ba:	60da      	str	r2, [r3, #12]
 80038bc:	687b      	ldr	r3, [r7, #4]
 80038be:	0018      	movs	r0, r3
 80038c0:	f000 f80c 	bl	80038dc <HAL_RTCEx_WakeUpTimerEventCallback>
 80038c4:	687b      	ldr	r3, [r7, #4]
 80038c6:	2221      	movs	r2, #33	@ 0x21
 80038c8:	2101      	movs	r1, #1
 80038ca:	5499      	strb	r1, [r3, r2]
 80038cc:	46c0      	nop			@ (mov r8, r8)
 80038ce:	46bd      	mov	sp, r7
 80038d0:	b002      	add	sp, #8
 80038d2:	bd80      	pop	{r7, pc}
 80038d4:	40010400 	.word	0x40010400
 80038d8:	fffffb7f 	.word	0xfffffb7f

080038dc <HAL_RTCEx_WakeUpTimerEventCallback>:
 80038dc:	b580      	push	{r7, lr}
 80038de:	b082      	sub	sp, #8
 80038e0:	af00      	add	r7, sp, #0
 80038e2:	6078      	str	r0, [r7, #4]
 80038e4:	46c0      	nop			@ (mov r8, r8)
 80038e6:	46bd      	mov	sp, r7
 80038e8:	b002      	add	sp, #8
 80038ea:	bd80      	pop	{r7, pc}

080038ec <HAL_UART_Init>:
 80038ec:	b580      	push	{r7, lr}
 80038ee:	b082      	sub	sp, #8
 80038f0:	af00      	add	r7, sp, #0
 80038f2:	6078      	str	r0, [r7, #4]
 80038f4:	687b      	ldr	r3, [r7, #4]
 80038f6:	2b00      	cmp	r3, #0
 80038f8:	d101      	bne.n	80038fe <HAL_UART_Init+0x12>
 80038fa:	2301      	movs	r3, #1
 80038fc:	e044      	b.n	8003988 <HAL_UART_Init+0x9c>
 80038fe:	687b      	ldr	r3, [r7, #4]
 8003900:	6fdb      	ldr	r3, [r3, #124]	@ 0x7c
 8003902:	2b00      	cmp	r3, #0
 8003904:	d107      	bne.n	8003916 <HAL_UART_Init+0x2a>
 8003906:	687b      	ldr	r3, [r7, #4]
 8003908:	2278      	movs	r2, #120	@ 0x78
 800390a:	2100      	movs	r1, #0
 800390c:	5499      	strb	r1, [r3, r2]
 800390e:	687b      	ldr	r3, [r7, #4]
 8003910:	0018      	movs	r0, r3
 8003912:	f7fd fabf 	bl	8000e94 <HAL_UART_MspInit>
 8003916:	687b      	ldr	r3, [r7, #4]
 8003918:	2224      	movs	r2, #36	@ 0x24
 800391a:	67da      	str	r2, [r3, #124]	@ 0x7c
 800391c:	687b      	ldr	r3, [r7, #4]
 800391e:	681b      	ldr	r3, [r3, #0]
 8003920:	681a      	ldr	r2, [r3, #0]
 8003922:	687b      	ldr	r3, [r7, #4]
 8003924:	681b      	ldr	r3, [r3, #0]
 8003926:	2101      	movs	r1, #1
 8003928:	438a      	bics	r2, r1
 800392a:	601a      	str	r2, [r3, #0]
 800392c:	687b      	ldr	r3, [r7, #4]
 800392e:	6a5b      	ldr	r3, [r3, #36]	@ 0x24
 8003930:	2b00      	cmp	r3, #0
 8003932:	d003      	beq.n	800393c <HAL_UART_Init+0x50>
 8003934:	687b      	ldr	r3, [r7, #4]
 8003936:	0018      	movs	r0, r3
 8003938:	f000 ffea 	bl	8004910 <UART_AdvFeatureConfig>
 800393c:	687b      	ldr	r3, [r7, #4]
 800393e:	0018      	movs	r0, r3
 8003940:	f000 fd48 	bl	80043d4 <UART_SetConfig>
 8003944:	0003      	movs	r3, r0
 8003946:	2b01      	cmp	r3, #1
 8003948:	d101      	bne.n	800394e <HAL_UART_Init+0x62>
 800394a:	2301      	movs	r3, #1
 800394c:	e01c      	b.n	8003988 <HAL_UART_Init+0x9c>
 800394e:	687b      	ldr	r3, [r7, #4]
 8003950:	681b      	ldr	r3, [r3, #0]
 8003952:	685a      	ldr	r2, [r3, #4]
 8003954:	687b      	ldr	r3, [r7, #4]
 8003956:	681b      	ldr	r3, [r3, #0]
 8003958:	490d      	ldr	r1, [pc, #52]	@ (8003990 <HAL_UART_Init+0xa4>)
 800395a:	400a      	ands	r2, r1
 800395c:	605a      	str	r2, [r3, #4]
 800395e:	687b      	ldr	r3, [r7, #4]
 8003960:	681b      	ldr	r3, [r3, #0]
 8003962:	689a      	ldr	r2, [r3, #8]
 8003964:	687b      	ldr	r3, [r7, #4]
 8003966:	681b      	ldr	r3, [r3, #0]
 8003968:	212a      	movs	r1, #42	@ 0x2a
 800396a:	438a      	bics	r2, r1
 800396c:	609a      	str	r2, [r3, #8]
 800396e:	687b      	ldr	r3, [r7, #4]
 8003970:	681b      	ldr	r3, [r3, #0]
 8003972:	681a      	ldr	r2, [r3, #0]
 8003974:	687b      	ldr	r3, [r7, #4]
 8003976:	681b      	ldr	r3, [r3, #0]
 8003978:	2101      	movs	r1, #1
 800397a:	430a      	orrs	r2, r1
 800397c:	601a      	str	r2, [r3, #0]
 800397e:	687b      	ldr	r3, [r7, #4]
 8003980:	0018      	movs	r0, r3
 8003982:	f001 f879 	bl	8004a78 <UART_CheckIdleState>
 8003986:	0003      	movs	r3, r0
 8003988:	0018      	movs	r0, r3
 800398a:	46bd      	mov	sp, r7
 800398c:	b002      	add	sp, #8
 800398e:	bd80      	pop	{r7, pc}
 8003990:	ffffb7ff 	.word	0xffffb7ff

08003994 <HAL_UART_DeInit>:
 8003994:	b580      	push	{r7, lr}
 8003996:	b082      	sub	sp, #8
 8003998:	af00      	add	r7, sp, #0
 800399a:	6078      	str	r0, [r7, #4]
 800399c:	687b      	ldr	r3, [r7, #4]
 800399e:	2b00      	cmp	r3, #0
 80039a0:	d101      	bne.n	80039a6 <HAL_UART_DeInit+0x12>
 80039a2:	2301      	movs	r3, #1
 80039a4:	e030      	b.n	8003a08 <HAL_UART_DeInit+0x74>
 80039a6:	687b      	ldr	r3, [r7, #4]
 80039a8:	2224      	movs	r2, #36	@ 0x24
 80039aa:	67da      	str	r2, [r3, #124]	@ 0x7c
 80039ac:	687b      	ldr	r3, [r7, #4]
 80039ae:	681b      	ldr	r3, [r3, #0]
 80039b0:	681a      	ldr	r2, [r3, #0]
 80039b2:	687b      	ldr	r3, [r7, #4]
 80039b4:	681b      	ldr	r3, [r3, #0]
 80039b6:	2101      	movs	r1, #1
 80039b8:	438a      	bics	r2, r1
 80039ba:	601a      	str	r2, [r3, #0]
 80039bc:	687b      	ldr	r3, [r7, #4]
 80039be:	681b      	ldr	r3, [r3, #0]
 80039c0:	2200      	movs	r2, #0
 80039c2:	601a      	str	r2, [r3, #0]
 80039c4:	687b      	ldr	r3, [r7, #4]
 80039c6:	681b      	ldr	r3, [r3, #0]
 80039c8:	2200      	movs	r2, #0
 80039ca:	605a      	str	r2, [r3, #4]
 80039cc:	687b      	ldr	r3, [r7, #4]
 80039ce:	681b      	ldr	r3, [r3, #0]
 80039d0:	2200      	movs	r2, #0
 80039d2:	609a      	str	r2, [r3, #8]
 80039d4:	687b      	ldr	r3, [r7, #4]
 80039d6:	0018      	movs	r0, r3
 80039d8:	f7fd fb90 	bl	80010fc <HAL_UART_MspDeInit>
 80039dc:	687b      	ldr	r3, [r7, #4]
 80039de:	2284      	movs	r2, #132	@ 0x84
 80039e0:	2100      	movs	r1, #0
 80039e2:	5099      	str	r1, [r3, r2]
 80039e4:	687b      	ldr	r3, [r7, #4]
 80039e6:	2200      	movs	r2, #0
 80039e8:	67da      	str	r2, [r3, #124]	@ 0x7c
 80039ea:	687b      	ldr	r3, [r7, #4]
 80039ec:	2280      	movs	r2, #128	@ 0x80
 80039ee:	2100      	movs	r1, #0
 80039f0:	5099      	str	r1, [r3, r2]
 80039f2:	687b      	ldr	r3, [r7, #4]
 80039f4:	2200      	movs	r2, #0
 80039f6:	661a      	str	r2, [r3, #96]	@ 0x60
 80039f8:	687b      	ldr	r3, [r7, #4]
 80039fa:	2200      	movs	r2, #0
 80039fc:	665a      	str	r2, [r3, #100]	@ 0x64
 80039fe:	687b      	ldr	r3, [r7, #4]
 8003a00:	2278      	movs	r2, #120	@ 0x78
 8003a02:	2100      	movs	r1, #0
 8003a04:	5499      	strb	r1, [r3, r2]
 8003a06:	2300      	movs	r3, #0
 8003a08:	0018      	movs	r0, r3
 8003a0a:	46bd      	mov	sp, r7
 8003a0c:	b002      	add	sp, #8
 8003a0e:	bd80      	pop	{r7, pc}

08003a10 <HAL_UART_Transmit_DMA>:
 8003a10:	b580      	push	{r7, lr}
 8003a12:	b088      	sub	sp, #32
 8003a14:	af00      	add	r7, sp, #0
 8003a16:	60f8      	str	r0, [r7, #12]
 8003a18:	60b9      	str	r1, [r7, #8]
 8003a1a:	1dbb      	adds	r3, r7, #6
 8003a1c:	801a      	strh	r2, [r3, #0]
 8003a1e:	68fb      	ldr	r3, [r7, #12]
 8003a20:	6fdb      	ldr	r3, [r3, #124]	@ 0x7c
 8003a22:	2b20      	cmp	r3, #32
 8003a24:	d000      	beq.n	8003a28 <HAL_UART_Transmit_DMA+0x18>
 8003a26:	e077      	b.n	8003b18 <HAL_UART_Transmit_DMA+0x108>
 8003a28:	68bb      	ldr	r3, [r7, #8]
 8003a2a:	2b00      	cmp	r3, #0
 8003a2c:	d003      	beq.n	8003a36 <HAL_UART_Transmit_DMA+0x26>
 8003a2e:	1dbb      	adds	r3, r7, #6
 8003a30:	881b      	ldrh	r3, [r3, #0]
 8003a32:	2b00      	cmp	r3, #0
 8003a34:	d101      	bne.n	8003a3a <HAL_UART_Transmit_DMA+0x2a>
 8003a36:	2301      	movs	r3, #1
 8003a38:	e06f      	b.n	8003b1a <HAL_UART_Transmit_DMA+0x10a>
 8003a3a:	68fb      	ldr	r3, [r7, #12]
 8003a3c:	689a      	ldr	r2, [r3, #8]
 8003a3e:	2380      	movs	r3, #128	@ 0x80
 8003a40:	015b      	lsls	r3, r3, #5
 8003a42:	429a      	cmp	r2, r3
 8003a44:	d109      	bne.n	8003a5a <HAL_UART_Transmit_DMA+0x4a>
 8003a46:	68fb      	ldr	r3, [r7, #12]
 8003a48:	691b      	ldr	r3, [r3, #16]
 8003a4a:	2b00      	cmp	r3, #0
 8003a4c:	d105      	bne.n	8003a5a <HAL_UART_Transmit_DMA+0x4a>
 8003a4e:	68bb      	ldr	r3, [r7, #8]
 8003a50:	2201      	movs	r2, #1
 8003a52:	4013      	ands	r3, r2
 8003a54:	d001      	beq.n	8003a5a <HAL_UART_Transmit_DMA+0x4a>
 8003a56:	2301      	movs	r3, #1
 8003a58:	e05f      	b.n	8003b1a <HAL_UART_Transmit_DMA+0x10a>
 8003a5a:	68fb      	ldr	r3, [r7, #12]
 8003a5c:	68ba      	ldr	r2, [r7, #8]
 8003a5e:	64da      	str	r2, [r3, #76]	@ 0x4c
 8003a60:	68fb      	ldr	r3, [r7, #12]
 8003a62:	1dba      	adds	r2, r7, #6
 8003a64:	2150      	movs	r1, #80	@ 0x50
 8003a66:	8812      	ldrh	r2, [r2, #0]
 8003a68:	525a      	strh	r2, [r3, r1]
 8003a6a:	68fb      	ldr	r3, [r7, #12]
 8003a6c:	1dba      	adds	r2, r7, #6
 8003a6e:	2152      	movs	r1, #82	@ 0x52
 8003a70:	8812      	ldrh	r2, [r2, #0]
 8003a72:	525a      	strh	r2, [r3, r1]
 8003a74:	68fb      	ldr	r3, [r7, #12]
 8003a76:	2284      	movs	r2, #132	@ 0x84
 8003a78:	2100      	movs	r1, #0
 8003a7a:	5099      	str	r1, [r3, r2]
 8003a7c:	68fb      	ldr	r3, [r7, #12]
 8003a7e:	2221      	movs	r2, #33	@ 0x21
 8003a80:	67da      	str	r2, [r3, #124]	@ 0x7c
 8003a82:	68fb      	ldr	r3, [r7, #12]
 8003a84:	6f1b      	ldr	r3, [r3, #112]	@ 0x70
 8003a86:	2b00      	cmp	r3, #0
 8003a88:	d027      	beq.n	8003ada <HAL_UART_Transmit_DMA+0xca>
 8003a8a:	68fb      	ldr	r3, [r7, #12]
 8003a8c:	6f1b      	ldr	r3, [r3, #112]	@ 0x70
 8003a8e:	4a25      	ldr	r2, [pc, #148]	@ (8003b24 <HAL_UART_Transmit_DMA+0x114>)
 8003a90:	62da      	str	r2, [r3, #44]	@ 0x2c
 8003a92:	68fb      	ldr	r3, [r7, #12]
 8003a94:	6f1b      	ldr	r3, [r3, #112]	@ 0x70
 8003a96:	4a24      	ldr	r2, [pc, #144]	@ (8003b28 <HAL_UART_Transmit_DMA+0x118>)
 8003a98:	631a      	str	r2, [r3, #48]	@ 0x30
 8003a9a:	68fb      	ldr	r3, [r7, #12]
 8003a9c:	6f1b      	ldr	r3, [r3, #112]	@ 0x70
 8003a9e:	4a23      	ldr	r2, [pc, #140]	@ (8003b2c <HAL_UART_Transmit_DMA+0x11c>)
 8003aa0:	635a      	str	r2, [r3, #52]	@ 0x34
 8003aa2:	68fb      	ldr	r3, [r7, #12]
 8003aa4:	6f1b      	ldr	r3, [r3, #112]	@ 0x70
 8003aa6:	2200      	movs	r2, #0
 8003aa8:	639a      	str	r2, [r3, #56]	@ 0x38
 8003aaa:	68fb      	ldr	r3, [r7, #12]
 8003aac:	6f18      	ldr	r0, [r3, #112]	@ 0x70
 8003aae:	68fb      	ldr	r3, [r7, #12]
 8003ab0:	6cdb      	ldr	r3, [r3, #76]	@ 0x4c
 8003ab2:	0019      	movs	r1, r3
 8003ab4:	68fb      	ldr	r3, [r7, #12]
 8003ab6:	681b      	ldr	r3, [r3, #0]
 8003ab8:	3328      	adds	r3, #40	@ 0x28
 8003aba:	001a      	movs	r2, r3
 8003abc:	1dbb      	adds	r3, r7, #6
 8003abe:	881b      	ldrh	r3, [r3, #0]
 8003ac0:	f7fd fe0e 	bl	80016e0 <HAL_DMA_Start_IT>
 8003ac4:	1e03      	subs	r3, r0, #0
 8003ac6:	d008      	beq.n	8003ada <HAL_UART_Transmit_DMA+0xca>
 8003ac8:	68fb      	ldr	r3, [r7, #12]
 8003aca:	2284      	movs	r2, #132	@ 0x84
 8003acc:	2110      	movs	r1, #16
 8003ace:	5099      	str	r1, [r3, r2]
 8003ad0:	68fb      	ldr	r3, [r7, #12]
 8003ad2:	2220      	movs	r2, #32
 8003ad4:	67da      	str	r2, [r3, #124]	@ 0x7c
 8003ad6:	2301      	movs	r3, #1
 8003ad8:	e01f      	b.n	8003b1a <HAL_UART_Transmit_DMA+0x10a>
 8003ada:	68fb      	ldr	r3, [r7, #12]
 8003adc:	681b      	ldr	r3, [r3, #0]
 8003ade:	2240      	movs	r2, #64	@ 0x40
 8003ae0:	621a      	str	r2, [r3, #32]
 8003ae2:	f3ef 8310 	mrs	r3, PRIMASK
 8003ae6:	613b      	str	r3, [r7, #16]
 8003ae8:	693b      	ldr	r3, [r7, #16]
 8003aea:	61fb      	str	r3, [r7, #28]
 8003aec:	2301      	movs	r3, #1
 8003aee:	617b      	str	r3, [r7, #20]
 8003af0:	697b      	ldr	r3, [r7, #20]
 8003af2:	f383 8810 	msr	PRIMASK, r3
 8003af6:	46c0      	nop			@ (mov r8, r8)
 8003af8:	68fb      	ldr	r3, [r7, #12]
 8003afa:	681b      	ldr	r3, [r3, #0]
 8003afc:	689a      	ldr	r2, [r3, #8]
 8003afe:	68fb      	ldr	r3, [r7, #12]
 8003b00:	681b      	ldr	r3, [r3, #0]
 8003b02:	2180      	movs	r1, #128	@ 0x80
 8003b04:	430a      	orrs	r2, r1
 8003b06:	609a      	str	r2, [r3, #8]
 8003b08:	69fb      	ldr	r3, [r7, #28]
 8003b0a:	61bb      	str	r3, [r7, #24]
 8003b0c:	69bb      	ldr	r3, [r7, #24]
 8003b0e:	f383 8810 	msr	PRIMASK, r3
 8003b12:	46c0      	nop			@ (mov r8, r8)
 8003b14:	2300      	movs	r3, #0
 8003b16:	e000      	b.n	8003b1a <HAL_UART_Transmit_DMA+0x10a>
 8003b18:	2302      	movs	r3, #2
 8003b1a:	0018      	movs	r0, r3
 8003b1c:	46bd      	mov	sp, r7
 8003b1e:	b008      	add	sp, #32
 8003b20:	bd80      	pop	{r7, pc}
 8003b22:	46c0      	nop			@ (mov r8, r8)
 8003b24:	08004ef9 	.word	0x08004ef9
 8003b28:	08004f91 	.word	0x08004f91
 8003b2c:	08005197 	.word	0x08005197

08003b30 <HAL_UART_AbortTransmit>:
 8003b30:	b580      	push	{r7, lr}
 8003b32:	b08a      	sub	sp, #40	@ 0x28
 8003b34:	af00      	add	r7, sp, #0
 8003b36:	6078      	str	r0, [r7, #4]
 8003b38:	f3ef 8310 	mrs	r3, PRIMASK
 8003b3c:	617b      	str	r3, [r7, #20]
 8003b3e:	697b      	ldr	r3, [r7, #20]
 8003b40:	627b      	str	r3, [r7, #36]	@ 0x24
 8003b42:	2301      	movs	r3, #1
 8003b44:	61bb      	str	r3, [r7, #24]
 8003b46:	69bb      	ldr	r3, [r7, #24]
 8003b48:	f383 8810 	msr	PRIMASK, r3
 8003b4c:	46c0      	nop			@ (mov r8, r8)
 8003b4e:	687b      	ldr	r3, [r7, #4]
 8003b50:	681b      	ldr	r3, [r3, #0]
 8003b52:	681a      	ldr	r2, [r3, #0]
 8003b54:	687b      	ldr	r3, [r7, #4]
 8003b56:	681b      	ldr	r3, [r3, #0]
 8003b58:	21c0      	movs	r1, #192	@ 0xc0
 8003b5a:	438a      	bics	r2, r1
 8003b5c:	601a      	str	r2, [r3, #0]
 8003b5e:	6a7b      	ldr	r3, [r7, #36]	@ 0x24
 8003b60:	61fb      	str	r3, [r7, #28]
 8003b62:	69fb      	ldr	r3, [r7, #28]
 8003b64:	f383 8810 	msr	PRIMASK, r3
 8003b68:	46c0      	nop			@ (mov r8, r8)
 8003b6a:	687b      	ldr	r3, [r7, #4]
 8003b6c:	681b      	ldr	r3, [r3, #0]
 8003b6e:	689b      	ldr	r3, [r3, #8]
 8003b70:	2280      	movs	r2, #128	@ 0x80
 8003b72:	4013      	ands	r3, r2
 8003b74:	2b80      	cmp	r3, #128	@ 0x80
 8003b76:	d135      	bne.n	8003be4 <HAL_UART_AbortTransmit+0xb4>
 8003b78:	f3ef 8310 	mrs	r3, PRIMASK
 8003b7c:	60bb      	str	r3, [r7, #8]
 8003b7e:	68bb      	ldr	r3, [r7, #8]
 8003b80:	623b      	str	r3, [r7, #32]
 8003b82:	2301      	movs	r3, #1
 8003b84:	60fb      	str	r3, [r7, #12]
 8003b86:	68fb      	ldr	r3, [r7, #12]
 8003b88:	f383 8810 	msr	PRIMASK, r3
 8003b8c:	46c0      	nop			@ (mov r8, r8)
 8003b8e:	687b      	ldr	r3, [r7, #4]
 8003b90:	681b      	ldr	r3, [r3, #0]
 8003b92:	689a      	ldr	r2, [r3, #8]
 8003b94:	687b      	ldr	r3, [r7, #4]
 8003b96:	681b      	ldr	r3, [r3, #0]
 8003b98:	2180      	movs	r1, #128	@ 0x80
 8003b9a:	438a      	bics	r2, r1
 8003b9c:	609a      	str	r2, [r3, #8]
 8003b9e:	6a3b      	ldr	r3, [r7, #32]
 8003ba0:	613b      	str	r3, [r7, #16]
 8003ba2:	693b      	ldr	r3, [r7, #16]
 8003ba4:	f383 8810 	msr	PRIMASK, r3
 8003ba8:	46c0      	nop			@ (mov r8, r8)
 8003baa:	687b      	ldr	r3, [r7, #4]
 8003bac:	6f1b      	ldr	r3, [r3, #112]	@ 0x70
 8003bae:	2b00      	cmp	r3, #0
 8003bb0:	d018      	beq.n	8003be4 <HAL_UART_AbortTransmit+0xb4>
 8003bb2:	687b      	ldr	r3, [r7, #4]
 8003bb4:	6f1b      	ldr	r3, [r3, #112]	@ 0x70
 8003bb6:	2200      	movs	r2, #0
 8003bb8:	639a      	str	r2, [r3, #56]	@ 0x38
 8003bba:	687b      	ldr	r3, [r7, #4]
 8003bbc:	6f1b      	ldr	r3, [r3, #112]	@ 0x70
 8003bbe:	0018      	movs	r0, r3
 8003bc0:	f7fd fdf4 	bl	80017ac <HAL_DMA_Abort>
 8003bc4:	1e03      	subs	r3, r0, #0
 8003bc6:	d00d      	beq.n	8003be4 <HAL_UART_AbortTransmit+0xb4>
 8003bc8:	687b      	ldr	r3, [r7, #4]
 8003bca:	6f1b      	ldr	r3, [r3, #112]	@ 0x70
 8003bcc:	0018      	movs	r0, r3
 8003bce:	f7fd ff22 	bl	8001a16 <HAL_DMA_GetError>
 8003bd2:	0003      	movs	r3, r0
 8003bd4:	2b20      	cmp	r3, #32
 8003bd6:	d105      	bne.n	8003be4 <HAL_UART_AbortTransmit+0xb4>
 8003bd8:	687b      	ldr	r3, [r7, #4]
 8003bda:	2284      	movs	r2, #132	@ 0x84
 8003bdc:	2110      	movs	r1, #16
 8003bde:	5099      	str	r1, [r3, r2]
 8003be0:	2303      	movs	r3, #3
 8003be2:	e007      	b.n	8003bf4 <HAL_UART_AbortTransmit+0xc4>
 8003be4:	687b      	ldr	r3, [r7, #4]
 8003be6:	2252      	movs	r2, #82	@ 0x52
 8003be8:	2100      	movs	r1, #0
 8003bea:	5299      	strh	r1, [r3, r2]
 8003bec:	687b      	ldr	r3, [r7, #4]
 8003bee:	2220      	movs	r2, #32
 8003bf0:	67da      	str	r2, [r3, #124]	@ 0x7c
 8003bf2:	2300      	movs	r3, #0
 8003bf4:	0018      	movs	r0, r3
 8003bf6:	46bd      	mov	sp, r7
 8003bf8:	b00a      	add	sp, #40	@ 0x28
 8003bfa:	bd80      	pop	{r7, pc}

08003bfc <HAL_UART_AbortReceive>:
 8003bfc:	b580      	push	{r7, lr}
 8003bfe:	b092      	sub	sp, #72	@ 0x48
 8003c00:	af00      	add	r7, sp, #0
 8003c02:	6078      	str	r0, [r7, #4]
 8003c04:	f3ef 8310 	mrs	r3, PRIMASK
 8003c08:	623b      	str	r3, [r7, #32]
 8003c0a:	6a3b      	ldr	r3, [r7, #32]
 8003c0c:	647b      	str	r3, [r7, #68]	@ 0x44
 8003c0e:	2301      	movs	r3, #1
 8003c10:	627b      	str	r3, [r7, #36]	@ 0x24
 8003c12:	6a7b      	ldr	r3, [r7, #36]	@ 0x24
 8003c14:	f383 8810 	msr	PRIMASK, r3
 8003c18:	46c0      	nop			@ (mov r8, r8)
 8003c1a:	687b      	ldr	r3, [r7, #4]
 8003c1c:	681b      	ldr	r3, [r3, #0]
 8003c1e:	681a      	ldr	r2, [r3, #0]
 8003c20:	687b      	ldr	r3, [r7, #4]
 8003c22:	681b      	ldr	r3, [r3, #0]
 8003c24:	494b      	ldr	r1, [pc, #300]	@ (8003d54 <HAL_UART_AbortReceive+0x158>)
 8003c26:	400a      	ands	r2, r1
 8003c28:	601a      	str	r2, [r3, #0]
 8003c2a:	6c7b      	ldr	r3, [r7, #68]	@ 0x44
 8003c2c:	62bb      	str	r3, [r7, #40]	@ 0x28
 8003c2e:	6abb      	ldr	r3, [r7, #40]	@ 0x28
 8003c30:	f383 8810 	msr	PRIMASK, r3
 8003c34:	46c0      	nop			@ (mov r8, r8)
 8003c36:	f3ef 8310 	mrs	r3, PRIMASK
 8003c3a:	62fb      	str	r3, [r7, #44]	@ 0x2c
 8003c3c:	6afb      	ldr	r3, [r7, #44]	@ 0x2c
 8003c3e:	643b      	str	r3, [r7, #64]	@ 0x40
 8003c40:	2301      	movs	r3, #1
 8003c42:	633b      	str	r3, [r7, #48]	@ 0x30
 8003c44:	6b3b      	ldr	r3, [r7, #48]	@ 0x30
 8003c46:	f383 8810 	msr	PRIMASK, r3
 8003c4a:	46c0      	nop			@ (mov r8, r8)
 8003c4c:	687b      	ldr	r3, [r7, #4]
 8003c4e:	681b      	ldr	r3, [r3, #0]
 8003c50:	689a      	ldr	r2, [r3, #8]
 8003c52:	687b      	ldr	r3, [r7, #4]
 8003c54:	681b      	ldr	r3, [r3, #0]
 8003c56:	2101      	movs	r1, #1
 8003c58:	438a      	bics	r2, r1
 8003c5a:	609a      	str	r2, [r3, #8]
 8003c5c:	6c3b      	ldr	r3, [r7, #64]	@ 0x40
 8003c5e:	637b      	str	r3, [r7, #52]	@ 0x34
 8003c60:	6b7b      	ldr	r3, [r7, #52]	@ 0x34
 8003c62:	f383 8810 	msr	PRIMASK, r3
 8003c66:	46c0      	nop			@ (mov r8, r8)
 8003c68:	687b      	ldr	r3, [r7, #4]
 8003c6a:	6e1b      	ldr	r3, [r3, #96]	@ 0x60
 8003c6c:	2b01      	cmp	r3, #1
 8003c6e:	d118      	bne.n	8003ca2 <HAL_UART_AbortReceive+0xa6>
 8003c70:	f3ef 8310 	mrs	r3, PRIMASK
 8003c74:	617b      	str	r3, [r7, #20]
 8003c76:	697b      	ldr	r3, [r7, #20]
 8003c78:	63fb      	str	r3, [r7, #60]	@ 0x3c
 8003c7a:	2301      	movs	r3, #1
 8003c7c:	61bb      	str	r3, [r7, #24]
 8003c7e:	69bb      	ldr	r3, [r7, #24]
 8003c80:	f383 8810 	msr	PRIMASK, r3
 8003c84:	46c0      	nop			@ (mov r8, r8)
 8003c86:	687b      	ldr	r3, [r7, #4]
 8003c88:	681b      	ldr	r3, [r3, #0]
 8003c8a:	681a      	ldr	r2, [r3, #0]
 8003c8c:	687b      	ldr	r3, [r7, #4]
 8003c8e:	681b      	ldr	r3, [r3, #0]
 8003c90:	2110      	movs	r1, #16
 8003c92:	438a      	bics	r2, r1
 8003c94:	601a      	str	r2, [r3, #0]
 8003c96:	6bfb      	ldr	r3, [r7, #60]	@ 0x3c
 8003c98:	61fb      	str	r3, [r7, #28]
 8003c9a:	69fb      	ldr	r3, [r7, #28]
 8003c9c:	f383 8810 	msr	PRIMASK, r3
 8003ca0:	46c0      	nop			@ (mov r8, r8)
 8003ca2:	687b      	ldr	r3, [r7, #4]
 8003ca4:	681b      	ldr	r3, [r3, #0]
 8003ca6:	689b      	ldr	r3, [r3, #8]
 8003ca8:	2240      	movs	r2, #64	@ 0x40
 8003caa:	4013      	ands	r3, r2
 8003cac:	2b40      	cmp	r3, #64	@ 0x40
 8003cae:	d135      	bne.n	8003d1c <HAL_UART_AbortReceive+0x120>
 8003cb0:	f3ef 8310 	mrs	r3, PRIMASK
 8003cb4:	60bb      	str	r3, [r7, #8]
 8003cb6:	68bb      	ldr	r3, [r7, #8]
 8003cb8:	63bb      	str	r3, [r7, #56]	@ 0x38
 8003cba:	2301      	movs	r3, #1
 8003cbc:	60fb      	str	r3, [r7, #12]
 8003cbe:	68fb      	ldr	r3, [r7, #12]
 8003cc0:	f383 8810 	msr	PRIMASK, r3
 8003cc4:	46c0      	nop			@ (mov r8, r8)
 8003cc6:	687b      	ldr	r3, [r7, #4]
 8003cc8:	681b      	ldr	r3, [r3, #0]
 8003cca:	689a      	ldr	r2, [r3, #8]
 8003ccc:	687b      	ldr	r3, [r7, #4]
 8003cce:	681b      	ldr	r3, [r3, #0]
 8003cd0:	2140      	movs	r1, #64	@ 0x40
 8003cd2:	438a      	bics	r2, r1
 8003cd4:	609a      	str	r2, [r3, #8]
 8003cd6:	6bbb      	ldr	r3, [r7, #56]	@ 0x38
 8003cd8:	613b      	str	r3, [r7, #16]
 8003cda:	693b      	ldr	r3, [r7, #16]
 8003cdc:	f383 8810 	msr	PRIMASK, r3
 8003ce0:	46c0      	nop			@ (mov r8, r8)
 8003ce2:	687b      	ldr	r3, [r7, #4]
 8003ce4:	6f5b      	ldr	r3, [r3, #116]	@ 0x74
 8003ce6:	2b00      	cmp	r3, #0
 8003ce8:	d018      	beq.n	8003d1c <HAL_UART_AbortReceive+0x120>
 8003cea:	687b      	ldr	r3, [r7, #4]
 8003cec:	6f5b      	ldr	r3, [r3, #116]	@ 0x74
 8003cee:	2200      	movs	r2, #0
 8003cf0:	639a      	str	r2, [r3, #56]	@ 0x38
 8003cf2:	687b      	ldr	r3, [r7, #4]
 8003cf4:	6f5b      	ldr	r3, [r3, #116]	@ 0x74
 8003cf6:	0018      	movs	r0, r3
 8003cf8:	f7fd fd58 	bl	80017ac <HAL_DMA_Abort>
 8003cfc:	1e03      	subs	r3, r0, #0
 8003cfe:	d00d      	beq.n	8003d1c <HAL_UART_AbortReceive+0x120>
 8003d00:	687b      	ldr	r3, [r7, #4]
 8003d02:	6f5b      	ldr	r3, [r3, #116]	@ 0x74
 8003d04:	0018      	movs	r0, r3
 8003d06:	f7fd fe86 	bl	8001a16 <HAL_DMA_GetError>
 8003d0a:	0003      	movs	r3, r0
 8003d0c:	2b20      	cmp	r3, #32
 8003d0e:	d105      	bne.n	8003d1c <HAL_UART_AbortReceive+0x120>
 8003d10:	687b      	ldr	r3, [r7, #4]
 8003d12:	2284      	movs	r2, #132	@ 0x84
 8003d14:	2110      	movs	r1, #16
 8003d16:	5099      	str	r1, [r3, r2]
 8003d18:	2303      	movs	r3, #3
 8003d1a:	e017      	b.n	8003d4c <HAL_UART_AbortReceive+0x150>
 8003d1c:	687b      	ldr	r3, [r7, #4]
 8003d1e:	225a      	movs	r2, #90	@ 0x5a
 8003d20:	2100      	movs	r1, #0
 8003d22:	5299      	strh	r1, [r3, r2]
 8003d24:	687b      	ldr	r3, [r7, #4]
 8003d26:	681b      	ldr	r3, [r3, #0]
 8003d28:	220f      	movs	r2, #15
 8003d2a:	621a      	str	r2, [r3, #32]
 8003d2c:	687b      	ldr	r3, [r7, #4]
 8003d2e:	681b      	ldr	r3, [r3, #0]
 8003d30:	699a      	ldr	r2, [r3, #24]
 8003d32:	687b      	ldr	r3, [r7, #4]
 8003d34:	681b      	ldr	r3, [r3, #0]
 8003d36:	2108      	movs	r1, #8
 8003d38:	430a      	orrs	r2, r1
 8003d3a:	619a      	str	r2, [r3, #24]
 8003d3c:	687b      	ldr	r3, [r7, #4]
 8003d3e:	2280      	movs	r2, #128	@ 0x80
 8003d40:	2120      	movs	r1, #32
 8003d42:	5099      	str	r1, [r3, r2]
 8003d44:	687b      	ldr	r3, [r7, #4]
 8003d46:	2200      	movs	r2, #0
 8003d48:	661a      	str	r2, [r3, #96]	@ 0x60
 8003d4a:	2300      	movs	r3, #0
 8003d4c:	0018      	movs	r0, r3
 8003d4e:	46bd      	mov	sp, r7
 8003d50:	b012      	add	sp, #72	@ 0x48
 8003d52:	bd80      	pop	{r7, pc}
 8003d54:	fffffedf 	.word	0xfffffedf

08003d58 <HAL_UART_IRQHandler>:
 8003d58:	b590      	push	{r4, r7, lr}
 8003d5a:	b0ab      	sub	sp, #172	@ 0xac
 8003d5c:	af00      	add	r7, sp, #0
 8003d5e:	6078      	str	r0, [r7, #4]
 8003d60:	687b      	ldr	r3, [r7, #4]
 8003d62:	681b      	ldr	r3, [r3, #0]
 8003d64:	69db      	ldr	r3, [r3, #28]
 8003d66:	22a4      	movs	r2, #164	@ 0xa4
 8003d68:	18b9      	adds	r1, r7, r2
 8003d6a:	600b      	str	r3, [r1, #0]
 8003d6c:	687b      	ldr	r3, [r7, #4]
 8003d6e:	681b      	ldr	r3, [r3, #0]
 8003d70:	681b      	ldr	r3, [r3, #0]
 8003d72:	20a0      	movs	r0, #160	@ 0xa0
 8003d74:	1839      	adds	r1, r7, r0
 8003d76:	600b      	str	r3, [r1, #0]
 8003d78:	687b      	ldr	r3, [r7, #4]
 8003d7a:	681b      	ldr	r3, [r3, #0]
 8003d7c:	689b      	ldr	r3, [r3, #8]
 8003d7e:	219c      	movs	r1, #156	@ 0x9c
 8003d80:	1879      	adds	r1, r7, r1
 8003d82:	600b      	str	r3, [r1, #0]
 8003d84:	0011      	movs	r1, r2
 8003d86:	18bb      	adds	r3, r7, r2
 8003d88:	681b      	ldr	r3, [r3, #0]
 8003d8a:	4a99      	ldr	r2, [pc, #612]	@ (8003ff0 <HAL_UART_IRQHandler+0x298>)
 8003d8c:	4013      	ands	r3, r2
 8003d8e:	2298      	movs	r2, #152	@ 0x98
 8003d90:	18bc      	adds	r4, r7, r2
 8003d92:	6023      	str	r3, [r4, #0]
 8003d94:	18bb      	adds	r3, r7, r2
 8003d96:	681b      	ldr	r3, [r3, #0]
 8003d98:	2b00      	cmp	r3, #0
 8003d9a:	d114      	bne.n	8003dc6 <HAL_UART_IRQHandler+0x6e>
 8003d9c:	187b      	adds	r3, r7, r1
 8003d9e:	681b      	ldr	r3, [r3, #0]
 8003da0:	2220      	movs	r2, #32
 8003da2:	4013      	ands	r3, r2
 8003da4:	d00f      	beq.n	8003dc6 <HAL_UART_IRQHandler+0x6e>
 8003da6:	183b      	adds	r3, r7, r0
 8003da8:	681b      	ldr	r3, [r3, #0]
 8003daa:	2220      	movs	r2, #32
 8003dac:	4013      	ands	r3, r2
 8003dae:	d00a      	beq.n	8003dc6 <HAL_UART_IRQHandler+0x6e>
 8003db0:	687b      	ldr	r3, [r7, #4]
 8003db2:	6e9b      	ldr	r3, [r3, #104]	@ 0x68
 8003db4:	2b00      	cmp	r3, #0
 8003db6:	d100      	bne.n	8003dba <HAL_UART_IRQHandler+0x62>
 8003db8:	e2be      	b.n	8004338 <HAL_UART_IRQHandler+0x5e0>
 8003dba:	687b      	ldr	r3, [r7, #4]
 8003dbc:	6e9b      	ldr	r3, [r3, #104]	@ 0x68
 8003dbe:	687a      	ldr	r2, [r7, #4]
 8003dc0:	0010      	movs	r0, r2
 8003dc2:	4798      	blx	r3
 8003dc4:	e2b8      	b.n	8004338 <HAL_UART_IRQHandler+0x5e0>
 8003dc6:	2398      	movs	r3, #152	@ 0x98
 8003dc8:	18fb      	adds	r3, r7, r3
 8003dca:	681b      	ldr	r3, [r3, #0]
 8003dcc:	2b00      	cmp	r3, #0
 8003dce:	d100      	bne.n	8003dd2 <HAL_UART_IRQHandler+0x7a>
 8003dd0:	e114      	b.n	8003ffc <HAL_UART_IRQHandler+0x2a4>
 8003dd2:	239c      	movs	r3, #156	@ 0x9c
 8003dd4:	18fb      	adds	r3, r7, r3
 8003dd6:	681b      	ldr	r3, [r3, #0]
 8003dd8:	2201      	movs	r2, #1
 8003dda:	4013      	ands	r3, r2
 8003ddc:	d106      	bne.n	8003dec <HAL_UART_IRQHandler+0x94>
 8003dde:	23a0      	movs	r3, #160	@ 0xa0
 8003de0:	18fb      	adds	r3, r7, r3
 8003de2:	681b      	ldr	r3, [r3, #0]
 8003de4:	4a83      	ldr	r2, [pc, #524]	@ (8003ff4 <HAL_UART_IRQHandler+0x29c>)
 8003de6:	4013      	ands	r3, r2
 8003de8:	d100      	bne.n	8003dec <HAL_UART_IRQHandler+0x94>
 8003dea:	e107      	b.n	8003ffc <HAL_UART_IRQHandler+0x2a4>
 8003dec:	23a4      	movs	r3, #164	@ 0xa4
 8003dee:	18fb      	adds	r3, r7, r3
 8003df0:	681b      	ldr	r3, [r3, #0]
 8003df2:	2201      	movs	r2, #1
 8003df4:	4013      	ands	r3, r2
 8003df6:	d012      	beq.n	8003e1e <HAL_UART_IRQHandler+0xc6>
 8003df8:	23a0      	movs	r3, #160	@ 0xa0
 8003dfa:	18fb      	adds	r3, r7, r3
 8003dfc:	681a      	ldr	r2, [r3, #0]
 8003dfe:	2380      	movs	r3, #128	@ 0x80
 8003e00:	005b      	lsls	r3, r3, #1
 8003e02:	4013      	ands	r3, r2
 8003e04:	d00b      	beq.n	8003e1e <HAL_UART_IRQHandler+0xc6>
 8003e06:	687b      	ldr	r3, [r7, #4]
 8003e08:	681b      	ldr	r3, [r3, #0]
 8003e0a:	2201      	movs	r2, #1
 8003e0c:	621a      	str	r2, [r3, #32]
 8003e0e:	687b      	ldr	r3, [r7, #4]
 8003e10:	2284      	movs	r2, #132	@ 0x84
 8003e12:	589b      	ldr	r3, [r3, r2]
 8003e14:	2201      	movs	r2, #1
 8003e16:	431a      	orrs	r2, r3
 8003e18:	687b      	ldr	r3, [r7, #4]
 8003e1a:	2184      	movs	r1, #132	@ 0x84
 8003e1c:	505a      	str	r2, [r3, r1]
 8003e1e:	23a4      	movs	r3, #164	@ 0xa4
 8003e20:	18fb      	adds	r3, r7, r3
 8003e22:	681b      	ldr	r3, [r3, #0]
 8003e24:	2202      	movs	r2, #2
 8003e26:	4013      	ands	r3, r2
 8003e28:	d011      	beq.n	8003e4e <HAL_UART_IRQHandler+0xf6>
 8003e2a:	239c      	movs	r3, #156	@ 0x9c
 8003e2c:	18fb      	adds	r3, r7, r3
 8003e2e:	681b      	ldr	r3, [r3, #0]
 8003e30:	2201      	movs	r2, #1
 8003e32:	4013      	ands	r3, r2
 8003e34:	d00b      	beq.n	8003e4e <HAL_UART_IRQHandler+0xf6>
 8003e36:	687b      	ldr	r3, [r7, #4]
 8003e38:	681b      	ldr	r3, [r3, #0]
 8003e3a:	2202      	movs	r2, #2
 8003e3c:	621a      	str	r2, [r3, #32]
 8003e3e:	687b      	ldr	r3, [r7, #4]
 8003e40:	2284      	movs	r2, #132	@ 0x84
 8003e42:	589b      	ldr	r3, [r3, r2]
 8003e44:	2204      	movs	r2, #4
 8003e46:	431a      	orrs	r2, r3
 8003e48:	687b      	ldr	r3, [r7, #4]
 8003e4a:	2184      	movs	r1, #132	@ 0x84
 8003e4c:	505a      	str	r2, [r3, r1]
 8003e4e:	23a4      	movs	r3, #164	@ 0xa4
 8003e50:	18fb      	adds	r3, r7, r3
 8003e52:	681b      	ldr	r3, [r3, #0]
 8003e54:	2204      	movs	r2, #4
 8003e56:	4013      	ands	r3, r2
 8003e58:	d011      	beq.n	8003e7e <HAL_UART_IRQHandler+0x126>
 8003e5a:	239c      	movs	r3, #156	@ 0x9c
 8003e5c:	18fb      	adds	r3, r7, r3
 8003e5e:	681b      	ldr	r3, [r3, #0]
 8003e60:	2201      	movs	r2, #1
 8003e62:	4013      	ands	r3, r2
 8003e64:	d00b      	beq.n	8003e7e <HAL_UART_IRQHandler+0x126>
 8003e66:	687b      	ldr	r3, [r7, #4]
 8003e68:	681b      	ldr	r3, [r3, #0]
 8003e6a:	2204      	movs	r2, #4
 8003e6c:	621a      	str	r2, [r3, #32]
 8003e6e:	687b      	ldr	r3, [r7, #4]
 8003e70:	2284      	movs	r2, #132	@ 0x84
 8003e72:	589b      	ldr	r3, [r3, r2]
 8003e74:	2202      	movs	r2, #2
 8003e76:	431a      	orrs	r2, r3
 8003e78:	687b      	ldr	r3, [r7, #4]
 8003e7a:	2184      	movs	r1, #132	@ 0x84
 8003e7c:	505a      	str	r2, [r3, r1]
 8003e7e:	23a4      	movs	r3, #164	@ 0xa4
 8003e80:	18fb      	adds	r3, r7, r3
 8003e82:	681b      	ldr	r3, [r3, #0]
 8003e84:	2208      	movs	r2, #8
 8003e86:	4013      	ands	r3, r2
 8003e88:	d017      	beq.n	8003eba <HAL_UART_IRQHandler+0x162>
 8003e8a:	23a0      	movs	r3, #160	@ 0xa0
 8003e8c:	18fb      	adds	r3, r7, r3
 8003e8e:	681b      	ldr	r3, [r3, #0]
 8003e90:	2220      	movs	r2, #32
 8003e92:	4013      	ands	r3, r2
 8003e94:	d105      	bne.n	8003ea2 <HAL_UART_IRQHandler+0x14a>
 8003e96:	239c      	movs	r3, #156	@ 0x9c
 8003e98:	18fb      	adds	r3, r7, r3
 8003e9a:	681b      	ldr	r3, [r3, #0]
 8003e9c:	2201      	movs	r2, #1
 8003e9e:	4013      	ands	r3, r2
 8003ea0:	d00b      	beq.n	8003eba <HAL_UART_IRQHandler+0x162>
 8003ea2:	687b      	ldr	r3, [r7, #4]
 8003ea4:	681b      	ldr	r3, [r3, #0]
 8003ea6:	2208      	movs	r2, #8
 8003ea8:	621a      	str	r2, [r3, #32]
 8003eaa:	687b      	ldr	r3, [r7, #4]
 8003eac:	2284      	movs	r2, #132	@ 0x84
 8003eae:	589b      	ldr	r3, [r3, r2]
 8003eb0:	2208      	movs	r2, #8
 8003eb2:	431a      	orrs	r2, r3
 8003eb4:	687b      	ldr	r3, [r7, #4]
 8003eb6:	2184      	movs	r1, #132	@ 0x84
 8003eb8:	505a      	str	r2, [r3, r1]
 8003eba:	23a4      	movs	r3, #164	@ 0xa4
 8003ebc:	18fb      	adds	r3, r7, r3
 8003ebe:	681a      	ldr	r2, [r3, #0]
 8003ec0:	2380      	movs	r3, #128	@ 0x80
 8003ec2:	011b      	lsls	r3, r3, #4
 8003ec4:	4013      	ands	r3, r2
 8003ec6:	d013      	beq.n	8003ef0 <HAL_UART_IRQHandler+0x198>
 8003ec8:	23a0      	movs	r3, #160	@ 0xa0
 8003eca:	18fb      	adds	r3, r7, r3
 8003ecc:	681a      	ldr	r2, [r3, #0]
 8003ece:	2380      	movs	r3, #128	@ 0x80
 8003ed0:	04db      	lsls	r3, r3, #19
 8003ed2:	4013      	ands	r3, r2
 8003ed4:	d00c      	beq.n	8003ef0 <HAL_UART_IRQHandler+0x198>
 8003ed6:	687b      	ldr	r3, [r7, #4]
 8003ed8:	681b      	ldr	r3, [r3, #0]
 8003eda:	2280      	movs	r2, #128	@ 0x80
 8003edc:	0112      	lsls	r2, r2, #4
 8003ede:	621a      	str	r2, [r3, #32]
 8003ee0:	687b      	ldr	r3, [r7, #4]
 8003ee2:	2284      	movs	r2, #132	@ 0x84
 8003ee4:	589b      	ldr	r3, [r3, r2]
 8003ee6:	2220      	movs	r2, #32
 8003ee8:	431a      	orrs	r2, r3
 8003eea:	687b      	ldr	r3, [r7, #4]
 8003eec:	2184      	movs	r1, #132	@ 0x84
 8003eee:	505a      	str	r2, [r3, r1]
 8003ef0:	687b      	ldr	r3, [r7, #4]
 8003ef2:	2284      	movs	r2, #132	@ 0x84
 8003ef4:	589b      	ldr	r3, [r3, r2]
 8003ef6:	2b00      	cmp	r3, #0
 8003ef8:	d100      	bne.n	8003efc <HAL_UART_IRQHandler+0x1a4>
 8003efa:	e21f      	b.n	800433c <HAL_UART_IRQHandler+0x5e4>
 8003efc:	23a4      	movs	r3, #164	@ 0xa4
 8003efe:	18fb      	adds	r3, r7, r3
 8003f00:	681b      	ldr	r3, [r3, #0]
 8003f02:	2220      	movs	r2, #32
 8003f04:	4013      	ands	r3, r2
 8003f06:	d00e      	beq.n	8003f26 <HAL_UART_IRQHandler+0x1ce>
 8003f08:	23a0      	movs	r3, #160	@ 0xa0
 8003f0a:	18fb      	adds	r3, r7, r3
 8003f0c:	681b      	ldr	r3, [r3, #0]
 8003f0e:	2220      	movs	r2, #32
 8003f10:	4013      	ands	r3, r2
 8003f12:	d008      	beq.n	8003f26 <HAL_UART_IRQHandler+0x1ce>
 8003f14:	687b      	ldr	r3, [r7, #4]
 8003f16:	6e9b      	ldr	r3, [r3, #104]	@ 0x68
 8003f18:	2b00      	cmp	r3, #0
 8003f1a:	d004      	beq.n	8003f26 <HAL_UART_IRQHandler+0x1ce>
 8003f1c:	687b      	ldr	r3, [r7, #4]
 8003f1e:	6e9b      	ldr	r3, [r3, #104]	@ 0x68
 8003f20:	687a      	ldr	r2, [r7, #4]
 8003f22:	0010      	movs	r0, r2
 8003f24:	4798      	blx	r3
 8003f26:	687b      	ldr	r3, [r7, #4]
 8003f28:	2284      	movs	r2, #132	@ 0x84
 8003f2a:	589b      	ldr	r3, [r3, r2]
 8003f2c:	2194      	movs	r1, #148	@ 0x94
 8003f2e:	187a      	adds	r2, r7, r1
 8003f30:	6013      	str	r3, [r2, #0]
 8003f32:	687b      	ldr	r3, [r7, #4]
 8003f34:	681b      	ldr	r3, [r3, #0]
 8003f36:	689b      	ldr	r3, [r3, #8]
 8003f38:	2240      	movs	r2, #64	@ 0x40
 8003f3a:	4013      	ands	r3, r2
 8003f3c:	2b40      	cmp	r3, #64	@ 0x40
 8003f3e:	d004      	beq.n	8003f4a <HAL_UART_IRQHandler+0x1f2>
 8003f40:	187b      	adds	r3, r7, r1
 8003f42:	681b      	ldr	r3, [r3, #0]
 8003f44:	2228      	movs	r2, #40	@ 0x28
 8003f46:	4013      	ands	r3, r2
 8003f48:	d047      	beq.n	8003fda <HAL_UART_IRQHandler+0x282>
 8003f4a:	687b      	ldr	r3, [r7, #4]
 8003f4c:	0018      	movs	r0, r3
 8003f4e:	f000 ff6f 	bl	8004e30 <UART_EndRxTransfer>
 8003f52:	687b      	ldr	r3, [r7, #4]
 8003f54:	681b      	ldr	r3, [r3, #0]
 8003f56:	689b      	ldr	r3, [r3, #8]
 8003f58:	2240      	movs	r2, #64	@ 0x40
 8003f5a:	4013      	ands	r3, r2
 8003f5c:	2b40      	cmp	r3, #64	@ 0x40
 8003f5e:	d137      	bne.n	8003fd0 <HAL_UART_IRQHandler+0x278>
 8003f60:	f3ef 8310 	mrs	r3, PRIMASK
 8003f64:	663b      	str	r3, [r7, #96]	@ 0x60
 8003f66:	6e3b      	ldr	r3, [r7, #96]	@ 0x60
 8003f68:	2090      	movs	r0, #144	@ 0x90
 8003f6a:	183a      	adds	r2, r7, r0
 8003f6c:	6013      	str	r3, [r2, #0]
 8003f6e:	2301      	movs	r3, #1
 8003f70:	667b      	str	r3, [r7, #100]	@ 0x64
 8003f72:	6e7b      	ldr	r3, [r7, #100]	@ 0x64
 8003f74:	f383 8810 	msr	PRIMASK, r3
 8003f78:	46c0      	nop			@ (mov r8, r8)
 8003f7a:	687b      	ldr	r3, [r7, #4]
 8003f7c:	681b      	ldr	r3, [r3, #0]
 8003f7e:	689a      	ldr	r2, [r3, #8]
 8003f80:	687b      	ldr	r3, [r7, #4]
 8003f82:	681b      	ldr	r3, [r3, #0]
 8003f84:	2140      	movs	r1, #64	@ 0x40
 8003f86:	438a      	bics	r2, r1
 8003f88:	609a      	str	r2, [r3, #8]
 8003f8a:	183b      	adds	r3, r7, r0
 8003f8c:	681b      	ldr	r3, [r3, #0]
 8003f8e:	66bb      	str	r3, [r7, #104]	@ 0x68
 8003f90:	6ebb      	ldr	r3, [r7, #104]	@ 0x68
 8003f92:	f383 8810 	msr	PRIMASK, r3
 8003f96:	46c0      	nop			@ (mov r8, r8)
 8003f98:	687b      	ldr	r3, [r7, #4]
 8003f9a:	6f5b      	ldr	r3, [r3, #116]	@ 0x74
 8003f9c:	2b00      	cmp	r3, #0
 8003f9e:	d012      	beq.n	8003fc6 <HAL_UART_IRQHandler+0x26e>
 8003fa0:	687b      	ldr	r3, [r7, #4]
 8003fa2:	6f5b      	ldr	r3, [r3, #116]	@ 0x74
 8003fa4:	4a14      	ldr	r2, [pc, #80]	@ (8003ff8 <HAL_UART_IRQHandler+0x2a0>)
 8003fa6:	639a      	str	r2, [r3, #56]	@ 0x38
 8003fa8:	687b      	ldr	r3, [r7, #4]
 8003faa:	6f5b      	ldr	r3, [r3, #116]	@ 0x74
 8003fac:	0018      	movs	r0, r3
 8003fae:	f7fd fc3d 	bl	800182c <HAL_DMA_Abort_IT>
 8003fb2:	1e03      	subs	r3, r0, #0
 8003fb4:	d01a      	beq.n	8003fec <HAL_UART_IRQHandler+0x294>
 8003fb6:	687b      	ldr	r3, [r7, #4]
 8003fb8:	6f5b      	ldr	r3, [r3, #116]	@ 0x74
 8003fba:	6b9a      	ldr	r2, [r3, #56]	@ 0x38
 8003fbc:	687b      	ldr	r3, [r7, #4]
 8003fbe:	6f5b      	ldr	r3, [r3, #116]	@ 0x74
 8003fc0:	0018      	movs	r0, r3
 8003fc2:	4790      	blx	r2
 8003fc4:	e012      	b.n	8003fec <HAL_UART_IRQHandler+0x294>
 8003fc6:	687b      	ldr	r3, [r7, #4]
 8003fc8:	0018      	movs	r0, r3
 8003fca:	f7fc fdef 	bl	8000bac <HAL_UART_ErrorCallback>
 8003fce:	e00d      	b.n	8003fec <HAL_UART_IRQHandler+0x294>
 8003fd0:	687b      	ldr	r3, [r7, #4]
 8003fd2:	0018      	movs	r0, r3
 8003fd4:	f7fc fdea 	bl	8000bac <HAL_UART_ErrorCallback>
 8003fd8:	e008      	b.n	8003fec <HAL_UART_IRQHandler+0x294>
 8003fda:	687b      	ldr	r3, [r7, #4]
 8003fdc:	0018      	movs	r0, r3
 8003fde:	f7fc fde5 	bl	8000bac <HAL_UART_ErrorCallback>
 8003fe2:	687b      	ldr	r3, [r7, #4]
 8003fe4:	2284      	movs	r2, #132	@ 0x84
 8003fe6:	2100      	movs	r1, #0
 8003fe8:	5099      	str	r1, [r3, r2]
 8003fea:	e1a7      	b.n	800433c <HAL_UART_IRQHandler+0x5e4>
 8003fec:	46c0      	nop			@ (mov r8, r8)
 8003fee:	e1a5      	b.n	800433c <HAL_UART_IRQHandler+0x5e4>
 8003ff0:	0000080f 	.word	0x0000080f
 8003ff4:	04000120 	.word	0x04000120
 8003ff8:	0800521b 	.word	0x0800521b
 8003ffc:	687b      	ldr	r3, [r7, #4]
 8003ffe:	6e1b      	ldr	r3, [r3, #96]	@ 0x60
 8004000:	2b01      	cmp	r3, #1
 8004002:	d000      	beq.n	8004006 <HAL_UART_IRQHandler+0x2ae>
 8004004:	e159      	b.n	80042ba <HAL_UART_IRQHandler+0x562>
 8004006:	23a4      	movs	r3, #164	@ 0xa4
 8004008:	18fb      	adds	r3, r7, r3
 800400a:	681b      	ldr	r3, [r3, #0]
 800400c:	2210      	movs	r2, #16
 800400e:	4013      	ands	r3, r2
 8004010:	d100      	bne.n	8004014 <HAL_UART_IRQHandler+0x2bc>
 8004012:	e152      	b.n	80042ba <HAL_UART_IRQHandler+0x562>
 8004014:	23a0      	movs	r3, #160	@ 0xa0
 8004016:	18fb      	adds	r3, r7, r3
 8004018:	681b      	ldr	r3, [r3, #0]
 800401a:	2210      	movs	r2, #16
 800401c:	4013      	ands	r3, r2
 800401e:	d100      	bne.n	8004022 <HAL_UART_IRQHandler+0x2ca>
 8004020:	e14b      	b.n	80042ba <HAL_UART_IRQHandler+0x562>
 8004022:	687b      	ldr	r3, [r7, #4]
 8004024:	681b      	ldr	r3, [r3, #0]
 8004026:	2210      	movs	r2, #16
 8004028:	621a      	str	r2, [r3, #32]
 800402a:	687b      	ldr	r3, [r7, #4]
 800402c:	681b      	ldr	r3, [r3, #0]
 800402e:	689b      	ldr	r3, [r3, #8]
 8004030:	2240      	movs	r2, #64	@ 0x40
 8004032:	4013      	ands	r3, r2
 8004034:	2b40      	cmp	r3, #64	@ 0x40
 8004036:	d000      	beq.n	800403a <HAL_UART_IRQHandler+0x2e2>
 8004038:	e0bf      	b.n	80041ba <HAL_UART_IRQHandler+0x462>
 800403a:	687b      	ldr	r3, [r7, #4]
 800403c:	6f5b      	ldr	r3, [r3, #116]	@ 0x74
 800403e:	681b      	ldr	r3, [r3, #0]
 8004040:	685a      	ldr	r2, [r3, #4]
 8004042:	217e      	movs	r1, #126	@ 0x7e
 8004044:	187b      	adds	r3, r7, r1
 8004046:	801a      	strh	r2, [r3, #0]
 8004048:	187b      	adds	r3, r7, r1
 800404a:	881b      	ldrh	r3, [r3, #0]
 800404c:	2b00      	cmp	r3, #0
 800404e:	d100      	bne.n	8004052 <HAL_UART_IRQHandler+0x2fa>
 8004050:	e095      	b.n	800417e <HAL_UART_IRQHandler+0x426>
 8004052:	687b      	ldr	r3, [r7, #4]
 8004054:	2258      	movs	r2, #88	@ 0x58
 8004056:	5a9b      	ldrh	r3, [r3, r2]
 8004058:	187a      	adds	r2, r7, r1
 800405a:	8812      	ldrh	r2, [r2, #0]
 800405c:	429a      	cmp	r2, r3
 800405e:	d300      	bcc.n	8004062 <HAL_UART_IRQHandler+0x30a>
 8004060:	e08d      	b.n	800417e <HAL_UART_IRQHandler+0x426>
 8004062:	687b      	ldr	r3, [r7, #4]
 8004064:	187a      	adds	r2, r7, r1
 8004066:	215a      	movs	r1, #90	@ 0x5a
 8004068:	8812      	ldrh	r2, [r2, #0]
 800406a:	525a      	strh	r2, [r3, r1]
 800406c:	687b      	ldr	r3, [r7, #4]
 800406e:	6f5b      	ldr	r3, [r3, #116]	@ 0x74
 8004070:	681b      	ldr	r3, [r3, #0]
 8004072:	681b      	ldr	r3, [r3, #0]
 8004074:	2220      	movs	r2, #32
 8004076:	4013      	ands	r3, r2
 8004078:	d16f      	bne.n	800415a <HAL_UART_IRQHandler+0x402>
 800407a:	f3ef 8310 	mrs	r3, PRIMASK
 800407e:	633b      	str	r3, [r7, #48]	@ 0x30
 8004080:	6b3b      	ldr	r3, [r7, #48]	@ 0x30
 8004082:	67bb      	str	r3, [r7, #120]	@ 0x78
 8004084:	2301      	movs	r3, #1
 8004086:	637b      	str	r3, [r7, #52]	@ 0x34
 8004088:	6b7b      	ldr	r3, [r7, #52]	@ 0x34
 800408a:	f383 8810 	msr	PRIMASK, r3
 800408e:	46c0      	nop			@ (mov r8, r8)
 8004090:	687b      	ldr	r3, [r7, #4]
 8004092:	681b      	ldr	r3, [r3, #0]
 8004094:	681a      	ldr	r2, [r3, #0]
 8004096:	687b      	ldr	r3, [r7, #4]
 8004098:	681b      	ldr	r3, [r3, #0]
 800409a:	49ad      	ldr	r1, [pc, #692]	@ (8004350 <HAL_UART_IRQHandler+0x5f8>)
 800409c:	400a      	ands	r2, r1
 800409e:	601a      	str	r2, [r3, #0]
 80040a0:	6fbb      	ldr	r3, [r7, #120]	@ 0x78
 80040a2:	63bb      	str	r3, [r7, #56]	@ 0x38
 80040a4:	6bbb      	ldr	r3, [r7, #56]	@ 0x38
 80040a6:	f383 8810 	msr	PRIMASK, r3
 80040aa:	46c0      	nop			@ (mov r8, r8)
 80040ac:	f3ef 8310 	mrs	r3, PRIMASK
 80040b0:	63fb      	str	r3, [r7, #60]	@ 0x3c
 80040b2:	6bfb      	ldr	r3, [r7, #60]	@ 0x3c
 80040b4:	677b      	str	r3, [r7, #116]	@ 0x74
 80040b6:	2301      	movs	r3, #1
 80040b8:	643b      	str	r3, [r7, #64]	@ 0x40
 80040ba:	6c3b      	ldr	r3, [r7, #64]	@ 0x40
 80040bc:	f383 8810 	msr	PRIMASK, r3
 80040c0:	46c0      	nop			@ (mov r8, r8)
 80040c2:	687b      	ldr	r3, [r7, #4]
 80040c4:	681b      	ldr	r3, [r3, #0]
 80040c6:	689a      	ldr	r2, [r3, #8]
 80040c8:	687b      	ldr	r3, [r7, #4]
 80040ca:	681b      	ldr	r3, [r3, #0]
 80040cc:	2101      	movs	r1, #1
 80040ce:	438a      	bics	r2, r1
 80040d0:	609a      	str	r2, [r3, #8]
 80040d2:	6f7b      	ldr	r3, [r7, #116]	@ 0x74
 80040d4:	647b      	str	r3, [r7, #68]	@ 0x44
 80040d6:	6c7b      	ldr	r3, [r7, #68]	@ 0x44
 80040d8:	f383 8810 	msr	PRIMASK, r3
 80040dc:	46c0      	nop			@ (mov r8, r8)
 80040de:	f3ef 8310 	mrs	r3, PRIMASK
 80040e2:	64bb      	str	r3, [r7, #72]	@ 0x48
 80040e4:	6cbb      	ldr	r3, [r7, #72]	@ 0x48
 80040e6:	673b      	str	r3, [r7, #112]	@ 0x70
 80040e8:	2301      	movs	r3, #1
 80040ea:	64fb      	str	r3, [r7, #76]	@ 0x4c
 80040ec:	6cfb      	ldr	r3, [r7, #76]	@ 0x4c
 80040ee:	f383 8810 	msr	PRIMASK, r3
 80040f2:	46c0      	nop			@ (mov r8, r8)
 80040f4:	687b      	ldr	r3, [r7, #4]
 80040f6:	681b      	ldr	r3, [r3, #0]
 80040f8:	689a      	ldr	r2, [r3, #8]
 80040fa:	687b      	ldr	r3, [r7, #4]
 80040fc:	681b      	ldr	r3, [r3, #0]
 80040fe:	2140      	movs	r1, #64	@ 0x40
 8004100:	438a      	bics	r2, r1
 8004102:	609a      	str	r2, [r3, #8]
 8004104:	6f3b      	ldr	r3, [r7, #112]	@ 0x70
 8004106:	653b      	str	r3, [r7, #80]	@ 0x50
 8004108:	6d3b      	ldr	r3, [r7, #80]	@ 0x50
 800410a:	f383 8810 	msr	PRIMASK, r3
 800410e:	46c0      	nop			@ (mov r8, r8)
 8004110:	687b      	ldr	r3, [r7, #4]
 8004112:	2280      	movs	r2, #128	@ 0x80
 8004114:	2120      	movs	r1, #32
 8004116:	5099      	str	r1, [r3, r2]
 8004118:	687b      	ldr	r3, [r7, #4]
 800411a:	2200      	movs	r2, #0
 800411c:	661a      	str	r2, [r3, #96]	@ 0x60
 800411e:	f3ef 8310 	mrs	r3, PRIMASK
 8004122:	657b      	str	r3, [r7, #84]	@ 0x54
 8004124:	6d7b      	ldr	r3, [r7, #84]	@ 0x54
 8004126:	66fb      	str	r3, [r7, #108]	@ 0x6c
 8004128:	2301      	movs	r3, #1
 800412a:	65bb      	str	r3, [r7, #88]	@ 0x58
 800412c:	6dbb      	ldr	r3, [r7, #88]	@ 0x58
 800412e:	f383 8810 	msr	PRIMASK, r3
 8004132:	46c0      	nop			@ (mov r8, r8)
 8004134:	687b      	ldr	r3, [r7, #4]
 8004136:	681b      	ldr	r3, [r3, #0]
 8004138:	681a      	ldr	r2, [r3, #0]
 800413a:	687b      	ldr	r3, [r7, #4]
 800413c:	681b      	ldr	r3, [r3, #0]
 800413e:	2110      	movs	r1, #16
 8004140:	438a      	bics	r2, r1
 8004142:	601a      	str	r2, [r3, #0]
 8004144:	6efb      	ldr	r3, [r7, #108]	@ 0x6c
 8004146:	65fb      	str	r3, [r7, #92]	@ 0x5c
 8004148:	6dfb      	ldr	r3, [r7, #92]	@ 0x5c
 800414a:	f383 8810 	msr	PRIMASK, r3
 800414e:	46c0      	nop			@ (mov r8, r8)
 8004150:	687b      	ldr	r3, [r7, #4]
 8004152:	6f5b      	ldr	r3, [r3, #116]	@ 0x74
 8004154:	0018      	movs	r0, r3
 8004156:	f7fd fb29 	bl	80017ac <HAL_DMA_Abort>
 800415a:	687b      	ldr	r3, [r7, #4]
 800415c:	2202      	movs	r2, #2
 800415e:	665a      	str	r2, [r3, #100]	@ 0x64
 8004160:	687b      	ldr	r3, [r7, #4]
 8004162:	2258      	movs	r2, #88	@ 0x58
 8004164:	5a9a      	ldrh	r2, [r3, r2]
 8004166:	687b      	ldr	r3, [r7, #4]
 8004168:	215a      	movs	r1, #90	@ 0x5a
 800416a:	5a5b      	ldrh	r3, [r3, r1]
 800416c:	b29b      	uxth	r3, r3
 800416e:	1ad3      	subs	r3, r2, r3
 8004170:	b29a      	uxth	r2, r3
 8004172:	687b      	ldr	r3, [r7, #4]
 8004174:	0011      	movs	r1, r2
 8004176:	0018      	movs	r0, r3
 8004178:	f7fc fcfc 	bl	8000b74 <HAL_UARTEx_RxEventCallback>
 800417c:	e0e0      	b.n	8004340 <HAL_UART_IRQHandler+0x5e8>
 800417e:	687b      	ldr	r3, [r7, #4]
 8004180:	2258      	movs	r2, #88	@ 0x58
 8004182:	5a9b      	ldrh	r3, [r3, r2]
 8004184:	227e      	movs	r2, #126	@ 0x7e
 8004186:	18ba      	adds	r2, r7, r2
 8004188:	8812      	ldrh	r2, [r2, #0]
 800418a:	429a      	cmp	r2, r3
 800418c:	d000      	beq.n	8004190 <HAL_UART_IRQHandler+0x438>
 800418e:	e0d7      	b.n	8004340 <HAL_UART_IRQHandler+0x5e8>
 8004190:	687b      	ldr	r3, [r7, #4]
 8004192:	6f5b      	ldr	r3, [r3, #116]	@ 0x74
 8004194:	681b      	ldr	r3, [r3, #0]
 8004196:	681b      	ldr	r3, [r3, #0]
 8004198:	2220      	movs	r2, #32
 800419a:	4013      	ands	r3, r2
 800419c:	2b20      	cmp	r3, #32
 800419e:	d000      	beq.n	80041a2 <HAL_UART_IRQHandler+0x44a>
 80041a0:	e0ce      	b.n	8004340 <HAL_UART_IRQHandler+0x5e8>
 80041a2:	687b      	ldr	r3, [r7, #4]
 80041a4:	2202      	movs	r2, #2
 80041a6:	665a      	str	r2, [r3, #100]	@ 0x64
 80041a8:	687b      	ldr	r3, [r7, #4]
 80041aa:	2258      	movs	r2, #88	@ 0x58
 80041ac:	5a9a      	ldrh	r2, [r3, r2]
 80041ae:	687b      	ldr	r3, [r7, #4]
 80041b0:	0011      	movs	r1, r2
 80041b2:	0018      	movs	r0, r3
 80041b4:	f7fc fcde 	bl	8000b74 <HAL_UARTEx_RxEventCallback>
 80041b8:	e0c2      	b.n	8004340 <HAL_UART_IRQHandler+0x5e8>
 80041ba:	687b      	ldr	r3, [r7, #4]
 80041bc:	2258      	movs	r2, #88	@ 0x58
 80041be:	5a99      	ldrh	r1, [r3, r2]
 80041c0:	687b      	ldr	r3, [r7, #4]
 80041c2:	225a      	movs	r2, #90	@ 0x5a
 80041c4:	5a9b      	ldrh	r3, [r3, r2]
 80041c6:	b29a      	uxth	r2, r3
 80041c8:	208e      	movs	r0, #142	@ 0x8e
 80041ca:	183b      	adds	r3, r7, r0
 80041cc:	1a8a      	subs	r2, r1, r2
 80041ce:	801a      	strh	r2, [r3, #0]
 80041d0:	687b      	ldr	r3, [r7, #4]
 80041d2:	225a      	movs	r2, #90	@ 0x5a
 80041d4:	5a9b      	ldrh	r3, [r3, r2]
 80041d6:	b29b      	uxth	r3, r3
 80041d8:	2b00      	cmp	r3, #0
 80041da:	d100      	bne.n	80041de <HAL_UART_IRQHandler+0x486>
 80041dc:	e0b2      	b.n	8004344 <HAL_UART_IRQHandler+0x5ec>
 80041de:	183b      	adds	r3, r7, r0
 80041e0:	881b      	ldrh	r3, [r3, #0]
 80041e2:	2b00      	cmp	r3, #0
 80041e4:	d100      	bne.n	80041e8 <HAL_UART_IRQHandler+0x490>
 80041e6:	e0ad      	b.n	8004344 <HAL_UART_IRQHandler+0x5ec>
 80041e8:	f3ef 8310 	mrs	r3, PRIMASK
 80041ec:	60fb      	str	r3, [r7, #12]
 80041ee:	68fb      	ldr	r3, [r7, #12]
 80041f0:	2488      	movs	r4, #136	@ 0x88
 80041f2:	193a      	adds	r2, r7, r4
 80041f4:	6013      	str	r3, [r2, #0]
 80041f6:	2301      	movs	r3, #1
 80041f8:	613b      	str	r3, [r7, #16]
 80041fa:	693b      	ldr	r3, [r7, #16]
 80041fc:	f383 8810 	msr	PRIMASK, r3
 8004200:	46c0      	nop			@ (mov r8, r8)
 8004202:	687b      	ldr	r3, [r7, #4]
 8004204:	681b      	ldr	r3, [r3, #0]
 8004206:	681a      	ldr	r2, [r3, #0]
 8004208:	687b      	ldr	r3, [r7, #4]
 800420a:	681b      	ldr	r3, [r3, #0]
 800420c:	4951      	ldr	r1, [pc, #324]	@ (8004354 <HAL_UART_IRQHandler+0x5fc>)
 800420e:	400a      	ands	r2, r1
 8004210:	601a      	str	r2, [r3, #0]
 8004212:	193b      	adds	r3, r7, r4
 8004214:	681b      	ldr	r3, [r3, #0]
 8004216:	617b      	str	r3, [r7, #20]
 8004218:	697b      	ldr	r3, [r7, #20]
 800421a:	f383 8810 	msr	PRIMASK, r3
 800421e:	46c0      	nop			@ (mov r8, r8)
 8004220:	f3ef 8310 	mrs	r3, PRIMASK
 8004224:	61bb      	str	r3, [r7, #24]
 8004226:	69bb      	ldr	r3, [r7, #24]
 8004228:	2484      	movs	r4, #132	@ 0x84
 800422a:	193a      	adds	r2, r7, r4
 800422c:	6013      	str	r3, [r2, #0]
 800422e:	2301      	movs	r3, #1
 8004230:	61fb      	str	r3, [r7, #28]
 8004232:	69fb      	ldr	r3, [r7, #28]
 8004234:	f383 8810 	msr	PRIMASK, r3
 8004238:	46c0      	nop			@ (mov r8, r8)
 800423a:	687b      	ldr	r3, [r7, #4]
 800423c:	681b      	ldr	r3, [r3, #0]
 800423e:	689a      	ldr	r2, [r3, #8]
 8004240:	687b      	ldr	r3, [r7, #4]
 8004242:	681b      	ldr	r3, [r3, #0]
 8004244:	2101      	movs	r1, #1
 8004246:	438a      	bics	r2, r1
 8004248:	609a      	str	r2, [r3, #8]
 800424a:	193b      	adds	r3, r7, r4
 800424c:	681b      	ldr	r3, [r3, #0]
 800424e:	623b      	str	r3, [r7, #32]
 8004250:	6a3b      	ldr	r3, [r7, #32]
 8004252:	f383 8810 	msr	PRIMASK, r3
 8004256:	46c0      	nop			@ (mov r8, r8)
 8004258:	687b      	ldr	r3, [r7, #4]
 800425a:	2280      	movs	r2, #128	@ 0x80
 800425c:	2120      	movs	r1, #32
 800425e:	5099      	str	r1, [r3, r2]
 8004260:	687b      	ldr	r3, [r7, #4]
 8004262:	2200      	movs	r2, #0
 8004264:	661a      	str	r2, [r3, #96]	@ 0x60
 8004266:	687b      	ldr	r3, [r7, #4]
 8004268:	2200      	movs	r2, #0
 800426a:	669a      	str	r2, [r3, #104]	@ 0x68
 800426c:	f3ef 8310 	mrs	r3, PRIMASK
 8004270:	627b      	str	r3, [r7, #36]	@ 0x24
 8004272:	6a7b      	ldr	r3, [r7, #36]	@ 0x24
 8004274:	2480      	movs	r4, #128	@ 0x80
 8004276:	193a      	adds	r2, r7, r4
 8004278:	6013      	str	r3, [r2, #0]
 800427a:	2301      	movs	r3, #1
 800427c:	62bb      	str	r3, [r7, #40]	@ 0x28
 800427e:	6abb      	ldr	r3, [r7, #40]	@ 0x28
 8004280:	f383 8810 	msr	PRIMASK, r3
 8004284:	46c0      	nop			@ (mov r8, r8)
 8004286:	687b      	ldr	r3, [r7, #4]
 8004288:	681b      	ldr	r3, [r3, #0]
 800428a:	681a      	ldr	r2, [r3, #0]
 800428c:	687b      	ldr	r3, [r7, #4]
 800428e:	681b      	ldr	r3, [r3, #0]
 8004290:	2110      	movs	r1, #16
 8004292:	438a      	bics	r2, r1
 8004294:	601a      	str	r2, [r3, #0]
 8004296:	193b      	adds	r3, r7, r4
 8004298:	681b      	ldr	r3, [r3, #0]
 800429a:	62fb      	str	r3, [r7, #44]	@ 0x2c
 800429c:	6afb      	ldr	r3, [r7, #44]	@ 0x2c
 800429e:	f383 8810 	msr	PRIMASK, r3
 80042a2:	46c0      	nop			@ (mov r8, r8)
 80042a4:	687b      	ldr	r3, [r7, #4]
 80042a6:	2202      	movs	r2, #2
 80042a8:	665a      	str	r2, [r3, #100]	@ 0x64
 80042aa:	183b      	adds	r3, r7, r0
 80042ac:	881a      	ldrh	r2, [r3, #0]
 80042ae:	687b      	ldr	r3, [r7, #4]
 80042b0:	0011      	movs	r1, r2
 80042b2:	0018      	movs	r0, r3
 80042b4:	f7fc fc5e 	bl	8000b74 <HAL_UARTEx_RxEventCallback>
 80042b8:	e044      	b.n	8004344 <HAL_UART_IRQHandler+0x5ec>
 80042ba:	23a4      	movs	r3, #164	@ 0xa4
 80042bc:	18fb      	adds	r3, r7, r3
 80042be:	681a      	ldr	r2, [r3, #0]
 80042c0:	2380      	movs	r3, #128	@ 0x80
 80042c2:	035b      	lsls	r3, r3, #13
 80042c4:	4013      	ands	r3, r2
 80042c6:	d010      	beq.n	80042ea <HAL_UART_IRQHandler+0x592>
 80042c8:	239c      	movs	r3, #156	@ 0x9c
 80042ca:	18fb      	adds	r3, r7, r3
 80042cc:	681a      	ldr	r2, [r3, #0]
 80042ce:	2380      	movs	r3, #128	@ 0x80
 80042d0:	03db      	lsls	r3, r3, #15
 80042d2:	4013      	ands	r3, r2
 80042d4:	d009      	beq.n	80042ea <HAL_UART_IRQHandler+0x592>
 80042d6:	687b      	ldr	r3, [r7, #4]
 80042d8:	681b      	ldr	r3, [r3, #0]
 80042da:	2280      	movs	r2, #128	@ 0x80
 80042dc:	0352      	lsls	r2, r2, #13
 80042de:	621a      	str	r2, [r3, #32]
 80042e0:	687b      	ldr	r3, [r7, #4]
 80042e2:	0018      	movs	r0, r3
 80042e4:	f000 ffd7 	bl	8005296 <HAL_UARTEx_WakeupCallback>
 80042e8:	e02f      	b.n	800434a <HAL_UART_IRQHandler+0x5f2>
 80042ea:	23a4      	movs	r3, #164	@ 0xa4
 80042ec:	18fb      	adds	r3, r7, r3
 80042ee:	681b      	ldr	r3, [r3, #0]
 80042f0:	2280      	movs	r2, #128	@ 0x80
 80042f2:	4013      	ands	r3, r2
 80042f4:	d00f      	beq.n	8004316 <HAL_UART_IRQHandler+0x5be>
 80042f6:	23a0      	movs	r3, #160	@ 0xa0
 80042f8:	18fb      	adds	r3, r7, r3
 80042fa:	681b      	ldr	r3, [r3, #0]
 80042fc:	2280      	movs	r2, #128	@ 0x80
 80042fe:	4013      	ands	r3, r2
 8004300:	d009      	beq.n	8004316 <HAL_UART_IRQHandler+0x5be>
 8004302:	687b      	ldr	r3, [r7, #4]
 8004304:	6edb      	ldr	r3, [r3, #108]	@ 0x6c
 8004306:	2b00      	cmp	r3, #0
 8004308:	d01e      	beq.n	8004348 <HAL_UART_IRQHandler+0x5f0>
 800430a:	687b      	ldr	r3, [r7, #4]
 800430c:	6edb      	ldr	r3, [r3, #108]	@ 0x6c
 800430e:	687a      	ldr	r2, [r7, #4]
 8004310:	0010      	movs	r0, r2
 8004312:	4798      	blx	r3
 8004314:	e018      	b.n	8004348 <HAL_UART_IRQHandler+0x5f0>
 8004316:	23a4      	movs	r3, #164	@ 0xa4
 8004318:	18fb      	adds	r3, r7, r3
 800431a:	681b      	ldr	r3, [r3, #0]
 800431c:	2240      	movs	r2, #64	@ 0x40
 800431e:	4013      	ands	r3, r2
 8004320:	d013      	beq.n	800434a <HAL_UART_IRQHandler+0x5f2>
 8004322:	23a0      	movs	r3, #160	@ 0xa0
 8004324:	18fb      	adds	r3, r7, r3
 8004326:	681b      	ldr	r3, [r3, #0]
 8004328:	2240      	movs	r2, #64	@ 0x40
 800432a:	4013      	ands	r3, r2
 800432c:	d00d      	beq.n	800434a <HAL_UART_IRQHandler+0x5f2>
 800432e:	687b      	ldr	r3, [r7, #4]
 8004330:	0018      	movs	r0, r3
 8004332:	f000 ff85 	bl	8005240 <UART_EndTransmit_IT>
 8004336:	e008      	b.n	800434a <HAL_UART_IRQHandler+0x5f2>
 8004338:	46c0      	nop			@ (mov r8, r8)
 800433a:	e006      	b.n	800434a <HAL_UART_IRQHandler+0x5f2>
 800433c:	46c0      	nop			@ (mov r8, r8)
 800433e:	e004      	b.n	800434a <HAL_UART_IRQHandler+0x5f2>
 8004340:	46c0      	nop			@ (mov r8, r8)
 8004342:	e002      	b.n	800434a <HAL_UART_IRQHandler+0x5f2>
 8004344:	46c0      	nop			@ (mov r8, r8)
 8004346:	e000      	b.n	800434a <HAL_UART_IRQHandler+0x5f2>
 8004348:	46c0      	nop			@ (mov r8, r8)
 800434a:	46bd      	mov	sp, r7
 800434c:	b02b      	add	sp, #172	@ 0xac
 800434e:	bd90      	pop	{r4, r7, pc}
 8004350:	fffffeff 	.word	0xfffffeff
 8004354:	fffffedf 	.word	0xfffffedf

08004358 <HAL_UART_TxCpltCallback>:
 8004358:	b580      	push	{r7, lr}
 800435a:	b082      	sub	sp, #8
 800435c:	af00      	add	r7, sp, #0
 800435e:	6078      	str	r0, [r7, #4]
 8004360:	46c0      	nop			@ (mov r8, r8)
 8004362:	46bd      	mov	sp, r7
 8004364:	b002      	add	sp, #8
 8004366:	bd80      	pop	{r7, pc}

08004368 <HAL_UART_TxHalfCpltCallback>:
 8004368:	b580      	push	{r7, lr}
 800436a:	b082      	sub	sp, #8
 800436c:	af00      	add	r7, sp, #0
 800436e:	6078      	str	r0, [r7, #4]
 8004370:	46c0      	nop			@ (mov r8, r8)
 8004372:	46bd      	mov	sp, r7
 8004374:	b002      	add	sp, #8
 8004376:	bd80      	pop	{r7, pc}

08004378 <HAL_UART_RxCpltCallback>:
 8004378:	b580      	push	{r7, lr}
 800437a:	b082      	sub	sp, #8
 800437c:	af00      	add	r7, sp, #0
 800437e:	6078      	str	r0, [r7, #4]
 8004380:	46c0      	nop			@ (mov r8, r8)
 8004382:	46bd      	mov	sp, r7
 8004384:	b002      	add	sp, #8
 8004386:	bd80      	pop	{r7, pc}

08004388 <HAL_UART_RxHalfCpltCallback>:
 8004388:	b580      	push	{r7, lr}
 800438a:	b082      	sub	sp, #8
 800438c:	af00      	add	r7, sp, #0
 800438e:	6078      	str	r0, [r7, #4]
 8004390:	46c0      	nop			@ (mov r8, r8)
 8004392:	46bd      	mov	sp, r7
 8004394:	b002      	add	sp, #8
 8004396:	bd80      	pop	{r7, pc}

08004398 <HAL_UART_GetState>:
 8004398:	b580      	push	{r7, lr}
 800439a:	b084      	sub	sp, #16
 800439c:	af00      	add	r7, sp, #0
 800439e:	6078      	str	r0, [r7, #4]
 80043a0:	687b      	ldr	r3, [r7, #4]
 80043a2:	6fdb      	ldr	r3, [r3, #124]	@ 0x7c
 80043a4:	60fb      	str	r3, [r7, #12]
 80043a6:	687b      	ldr	r3, [r7, #4]
 80043a8:	2280      	movs	r2, #128	@ 0x80
 80043aa:	589b      	ldr	r3, [r3, r2]
 80043ac:	60bb      	str	r3, [r7, #8]
 80043ae:	68fa      	ldr	r2, [r7, #12]
 80043b0:	68bb      	ldr	r3, [r7, #8]
 80043b2:	4313      	orrs	r3, r2
 80043b4:	0018      	movs	r0, r3
 80043b6:	46bd      	mov	sp, r7
 80043b8:	b004      	add	sp, #16
 80043ba:	bd80      	pop	{r7, pc}

080043bc <HAL_UART_GetError>:
 80043bc:	b580      	push	{r7, lr}
 80043be:	b082      	sub	sp, #8
 80043c0:	af00      	add	r7, sp, #0
 80043c2:	6078      	str	r0, [r7, #4]
 80043c4:	687b      	ldr	r3, [r7, #4]
 80043c6:	2284      	movs	r2, #132	@ 0x84
 80043c8:	589b      	ldr	r3, [r3, r2]
 80043ca:	0018      	movs	r0, r3
 80043cc:	46bd      	mov	sp, r7
 80043ce:	b002      	add	sp, #8
 80043d0:	bd80      	pop	{r7, pc}
	...

080043d4 <UART_SetConfig>:
 80043d4:	b5b0      	push	{r4, r5, r7, lr}
 80043d6:	b08e      	sub	sp, #56	@ 0x38
 80043d8:	af00      	add	r7, sp, #0
 80043da:	61f8      	str	r0, [r7, #28]
 80043dc:	231a      	movs	r3, #26
 80043de:	2218      	movs	r2, #24
 80043e0:	189b      	adds	r3, r3, r2
 80043e2:	19db      	adds	r3, r3, r7
 80043e4:	2200      	movs	r2, #0
 80043e6:	701a      	strb	r2, [r3, #0]
 80043e8:	69fb      	ldr	r3, [r7, #28]
 80043ea:	689a      	ldr	r2, [r3, #8]
 80043ec:	69fb      	ldr	r3, [r7, #28]
 80043ee:	691b      	ldr	r3, [r3, #16]
 80043f0:	431a      	orrs	r2, r3
 80043f2:	69fb      	ldr	r3, [r7, #28]
 80043f4:	695b      	ldr	r3, [r3, #20]
 80043f6:	431a      	orrs	r2, r3
 80043f8:	69fb      	ldr	r3, [r7, #28]
 80043fa:	69db      	ldr	r3, [r3, #28]
 80043fc:	4313      	orrs	r3, r2
 80043fe:	637b      	str	r3, [r7, #52]	@ 0x34
 8004400:	69fb      	ldr	r3, [r7, #28]
 8004402:	681b      	ldr	r3, [r3, #0]
 8004404:	681b      	ldr	r3, [r3, #0]
 8004406:	4ac3      	ldr	r2, [pc, #780]	@ (8004714 <UART_SetConfig+0x340>)
 8004408:	4013      	ands	r3, r2
 800440a:	0019      	movs	r1, r3
 800440c:	69fb      	ldr	r3, [r7, #28]
 800440e:	681b      	ldr	r3, [r3, #0]
 8004410:	6b7a      	ldr	r2, [r7, #52]	@ 0x34
 8004412:	430a      	orrs	r2, r1
 8004414:	601a      	str	r2, [r3, #0]
 8004416:	69fb      	ldr	r3, [r7, #28]
 8004418:	681b      	ldr	r3, [r3, #0]
 800441a:	685b      	ldr	r3, [r3, #4]
 800441c:	4abe      	ldr	r2, [pc, #760]	@ (8004718 <UART_SetConfig+0x344>)
 800441e:	4013      	ands	r3, r2
 8004420:	0019      	movs	r1, r3
 8004422:	69fb      	ldr	r3, [r7, #28]
 8004424:	68da      	ldr	r2, [r3, #12]
 8004426:	69fb      	ldr	r3, [r7, #28]
 8004428:	681b      	ldr	r3, [r3, #0]
 800442a:	430a      	orrs	r2, r1
 800442c:	605a      	str	r2, [r3, #4]
 800442e:	69fb      	ldr	r3, [r7, #28]
 8004430:	699b      	ldr	r3, [r3, #24]
 8004432:	637b      	str	r3, [r7, #52]	@ 0x34
 8004434:	69fb      	ldr	r3, [r7, #28]
 8004436:	681b      	ldr	r3, [r3, #0]
 8004438:	4ab8      	ldr	r2, [pc, #736]	@ (800471c <UART_SetConfig+0x348>)
 800443a:	4293      	cmp	r3, r2
 800443c:	d004      	beq.n	8004448 <UART_SetConfig+0x74>
 800443e:	69fb      	ldr	r3, [r7, #28]
 8004440:	6a1b      	ldr	r3, [r3, #32]
 8004442:	6b7a      	ldr	r2, [r7, #52]	@ 0x34
 8004444:	4313      	orrs	r3, r2
 8004446:	637b      	str	r3, [r7, #52]	@ 0x34
 8004448:	69fb      	ldr	r3, [r7, #28]
 800444a:	681b      	ldr	r3, [r3, #0]
 800444c:	689b      	ldr	r3, [r3, #8]
 800444e:	4ab4      	ldr	r2, [pc, #720]	@ (8004720 <UART_SetConfig+0x34c>)
 8004450:	4013      	ands	r3, r2
 8004452:	0019      	movs	r1, r3
 8004454:	69fb      	ldr	r3, [r7, #28]
 8004456:	681b      	ldr	r3, [r3, #0]
 8004458:	6b7a      	ldr	r2, [r7, #52]	@ 0x34
 800445a:	430a      	orrs	r2, r1
 800445c:	609a      	str	r2, [r3, #8]
 800445e:	69fb      	ldr	r3, [r7, #28]
 8004460:	681b      	ldr	r3, [r3, #0]
 8004462:	4ab0      	ldr	r2, [pc, #704]	@ (8004724 <UART_SetConfig+0x350>)
 8004464:	4293      	cmp	r3, r2
 8004466:	d131      	bne.n	80044cc <UART_SetConfig+0xf8>
 8004468:	4baf      	ldr	r3, [pc, #700]	@ (8004728 <UART_SetConfig+0x354>)
 800446a:	6cdb      	ldr	r3, [r3, #76]	@ 0x4c
 800446c:	2203      	movs	r2, #3
 800446e:	4013      	ands	r3, r2
 8004470:	2b03      	cmp	r3, #3
 8004472:	d01d      	beq.n	80044b0 <UART_SetConfig+0xdc>
 8004474:	d823      	bhi.n	80044be <UART_SetConfig+0xea>
 8004476:	2b02      	cmp	r3, #2
 8004478:	d00c      	beq.n	8004494 <UART_SetConfig+0xc0>
 800447a:	d820      	bhi.n	80044be <UART_SetConfig+0xea>
 800447c:	2b00      	cmp	r3, #0
 800447e:	d002      	beq.n	8004486 <UART_SetConfig+0xb2>
 8004480:	2b01      	cmp	r3, #1
 8004482:	d00e      	beq.n	80044a2 <UART_SetConfig+0xce>
 8004484:	e01b      	b.n	80044be <UART_SetConfig+0xea>
 8004486:	231b      	movs	r3, #27
 8004488:	2218      	movs	r2, #24
 800448a:	189b      	adds	r3, r3, r2
 800448c:	19db      	adds	r3, r3, r7
 800448e:	2201      	movs	r2, #1
 8004490:	701a      	strb	r2, [r3, #0]
 8004492:	e0b4      	b.n	80045fe <UART_SetConfig+0x22a>
 8004494:	231b      	movs	r3, #27
 8004496:	2218      	movs	r2, #24
 8004498:	189b      	adds	r3, r3, r2
 800449a:	19db      	adds	r3, r3, r7
 800449c:	2202      	movs	r2, #2
 800449e:	701a      	strb	r2, [r3, #0]
 80044a0:	e0ad      	b.n	80045fe <UART_SetConfig+0x22a>
 80044a2:	231b      	movs	r3, #27
 80044a4:	2218      	movs	r2, #24
 80044a6:	189b      	adds	r3, r3, r2
 80044a8:	19db      	adds	r3, r3, r7
 80044aa:	2204      	movs	r2, #4
 80044ac:	701a      	strb	r2, [r3, #0]
 80044ae:	e0a6      	b.n	80045fe <UART_SetConfig+0x22a>
 80044b0:	231b      	movs	r3, #27
 80044b2:	2218      	movs	r2, #24
 80044b4:	189b      	adds	r3, r3, r2
 80044b6:	19db      	adds	r3, r3, r7
 80044b8:	2208      	movs	r2, #8
 80044ba:	701a      	strb	r2, [r3, #0]
 80044bc:	e09f      	b.n	80045fe <UART_SetConfig+0x22a>
 80044be:	231b      	movs	r3, #27
 80044c0:	2218      	movs	r2, #24
 80044c2:	189b      	adds	r3, r3, r2
 80044c4:	19db      	adds	r3, r3, r7
 80044c6:	2210      	movs	r2, #16
 80044c8:	701a      	strb	r2, [r3, #0]
 80044ca:	e098      	b.n	80045fe <UART_SetConfig+0x22a>
 80044cc:	69fb      	ldr	r3, [r7, #28]
 80044ce:	681b      	ldr	r3, [r3, #0]
 80044d0:	4a96      	ldr	r2, [pc, #600]	@ (800472c <UART_SetConfig+0x358>)
 80044d2:	4293      	cmp	r3, r2
 80044d4:	d131      	bne.n	800453a <UART_SetConfig+0x166>
 80044d6:	4b94      	ldr	r3, [pc, #592]	@ (8004728 <UART_SetConfig+0x354>)
 80044d8:	6cdb      	ldr	r3, [r3, #76]	@ 0x4c
 80044da:	220c      	movs	r2, #12
 80044dc:	4013      	ands	r3, r2
 80044de:	2b0c      	cmp	r3, #12
 80044e0:	d01d      	beq.n	800451e <UART_SetConfig+0x14a>
 80044e2:	d823      	bhi.n	800452c <UART_SetConfig+0x158>
 80044e4:	2b08      	cmp	r3, #8
 80044e6:	d00c      	beq.n	8004502 <UART_SetConfig+0x12e>
 80044e8:	d820      	bhi.n	800452c <UART_SetConfig+0x158>
 80044ea:	2b00      	cmp	r3, #0
 80044ec:	d002      	beq.n	80044f4 <UART_SetConfig+0x120>
 80044ee:	2b04      	cmp	r3, #4
 80044f0:	d00e      	beq.n	8004510 <UART_SetConfig+0x13c>
 80044f2:	e01b      	b.n	800452c <UART_SetConfig+0x158>
 80044f4:	231b      	movs	r3, #27
 80044f6:	2218      	movs	r2, #24
 80044f8:	189b      	adds	r3, r3, r2
 80044fa:	19db      	adds	r3, r3, r7
 80044fc:	2200      	movs	r2, #0
 80044fe:	701a      	strb	r2, [r3, #0]
 8004500:	e07d      	b.n	80045fe <UART_SetConfig+0x22a>
 8004502:	231b      	movs	r3, #27
 8004504:	2218      	movs	r2, #24
 8004506:	189b      	adds	r3, r3, r2
 8004508:	19db      	adds	r3, r3, r7
 800450a:	2202      	movs	r2, #2
 800450c:	701a      	strb	r2, [r3, #0]
 800450e:	e076      	b.n	80045fe <UART_SetConfig+0x22a>
 8004510:	231b      	movs	r3, #27
 8004512:	2218      	movs	r2, #24
 8004514:	189b      	adds	r3, r3, r2
 8004516:	19db      	adds	r3, r3, r7
 8004518:	2204      	movs	r2, #4
 800451a:	701a      	strb	r2, [r3, #0]
 800451c:	e06f      	b.n	80045fe <UART_SetConfig+0x22a>
 800451e:	231b      	movs	r3, #27
 8004520:	2218      	movs	r2, #24
 8004522:	189b      	adds	r3, r3, r2
 8004524:	19db      	adds	r3, r3, r7
 8004526:	2208      	movs	r2, #8
 8004528:	701a      	strb	r2, [r3, #0]
 800452a:	e068      	b.n	80045fe <UART_SetConfig+0x22a>
 800452c:	231b      	movs	r3, #27
 800452e:	2218      	movs	r2, #24
 8004530:	189b      	adds	r3, r3, r2
 8004532:	19db      	adds	r3, r3, r7
 8004534:	2210      	movs	r2, #16
 8004536:	701a      	strb	r2, [r3, #0]
 8004538:	e061      	b.n	80045fe <UART_SetConfig+0x22a>
 800453a:	69fb      	ldr	r3, [r7, #28]
 800453c:	681b      	ldr	r3, [r3, #0]
 800453e:	4a7c      	ldr	r2, [pc, #496]	@ (8004730 <UART_SetConfig+0x35c>)
 8004540:	4293      	cmp	r3, r2
 8004542:	d106      	bne.n	8004552 <UART_SetConfig+0x17e>
 8004544:	231b      	movs	r3, #27
 8004546:	2218      	movs	r2, #24
 8004548:	189b      	adds	r3, r3, r2
 800454a:	19db      	adds	r3, r3, r7
 800454c:	2200      	movs	r2, #0
 800454e:	701a      	strb	r2, [r3, #0]
 8004550:	e055      	b.n	80045fe <UART_SetConfig+0x22a>
 8004552:	69fb      	ldr	r3, [r7, #28]
 8004554:	681b      	ldr	r3, [r3, #0]
 8004556:	4a77      	ldr	r2, [pc, #476]	@ (8004734 <UART_SetConfig+0x360>)
 8004558:	4293      	cmp	r3, r2
 800455a:	d106      	bne.n	800456a <UART_SetConfig+0x196>
 800455c:	231b      	movs	r3, #27
 800455e:	2218      	movs	r2, #24
 8004560:	189b      	adds	r3, r3, r2
 8004562:	19db      	adds	r3, r3, r7
 8004564:	2200      	movs	r2, #0
 8004566:	701a      	strb	r2, [r3, #0]
 8004568:	e049      	b.n	80045fe <UART_SetConfig+0x22a>
 800456a:	69fb      	ldr	r3, [r7, #28]
 800456c:	681b      	ldr	r3, [r3, #0]
 800456e:	4a6b      	ldr	r2, [pc, #428]	@ (800471c <UART_SetConfig+0x348>)
 8004570:	4293      	cmp	r3, r2
 8004572:	d13e      	bne.n	80045f2 <UART_SetConfig+0x21e>
 8004574:	4b6c      	ldr	r3, [pc, #432]	@ (8004728 <UART_SetConfig+0x354>)
 8004576:	6cda      	ldr	r2, [r3, #76]	@ 0x4c
 8004578:	23c0      	movs	r3, #192	@ 0xc0
 800457a:	011b      	lsls	r3, r3, #4
 800457c:	4013      	ands	r3, r2
 800457e:	22c0      	movs	r2, #192	@ 0xc0
 8004580:	0112      	lsls	r2, r2, #4
 8004582:	4293      	cmp	r3, r2
 8004584:	d027      	beq.n	80045d6 <UART_SetConfig+0x202>
 8004586:	22c0      	movs	r2, #192	@ 0xc0
 8004588:	0112      	lsls	r2, r2, #4
 800458a:	4293      	cmp	r3, r2
 800458c:	d82a      	bhi.n	80045e4 <UART_SetConfig+0x210>
 800458e:	2280      	movs	r2, #128	@ 0x80
 8004590:	0112      	lsls	r2, r2, #4
 8004592:	4293      	cmp	r3, r2
 8004594:	d011      	beq.n	80045ba <UART_SetConfig+0x1e6>
 8004596:	2280      	movs	r2, #128	@ 0x80
 8004598:	0112      	lsls	r2, r2, #4
 800459a:	4293      	cmp	r3, r2
 800459c:	d822      	bhi.n	80045e4 <UART_SetConfig+0x210>
 800459e:	2b00      	cmp	r3, #0
 80045a0:	d004      	beq.n	80045ac <UART_SetConfig+0x1d8>
 80045a2:	2280      	movs	r2, #128	@ 0x80
 80045a4:	00d2      	lsls	r2, r2, #3
 80045a6:	4293      	cmp	r3, r2
 80045a8:	d00e      	beq.n	80045c8 <UART_SetConfig+0x1f4>
 80045aa:	e01b      	b.n	80045e4 <UART_SetConfig+0x210>
 80045ac:	231b      	movs	r3, #27
 80045ae:	2218      	movs	r2, #24
 80045b0:	189b      	adds	r3, r3, r2
 80045b2:	19db      	adds	r3, r3, r7
 80045b4:	2200      	movs	r2, #0
 80045b6:	701a      	strb	r2, [r3, #0]
 80045b8:	e021      	b.n	80045fe <UART_SetConfig+0x22a>
 80045ba:	231b      	movs	r3, #27
 80045bc:	2218      	movs	r2, #24
 80045be:	189b      	adds	r3, r3, r2
 80045c0:	19db      	adds	r3, r3, r7
 80045c2:	2202      	movs	r2, #2
 80045c4:	701a      	strb	r2, [r3, #0]
 80045c6:	e01a      	b.n	80045fe <UART_SetConfig+0x22a>
 80045c8:	231b      	movs	r3, #27
 80045ca:	2218      	movs	r2, #24
 80045cc:	189b      	adds	r3, r3, r2
 80045ce:	19db      	adds	r3, r3, r7
 80045d0:	2204      	movs	r2, #4
 80045d2:	701a      	strb	r2, [r3, #0]
 80045d4:	e013      	b.n	80045fe <UART_SetConfig+0x22a>
 80045d6:	231b      	movs	r3, #27
 80045d8:	2218      	movs	r2, #24
 80045da:	189b      	adds	r3, r3, r2
 80045dc:	19db      	adds	r3, r3, r7
 80045de:	2208      	movs	r2, #8
 80045e0:	701a      	strb	r2, [r3, #0]
 80045e2:	e00c      	b.n	80045fe <UART_SetConfig+0x22a>
 80045e4:	231b      	movs	r3, #27
 80045e6:	2218      	movs	r2, #24
 80045e8:	189b      	adds	r3, r3, r2
 80045ea:	19db      	adds	r3, r3, r7
 80045ec:	2210      	movs	r2, #16
 80045ee:	701a      	strb	r2, [r3, #0]
 80045f0:	e005      	b.n	80045fe <UART_SetConfig+0x22a>
 80045f2:	231b      	movs	r3, #27
 80045f4:	2218      	movs	r2, #24
 80045f6:	189b      	adds	r3, r3, r2
 80045f8:	19db      	adds	r3, r3, r7
 80045fa:	2210      	movs	r2, #16
 80045fc:	701a      	strb	r2, [r3, #0]
 80045fe:	69fb      	ldr	r3, [r7, #28]
 8004600:	681b      	ldr	r3, [r3, #0]
 8004602:	4a46      	ldr	r2, [pc, #280]	@ (800471c <UART_SetConfig+0x348>)
 8004604:	4293      	cmp	r3, r2
 8004606:	d000      	beq.n	800460a <UART_SetConfig+0x236>
 8004608:	e09a      	b.n	8004740 <UART_SetConfig+0x36c>
 800460a:	231b      	movs	r3, #27
 800460c:	2218      	movs	r2, #24
 800460e:	189b      	adds	r3, r3, r2
 8004610:	19db      	adds	r3, r3, r7
 8004612:	781b      	ldrb	r3, [r3, #0]
 8004614:	2b08      	cmp	r3, #8
 8004616:	d01d      	beq.n	8004654 <UART_SetConfig+0x280>
 8004618:	dc20      	bgt.n	800465c <UART_SetConfig+0x288>
 800461a:	2b04      	cmp	r3, #4
 800461c:	d015      	beq.n	800464a <UART_SetConfig+0x276>
 800461e:	dc1d      	bgt.n	800465c <UART_SetConfig+0x288>
 8004620:	2b00      	cmp	r3, #0
 8004622:	d002      	beq.n	800462a <UART_SetConfig+0x256>
 8004624:	2b02      	cmp	r3, #2
 8004626:	d005      	beq.n	8004634 <UART_SetConfig+0x260>
 8004628:	e018      	b.n	800465c <UART_SetConfig+0x288>
 800462a:	f7fe fc21 	bl	8002e70 <HAL_RCC_GetPCLK1Freq>
 800462e:	0003      	movs	r3, r0
 8004630:	62fb      	str	r3, [r7, #44]	@ 0x2c
 8004632:	e01c      	b.n	800466e <UART_SetConfig+0x29a>
 8004634:	4b3c      	ldr	r3, [pc, #240]	@ (8004728 <UART_SetConfig+0x354>)
 8004636:	681b      	ldr	r3, [r3, #0]
 8004638:	2210      	movs	r2, #16
 800463a:	4013      	ands	r3, r2
 800463c:	d002      	beq.n	8004644 <UART_SetConfig+0x270>
 800463e:	4b3e      	ldr	r3, [pc, #248]	@ (8004738 <UART_SetConfig+0x364>)
 8004640:	62fb      	str	r3, [r7, #44]	@ 0x2c
 8004642:	e014      	b.n	800466e <UART_SetConfig+0x29a>
 8004644:	4b3d      	ldr	r3, [pc, #244]	@ (800473c <UART_SetConfig+0x368>)
 8004646:	62fb      	str	r3, [r7, #44]	@ 0x2c
 8004648:	e011      	b.n	800466e <UART_SetConfig+0x29a>
 800464a:	f7fe fb81 	bl	8002d50 <HAL_RCC_GetSysClockFreq>
 800464e:	0003      	movs	r3, r0
 8004650:	62fb      	str	r3, [r7, #44]	@ 0x2c
 8004652:	e00c      	b.n	800466e <UART_SetConfig+0x29a>
 8004654:	2380      	movs	r3, #128	@ 0x80
 8004656:	021b      	lsls	r3, r3, #8
 8004658:	62fb      	str	r3, [r7, #44]	@ 0x2c
 800465a:	e008      	b.n	800466e <UART_SetConfig+0x29a>
 800465c:	2300      	movs	r3, #0
 800465e:	62fb      	str	r3, [r7, #44]	@ 0x2c
 8004660:	231a      	movs	r3, #26
 8004662:	2218      	movs	r2, #24
 8004664:	189b      	adds	r3, r3, r2
 8004666:	19db      	adds	r3, r3, r7
 8004668:	2201      	movs	r2, #1
 800466a:	701a      	strb	r2, [r3, #0]
 800466c:	46c0      	nop			@ (mov r8, r8)
 800466e:	6afb      	ldr	r3, [r7, #44]	@ 0x2c
 8004670:	2b00      	cmp	r3, #0
 8004672:	d100      	bne.n	8004676 <UART_SetConfig+0x2a2>
 8004674:	e133      	b.n	80048de <UART_SetConfig+0x50a>
 8004676:	69fb      	ldr	r3, [r7, #28]
 8004678:	685a      	ldr	r2, [r3, #4]
 800467a:	0013      	movs	r3, r2
 800467c:	005b      	lsls	r3, r3, #1
 800467e:	189b      	adds	r3, r3, r2
 8004680:	6afa      	ldr	r2, [r7, #44]	@ 0x2c
 8004682:	429a      	cmp	r2, r3
 8004684:	d305      	bcc.n	8004692 <UART_SetConfig+0x2be>
 8004686:	69fb      	ldr	r3, [r7, #28]
 8004688:	685b      	ldr	r3, [r3, #4]
 800468a:	031b      	lsls	r3, r3, #12
 800468c:	6afa      	ldr	r2, [r7, #44]	@ 0x2c
 800468e:	429a      	cmp	r2, r3
 8004690:	d906      	bls.n	80046a0 <UART_SetConfig+0x2cc>
 8004692:	231a      	movs	r3, #26
 8004694:	2218      	movs	r2, #24
 8004696:	189b      	adds	r3, r3, r2
 8004698:	19db      	adds	r3, r3, r7
 800469a:	2201      	movs	r2, #1
 800469c:	701a      	strb	r2, [r3, #0]
 800469e:	e11e      	b.n	80048de <UART_SetConfig+0x50a>
 80046a0:	6afb      	ldr	r3, [r7, #44]	@ 0x2c
 80046a2:	613b      	str	r3, [r7, #16]
 80046a4:	2300      	movs	r3, #0
 80046a6:	617b      	str	r3, [r7, #20]
 80046a8:	6939      	ldr	r1, [r7, #16]
 80046aa:	697a      	ldr	r2, [r7, #20]
 80046ac:	000b      	movs	r3, r1
 80046ae:	0e1b      	lsrs	r3, r3, #24
 80046b0:	0010      	movs	r0, r2
 80046b2:	0205      	lsls	r5, r0, #8
 80046b4:	431d      	orrs	r5, r3
 80046b6:	000b      	movs	r3, r1
 80046b8:	021c      	lsls	r4, r3, #8
 80046ba:	69fb      	ldr	r3, [r7, #28]
 80046bc:	685b      	ldr	r3, [r3, #4]
 80046be:	085b      	lsrs	r3, r3, #1
 80046c0:	60bb      	str	r3, [r7, #8]
 80046c2:	2300      	movs	r3, #0
 80046c4:	60fb      	str	r3, [r7, #12]
 80046c6:	68b8      	ldr	r0, [r7, #8]
 80046c8:	68f9      	ldr	r1, [r7, #12]
 80046ca:	1900      	adds	r0, r0, r4
 80046cc:	4169      	adcs	r1, r5
 80046ce:	69fb      	ldr	r3, [r7, #28]
 80046d0:	685b      	ldr	r3, [r3, #4]
 80046d2:	603b      	str	r3, [r7, #0]
 80046d4:	2300      	movs	r3, #0
 80046d6:	607b      	str	r3, [r7, #4]
 80046d8:	683a      	ldr	r2, [r7, #0]
 80046da:	687b      	ldr	r3, [r7, #4]
 80046dc:	f7fb fdb2 	bl	8000244 <__aeabi_uldivmod>
 80046e0:	0002      	movs	r2, r0
 80046e2:	000b      	movs	r3, r1
 80046e4:	0013      	movs	r3, r2
 80046e6:	62bb      	str	r3, [r7, #40]	@ 0x28
 80046e8:	6aba      	ldr	r2, [r7, #40]	@ 0x28
 80046ea:	23c0      	movs	r3, #192	@ 0xc0
 80046ec:	009b      	lsls	r3, r3, #2
 80046ee:	429a      	cmp	r2, r3
 80046f0:	d309      	bcc.n	8004706 <UART_SetConfig+0x332>
 80046f2:	6aba      	ldr	r2, [r7, #40]	@ 0x28
 80046f4:	2380      	movs	r3, #128	@ 0x80
 80046f6:	035b      	lsls	r3, r3, #13
 80046f8:	429a      	cmp	r2, r3
 80046fa:	d204      	bcs.n	8004706 <UART_SetConfig+0x332>
 80046fc:	69fb      	ldr	r3, [r7, #28]
 80046fe:	681b      	ldr	r3, [r3, #0]
 8004700:	6aba      	ldr	r2, [r7, #40]	@ 0x28
 8004702:	60da      	str	r2, [r3, #12]
 8004704:	e0eb      	b.n	80048de <UART_SetConfig+0x50a>
 8004706:	231a      	movs	r3, #26
 8004708:	2218      	movs	r2, #24
 800470a:	189b      	adds	r3, r3, r2
 800470c:	19db      	adds	r3, r3, r7
 800470e:	2201      	movs	r2, #1
 8004710:	701a      	strb	r2, [r3, #0]
 8004712:	e0e4      	b.n	80048de <UART_SetConfig+0x50a>
 8004714:	efff69f3 	.word	0xefff69f3
 8004718:	ffffcfff 	.word	0xffffcfff
 800471c:	40004800 	.word	0x40004800
 8004720:	fffff4ff 	.word	0xfffff4ff
 8004724:	40013800 	.word	0x40013800
 8004728:	40021000 	.word	0x40021000
 800472c:	40004400 	.word	0x40004400
 8004730:	40004c00 	.word	0x40004c00
 8004734:	40005000 	.word	0x40005000
 8004738:	003d0900 	.word	0x003d0900
 800473c:	00f42400 	.word	0x00f42400
 8004740:	69fb      	ldr	r3, [r7, #28]
 8004742:	69da      	ldr	r2, [r3, #28]
 8004744:	2380      	movs	r3, #128	@ 0x80
 8004746:	021b      	lsls	r3, r3, #8
 8004748:	429a      	cmp	r2, r3
 800474a:	d000      	beq.n	800474e <UART_SetConfig+0x37a>
 800474c:	e070      	b.n	8004830 <UART_SetConfig+0x45c>
 800474e:	231b      	movs	r3, #27
 8004750:	2218      	movs	r2, #24
 8004752:	189b      	adds	r3, r3, r2
 8004754:	19db      	adds	r3, r3, r7
 8004756:	781b      	ldrb	r3, [r3, #0]
 8004758:	2b08      	cmp	r3, #8
 800475a:	d822      	bhi.n	80047a2 <UART_SetConfig+0x3ce>
 800475c:	009a      	lsls	r2, r3, #2
 800475e:	4b67      	ldr	r3, [pc, #412]	@ (80048fc <UART_SetConfig+0x528>)
 8004760:	18d3      	adds	r3, r2, r3
 8004762:	681b      	ldr	r3, [r3, #0]
 8004764:	469f      	mov	pc, r3
 8004766:	f7fe fb83 	bl	8002e70 <HAL_RCC_GetPCLK1Freq>
 800476a:	0003      	movs	r3, r0
 800476c:	62fb      	str	r3, [r7, #44]	@ 0x2c
 800476e:	e021      	b.n	80047b4 <UART_SetConfig+0x3e0>
 8004770:	f7fe fb94 	bl	8002e9c <HAL_RCC_GetPCLK2Freq>
 8004774:	0003      	movs	r3, r0
 8004776:	62fb      	str	r3, [r7, #44]	@ 0x2c
 8004778:	e01c      	b.n	80047b4 <UART_SetConfig+0x3e0>
 800477a:	4b61      	ldr	r3, [pc, #388]	@ (8004900 <UART_SetConfig+0x52c>)
 800477c:	681b      	ldr	r3, [r3, #0]
 800477e:	2210      	movs	r2, #16
 8004780:	4013      	ands	r3, r2
 8004782:	d002      	beq.n	800478a <UART_SetConfig+0x3b6>
 8004784:	4b5f      	ldr	r3, [pc, #380]	@ (8004904 <UART_SetConfig+0x530>)
 8004786:	62fb      	str	r3, [r7, #44]	@ 0x2c
 8004788:	e014      	b.n	80047b4 <UART_SetConfig+0x3e0>
 800478a:	4b5f      	ldr	r3, [pc, #380]	@ (8004908 <UART_SetConfig+0x534>)
 800478c:	62fb      	str	r3, [r7, #44]	@ 0x2c
 800478e:	e011      	b.n	80047b4 <UART_SetConfig+0x3e0>
 8004790:	f7fe fade 	bl	8002d50 <HAL_RCC_GetSysClockFreq>
 8004794:	0003      	movs	r3, r0
 8004796:	62fb      	str	r3, [r7, #44]	@ 0x2c
 8004798:	e00c      	b.n	80047b4 <UART_SetConfig+0x3e0>
 800479a:	2380      	movs	r3, #128	@ 0x80
 800479c:	021b      	lsls	r3, r3, #8
 800479e:	62fb      	str	r3, [r7, #44]	@ 0x2c
 80047a0:	e008      	b.n	80047b4 <UART_SetConfig+0x3e0>
 80047a2:	2300      	movs	r3, #0
 80047a4:	62fb      	str	r3, [r7, #44]	@ 0x2c
 80047a6:	231a      	movs	r3, #26
 80047a8:	2218      	movs	r2, #24
 80047aa:	189b      	adds	r3, r3, r2
 80047ac:	19db      	adds	r3, r3, r7
 80047ae:	2201      	movs	r2, #1
 80047b0:	701a      	strb	r2, [r3, #0]
 80047b2:	46c0      	nop			@ (mov r8, r8)
 80047b4:	6afb      	ldr	r3, [r7, #44]	@ 0x2c
 80047b6:	2b00      	cmp	r3, #0
 80047b8:	d100      	bne.n	80047bc <UART_SetConfig+0x3e8>
 80047ba:	e090      	b.n	80048de <UART_SetConfig+0x50a>
 80047bc:	6afb      	ldr	r3, [r7, #44]	@ 0x2c
 80047be:	005a      	lsls	r2, r3, #1
 80047c0:	69fb      	ldr	r3, [r7, #28]
 80047c2:	685b      	ldr	r3, [r3, #4]
 80047c4:	085b      	lsrs	r3, r3, #1
 80047c6:	18d2      	adds	r2, r2, r3
 80047c8:	69fb      	ldr	r3, [r7, #28]
 80047ca:	685b      	ldr	r3, [r3, #4]
 80047cc:	0019      	movs	r1, r3
 80047ce:	0010      	movs	r0, r2
 80047d0:	f7fb fcac 	bl	800012c <__udivsi3>
 80047d4:	0003      	movs	r3, r0
 80047d6:	62bb      	str	r3, [r7, #40]	@ 0x28
 80047d8:	6abb      	ldr	r3, [r7, #40]	@ 0x28
 80047da:	2b0f      	cmp	r3, #15
 80047dc:	d921      	bls.n	8004822 <UART_SetConfig+0x44e>
 80047de:	6aba      	ldr	r2, [r7, #40]	@ 0x28
 80047e0:	2380      	movs	r3, #128	@ 0x80
 80047e2:	025b      	lsls	r3, r3, #9
 80047e4:	429a      	cmp	r2, r3
 80047e6:	d21c      	bcs.n	8004822 <UART_SetConfig+0x44e>
 80047e8:	6abb      	ldr	r3, [r7, #40]	@ 0x28
 80047ea:	b29a      	uxth	r2, r3
 80047ec:	200e      	movs	r0, #14
 80047ee:	2418      	movs	r4, #24
 80047f0:	1903      	adds	r3, r0, r4
 80047f2:	19db      	adds	r3, r3, r7
 80047f4:	210f      	movs	r1, #15
 80047f6:	438a      	bics	r2, r1
 80047f8:	801a      	strh	r2, [r3, #0]
 80047fa:	6abb      	ldr	r3, [r7, #40]	@ 0x28
 80047fc:	085b      	lsrs	r3, r3, #1
 80047fe:	b29b      	uxth	r3, r3
 8004800:	2207      	movs	r2, #7
 8004802:	4013      	ands	r3, r2
 8004804:	b299      	uxth	r1, r3
 8004806:	1903      	adds	r3, r0, r4
 8004808:	19db      	adds	r3, r3, r7
 800480a:	1902      	adds	r2, r0, r4
 800480c:	19d2      	adds	r2, r2, r7
 800480e:	8812      	ldrh	r2, [r2, #0]
 8004810:	430a      	orrs	r2, r1
 8004812:	801a      	strh	r2, [r3, #0]
 8004814:	69fb      	ldr	r3, [r7, #28]
 8004816:	681b      	ldr	r3, [r3, #0]
 8004818:	1902      	adds	r2, r0, r4
 800481a:	19d2      	adds	r2, r2, r7
 800481c:	8812      	ldrh	r2, [r2, #0]
 800481e:	60da      	str	r2, [r3, #12]
 8004820:	e05d      	b.n	80048de <UART_SetConfig+0x50a>
 8004822:	231a      	movs	r3, #26
 8004824:	2218      	movs	r2, #24
 8004826:	189b      	adds	r3, r3, r2
 8004828:	19db      	adds	r3, r3, r7
 800482a:	2201      	movs	r2, #1
 800482c:	701a      	strb	r2, [r3, #0]
 800482e:	e056      	b.n	80048de <UART_SetConfig+0x50a>
 8004830:	231b      	movs	r3, #27
 8004832:	2218      	movs	r2, #24
 8004834:	189b      	adds	r3, r3, r2
 8004836:	19db      	adds	r3, r3, r7
 8004838:	781b      	ldrb	r3, [r3, #0]
 800483a:	2b08      	cmp	r3, #8
 800483c:	d822      	bhi.n	8004884 <UART_SetConfig+0x4b0>
 800483e:	009a      	lsls	r2, r3, #2
 8004840:	4b32      	ldr	r3, [pc, #200]	@ (800490c <UART_SetConfig+0x538>)
 8004842:	18d3      	adds	r3, r2, r3
 8004844:	681b      	ldr	r3, [r3, #0]
 8004846:	469f      	mov	pc, r3
 8004848:	f7fe fb12 	bl	8002e70 <HAL_RCC_GetPCLK1Freq>
 800484c:	0003      	movs	r3, r0
 800484e:	62fb      	str	r3, [r7, #44]	@ 0x2c
 8004850:	e021      	b.n	8004896 <UART_SetConfig+0x4c2>
 8004852:	f7fe fb23 	bl	8002e9c <HAL_RCC_GetPCLK2Freq>
 8004856:	0003      	movs	r3, r0
 8004858:	62fb      	str	r3, [r7, #44]	@ 0x2c
 800485a:	e01c      	b.n	8004896 <UART_SetConfig+0x4c2>
 800485c:	4b28      	ldr	r3, [pc, #160]	@ (8004900 <UART_SetConfig+0x52c>)
 800485e:	681b      	ldr	r3, [r3, #0]
 8004860:	2210      	movs	r2, #16
 8004862:	4013      	ands	r3, r2
 8004864:	d002      	beq.n	800486c <UART_SetConfig+0x498>
 8004866:	4b27      	ldr	r3, [pc, #156]	@ (8004904 <UART_SetConfig+0x530>)
 8004868:	62fb      	str	r3, [r7, #44]	@ 0x2c
 800486a:	e014      	b.n	8004896 <UART_SetConfig+0x4c2>
 800486c:	4b26      	ldr	r3, [pc, #152]	@ (8004908 <UART_SetConfig+0x534>)
 800486e:	62fb      	str	r3, [r7, #44]	@ 0x2c
 8004870:	e011      	b.n	8004896 <UART_SetConfig+0x4c2>
 8004872:	f7fe fa6d 	bl	8002d50 <HAL_RCC_GetSysClockFreq>
 8004876:	0003      	movs	r3, r0
 8004878:	62fb      	str	r3, [r7, #44]	@ 0x2c
 800487a:	e00c      	b.n	8004896 <UART_SetConfig+0x4c2>
 800487c:	2380      	movs	r3, #128	@ 0x80
 800487e:	021b      	lsls	r3, r3, #8
 8004880:	62fb      	str	r3, [r7, #44]	@ 0x2c
 8004882:	e008      	b.n	8004896 <UART_SetConfig+0x4c2>
 8004884:	2300      	movs	r3, #0
 8004886:	62fb      	str	r3, [r7, #44]	@ 0x2c
 8004888:	231a      	movs	r3, #26
 800488a:	2218      	movs	r2, #24
 800488c:	189b      	adds	r3, r3, r2
 800488e:	19db      	adds	r3, r3, r7
 8004890:	2201      	movs	r2, #1
 8004892:	701a      	strb	r2, [r3, #0]
 8004894:	46c0      	nop			@ (mov r8, r8)
 8004896:	6afb      	ldr	r3, [r7, #44]	@ 0x2c
 8004898:	2b00      	cmp	r3, #0
 800489a:	d020      	beq.n	80048de <UART_SetConfig+0x50a>
 800489c:	69fb      	ldr	r3, [r7, #28]
 800489e:	685b      	ldr	r3, [r3, #4]
 80048a0:	085a      	lsrs	r2, r3, #1
 80048a2:	6afb      	ldr	r3, [r7, #44]	@ 0x2c
 80048a4:	18d2      	adds	r2, r2, r3
 80048a6:	69fb      	ldr	r3, [r7, #28]
 80048a8:	685b      	ldr	r3, [r3, #4]
 80048aa:	0019      	movs	r1, r3
 80048ac:	0010      	movs	r0, r2
 80048ae:	f7fb fc3d 	bl	800012c <__udivsi3>
 80048b2:	0003      	movs	r3, r0
 80048b4:	62bb      	str	r3, [r7, #40]	@ 0x28
 80048b6:	6abb      	ldr	r3, [r7, #40]	@ 0x28
 80048b8:	2b0f      	cmp	r3, #15
 80048ba:	d90a      	bls.n	80048d2 <UART_SetConfig+0x4fe>
 80048bc:	6aba      	ldr	r2, [r7, #40]	@ 0x28
 80048be:	2380      	movs	r3, #128	@ 0x80
 80048c0:	025b      	lsls	r3, r3, #9
 80048c2:	429a      	cmp	r2, r3
 80048c4:	d205      	bcs.n	80048d2 <UART_SetConfig+0x4fe>
 80048c6:	6abb      	ldr	r3, [r7, #40]	@ 0x28
 80048c8:	b29a      	uxth	r2, r3
 80048ca:	69fb      	ldr	r3, [r7, #28]
 80048cc:	681b      	ldr	r3, [r3, #0]
 80048ce:	60da      	str	r2, [r3, #12]
 80048d0:	e005      	b.n	80048de <UART_SetConfig+0x50a>
 80048d2:	231a      	movs	r3, #26
 80048d4:	2218      	movs	r2, #24
 80048d6:	189b      	adds	r3, r3, r2
 80048d8:	19db      	adds	r3, r3, r7
 80048da:	2201      	movs	r2, #1
 80048dc:	701a      	strb	r2, [r3, #0]
 80048de:	69fb      	ldr	r3, [r7, #28]
 80048e0:	2200      	movs	r2, #0
 80048e2:	669a      	str	r2, [r3, #104]	@ 0x68
 80048e4:	69fb      	ldr	r3, [r7, #28]
 80048e6:	2200      	movs	r2, #0
 80048e8:	66da      	str	r2, [r3, #108]	@ 0x6c
 80048ea:	231a      	movs	r3, #26
 80048ec:	2218      	movs	r2, #24
 80048ee:	189b      	adds	r3, r3, r2
 80048f0:	19db      	adds	r3, r3, r7
 80048f2:	781b      	ldrb	r3, [r3, #0]
 80048f4:	0018      	movs	r0, r3
 80048f6:	46bd      	mov	sp, r7
 80048f8:	b00e      	add	sp, #56	@ 0x38
 80048fa:	bdb0      	pop	{r4, r5, r7, pc}
 80048fc:	080065ec 	.word	0x080065ec
 8004900:	40021000 	.word	0x40021000
 8004904:	003d0900 	.word	0x003d0900
 8004908:	00f42400 	.word	0x00f42400
 800490c:	08006610 	.word	0x08006610

08004910 <UART_AdvFeatureConfig>:
 8004910:	b580      	push	{r7, lr}
 8004912:	b082      	sub	sp, #8
 8004914:	af00      	add	r7, sp, #0
 8004916:	6078      	str	r0, [r7, #4]
 8004918:	687b      	ldr	r3, [r7, #4]
 800491a:	6a5b      	ldr	r3, [r3, #36]	@ 0x24
 800491c:	2208      	movs	r2, #8
 800491e:	4013      	ands	r3, r2
 8004920:	d00b      	beq.n	800493a <UART_AdvFeatureConfig+0x2a>
 8004922:	687b      	ldr	r3, [r7, #4]
 8004924:	681b      	ldr	r3, [r3, #0]
 8004926:	685b      	ldr	r3, [r3, #4]
 8004928:	4a4a      	ldr	r2, [pc, #296]	@ (8004a54 <UART_AdvFeatureConfig+0x144>)
 800492a:	4013      	ands	r3, r2
 800492c:	0019      	movs	r1, r3
 800492e:	687b      	ldr	r3, [r7, #4]
 8004930:	6b5a      	ldr	r2, [r3, #52]	@ 0x34
 8004932:	687b      	ldr	r3, [r7, #4]
 8004934:	681b      	ldr	r3, [r3, #0]
 8004936:	430a      	orrs	r2, r1
 8004938:	605a      	str	r2, [r3, #4]
 800493a:	687b      	ldr	r3, [r7, #4]
 800493c:	6a5b      	ldr	r3, [r3, #36]	@ 0x24
 800493e:	2201      	movs	r2, #1
 8004940:	4013      	ands	r3, r2
 8004942:	d00b      	beq.n	800495c <UART_AdvFeatureConfig+0x4c>
 8004944:	687b      	ldr	r3, [r7, #4]
 8004946:	681b      	ldr	r3, [r3, #0]
 8004948:	685b      	ldr	r3, [r3, #4]
 800494a:	4a43      	ldr	r2, [pc, #268]	@ (8004a58 <UART_AdvFeatureConfig+0x148>)
 800494c:	4013      	ands	r3, r2
 800494e:	0019      	movs	r1, r3
 8004950:	687b      	ldr	r3, [r7, #4]
 8004952:	6a9a      	ldr	r2, [r3, #40]	@ 0x28
 8004954:	687b      	ldr	r3, [r7, #4]
 8004956:	681b      	ldr	r3, [r3, #0]
 8004958:	430a      	orrs	r2, r1
 800495a:	605a      	str	r2, [r3, #4]
 800495c:	687b      	ldr	r3, [r7, #4]
 800495e:	6a5b      	ldr	r3, [r3, #36]	@ 0x24
 8004960:	2202      	movs	r2, #2
 8004962:	4013      	ands	r3, r2
 8004964:	d00b      	beq.n	800497e <UART_AdvFeatureConfig+0x6e>
 8004966:	687b      	ldr	r3, [r7, #4]
 8004968:	681b      	ldr	r3, [r3, #0]
 800496a:	685b      	ldr	r3, [r3, #4]
 800496c:	4a3b      	ldr	r2, [pc, #236]	@ (8004a5c <UART_AdvFeatureConfig+0x14c>)
 800496e:	4013      	ands	r3, r2
 8004970:	0019      	movs	r1, r3
 8004972:	687b      	ldr	r3, [r7, #4]
 8004974:	6ada      	ldr	r2, [r3, #44]	@ 0x2c
 8004976:	687b      	ldr	r3, [r7, #4]
 8004978:	681b      	ldr	r3, [r3, #0]
 800497a:	430a      	orrs	r2, r1
 800497c:	605a      	str	r2, [r3, #4]
 800497e:	687b      	ldr	r3, [r7, #4]
 8004980:	6a5b      	ldr	r3, [r3, #36]	@ 0x24
 8004982:	2204      	movs	r2, #4
 8004984:	4013      	ands	r3, r2
 8004986:	d00b      	beq.n	80049a0 <UART_AdvFeatureConfig+0x90>
 8004988:	687b      	ldr	r3, [r7, #4]
 800498a:	681b      	ldr	r3, [r3, #0]
 800498c:	685b      	ldr	r3, [r3, #4]
 800498e:	4a34      	ldr	r2, [pc, #208]	@ (8004a60 <UART_AdvFeatureConfig+0x150>)
 8004990:	4013      	ands	r3, r2
 8004992:	0019      	movs	r1, r3
 8004994:	687b      	ldr	r3, [r7, #4]
 8004996:	6b1a      	ldr	r2, [r3, #48]	@ 0x30
 8004998:	687b      	ldr	r3, [r7, #4]
 800499a:	681b      	ldr	r3, [r3, #0]
 800499c:	430a      	orrs	r2, r1
 800499e:	605a      	str	r2, [r3, #4]
 80049a0:	687b      	ldr	r3, [r7, #4]
 80049a2:	6a5b      	ldr	r3, [r3, #36]	@ 0x24
 80049a4:	2210      	movs	r2, #16
 80049a6:	4013      	ands	r3, r2
 80049a8:	d00b      	beq.n	80049c2 <UART_AdvFeatureConfig+0xb2>
 80049aa:	687b      	ldr	r3, [r7, #4]
 80049ac:	681b      	ldr	r3, [r3, #0]
 80049ae:	689b      	ldr	r3, [r3, #8]
 80049b0:	4a2c      	ldr	r2, [pc, #176]	@ (8004a64 <UART_AdvFeatureConfig+0x154>)
 80049b2:	4013      	ands	r3, r2
 80049b4:	0019      	movs	r1, r3
 80049b6:	687b      	ldr	r3, [r7, #4]
 80049b8:	6b9a      	ldr	r2, [r3, #56]	@ 0x38
 80049ba:	687b      	ldr	r3, [r7, #4]
 80049bc:	681b      	ldr	r3, [r3, #0]
 80049be:	430a      	orrs	r2, r1
 80049c0:	609a      	str	r2, [r3, #8]
 80049c2:	687b      	ldr	r3, [r7, #4]
 80049c4:	6a5b      	ldr	r3, [r3, #36]	@ 0x24
 80049c6:	2220      	movs	r2, #32
 80049c8:	4013      	ands	r3, r2
 80049ca:	d00b      	beq.n	80049e4 <UART_AdvFeatureConfig+0xd4>
 80049cc:	687b      	ldr	r3, [r7, #4]
 80049ce:	681b      	ldr	r3, [r3, #0]
 80049d0:	689b      	ldr	r3, [r3, #8]
 80049d2:	4a25      	ldr	r2, [pc, #148]	@ (8004a68 <UART_AdvFeatureConfig+0x158>)
 80049d4:	4013      	ands	r3, r2
 80049d6:	0019      	movs	r1, r3
 80049d8:	687b      	ldr	r3, [r7, #4]
 80049da:	6bda      	ldr	r2, [r3, #60]	@ 0x3c
 80049dc:	687b      	ldr	r3, [r7, #4]
 80049de:	681b      	ldr	r3, [r3, #0]
 80049e0:	430a      	orrs	r2, r1
 80049e2:	609a      	str	r2, [r3, #8]
 80049e4:	687b      	ldr	r3, [r7, #4]
 80049e6:	6a5b      	ldr	r3, [r3, #36]	@ 0x24
 80049e8:	2240      	movs	r2, #64	@ 0x40
 80049ea:	4013      	ands	r3, r2
 80049ec:	d01d      	beq.n	8004a2a <UART_AdvFeatureConfig+0x11a>
 80049ee:	687b      	ldr	r3, [r7, #4]
 80049f0:	681b      	ldr	r3, [r3, #0]
 80049f2:	685b      	ldr	r3, [r3, #4]
 80049f4:	4a1d      	ldr	r2, [pc, #116]	@ (8004a6c <UART_AdvFeatureConfig+0x15c>)
 80049f6:	4013      	ands	r3, r2
 80049f8:	0019      	movs	r1, r3
 80049fa:	687b      	ldr	r3, [r7, #4]
 80049fc:	6c1a      	ldr	r2, [r3, #64]	@ 0x40
 80049fe:	687b      	ldr	r3, [r7, #4]
 8004a00:	681b      	ldr	r3, [r3, #0]
 8004a02:	430a      	orrs	r2, r1
 8004a04:	605a      	str	r2, [r3, #4]
 8004a06:	687b      	ldr	r3, [r7, #4]
 8004a08:	6c1a      	ldr	r2, [r3, #64]	@ 0x40
 8004a0a:	2380      	movs	r3, #128	@ 0x80
 8004a0c:	035b      	lsls	r3, r3, #13
 8004a0e:	429a      	cmp	r2, r3
 8004a10:	d10b      	bne.n	8004a2a <UART_AdvFeatureConfig+0x11a>
 8004a12:	687b      	ldr	r3, [r7, #4]
 8004a14:	681b      	ldr	r3, [r3, #0]
 8004a16:	685b      	ldr	r3, [r3, #4]
 8004a18:	4a15      	ldr	r2, [pc, #84]	@ (8004a70 <UART_AdvFeatureConfig+0x160>)
 8004a1a:	4013      	ands	r3, r2
 8004a1c:	0019      	movs	r1, r3
 8004a1e:	687b      	ldr	r3, [r7, #4]
 8004a20:	6c5a      	ldr	r2, [r3, #68]	@ 0x44
 8004a22:	687b      	ldr	r3, [r7, #4]
 8004a24:	681b      	ldr	r3, [r3, #0]
 8004a26:	430a      	orrs	r2, r1
 8004a28:	605a      	str	r2, [r3, #4]
 8004a2a:	687b      	ldr	r3, [r7, #4]
 8004a2c:	6a5b      	ldr	r3, [r3, #36]	@ 0x24
 8004a2e:	2280      	movs	r2, #128	@ 0x80
 8004a30:	4013      	ands	r3, r2
 8004a32:	d00b      	beq.n	8004a4c <UART_AdvFeatureConfig+0x13c>
 8004a34:	687b      	ldr	r3, [r7, #4]
 8004a36:	681b      	ldr	r3, [r3, #0]
 8004a38:	685b      	ldr	r3, [r3, #4]
 8004a3a:	4a0e      	ldr	r2, [pc, #56]	@ (8004a74 <UART_AdvFeatureConfig+0x164>)
 8004a3c:	4013      	ands	r3, r2
 8004a3e:	0019      	movs	r1, r3
 8004a40:	687b      	ldr	r3, [r7, #4]
 8004a42:	6c9a      	ldr	r2, [r3, #72]	@ 0x48
 8004a44:	687b      	ldr	r3, [r7, #4]
 8004a46:	681b      	ldr	r3, [r3, #0]
 8004a48:	430a      	orrs	r2, r1
 8004a4a:	605a      	str	r2, [r3, #4]
 8004a4c:	46c0      	nop			@ (mov r8, r8)
 8004a4e:	46bd      	mov	sp, r7
 8004a50:	b002      	add	sp, #8
 8004a52:	bd80      	pop	{r7, pc}
 8004a54:	ffff7fff 	.word	0xffff7fff
 8004a58:	fffdffff 	.word	0xfffdffff
 8004a5c:	fffeffff 	.word	0xfffeffff
 8004a60:	fffbffff 	.word	0xfffbffff
 8004a64:	ffffefff 	.word	0xffffefff
 8004a68:	ffffdfff 	.word	0xffffdfff
 8004a6c:	ffefffff 	.word	0xffefffff
 8004a70:	ff9fffff 	.word	0xff9fffff
 8004a74:	fff7ffff 	.word	0xfff7ffff

08004a78 <UART_CheckIdleState>:
 8004a78:	b580      	push	{r7, lr}
 8004a7a:	b092      	sub	sp, #72	@ 0x48
 8004a7c:	af02      	add	r7, sp, #8
 8004a7e:	6078      	str	r0, [r7, #4]
 8004a80:	687b      	ldr	r3, [r7, #4]
 8004a82:	2284      	movs	r2, #132	@ 0x84
 8004a84:	2100      	movs	r1, #0
 8004a86:	5099      	str	r1, [r3, r2]
 8004a88:	f7fc fc16 	bl	80012b8 <HAL_GetTick>
 8004a8c:	0003      	movs	r3, r0
 8004a8e:	63fb      	str	r3, [r7, #60]	@ 0x3c
 8004a90:	687b      	ldr	r3, [r7, #4]
 8004a92:	681b      	ldr	r3, [r3, #0]
 8004a94:	681b      	ldr	r3, [r3, #0]
 8004a96:	2208      	movs	r2, #8
 8004a98:	4013      	ands	r3, r2
 8004a9a:	2b08      	cmp	r3, #8
 8004a9c:	d12c      	bne.n	8004af8 <UART_CheckIdleState+0x80>
 8004a9e:	6bfb      	ldr	r3, [r7, #60]	@ 0x3c
 8004aa0:	2280      	movs	r2, #128	@ 0x80
 8004aa2:	0391      	lsls	r1, r2, #14
 8004aa4:	6878      	ldr	r0, [r7, #4]
 8004aa6:	4a46      	ldr	r2, [pc, #280]	@ (8004bc0 <UART_CheckIdleState+0x148>)
 8004aa8:	9200      	str	r2, [sp, #0]
 8004aaa:	2200      	movs	r2, #0
 8004aac:	f000 f88c 	bl	8004bc8 <UART_WaitOnFlagUntilTimeout>
 8004ab0:	1e03      	subs	r3, r0, #0
 8004ab2:	d021      	beq.n	8004af8 <UART_CheckIdleState+0x80>
 8004ab4:	f3ef 8310 	mrs	r3, PRIMASK
 8004ab8:	627b      	str	r3, [r7, #36]	@ 0x24
 8004aba:	6a7b      	ldr	r3, [r7, #36]	@ 0x24
 8004abc:	63bb      	str	r3, [r7, #56]	@ 0x38
 8004abe:	2301      	movs	r3, #1
 8004ac0:	62bb      	str	r3, [r7, #40]	@ 0x28
 8004ac2:	6abb      	ldr	r3, [r7, #40]	@ 0x28
 8004ac4:	f383 8810 	msr	PRIMASK, r3
 8004ac8:	46c0      	nop			@ (mov r8, r8)
 8004aca:	687b      	ldr	r3, [r7, #4]
 8004acc:	681b      	ldr	r3, [r3, #0]
 8004ace:	681a      	ldr	r2, [r3, #0]
 8004ad0:	687b      	ldr	r3, [r7, #4]
 8004ad2:	681b      	ldr	r3, [r3, #0]
 8004ad4:	2180      	movs	r1, #128	@ 0x80
 8004ad6:	438a      	bics	r2, r1
 8004ad8:	601a      	str	r2, [r3, #0]
 8004ada:	6bbb      	ldr	r3, [r7, #56]	@ 0x38
 8004adc:	62fb      	str	r3, [r7, #44]	@ 0x2c
 8004ade:	6afb      	ldr	r3, [r7, #44]	@ 0x2c
 8004ae0:	f383 8810 	msr	PRIMASK, r3
 8004ae4:	46c0      	nop			@ (mov r8, r8)
 8004ae6:	687b      	ldr	r3, [r7, #4]
 8004ae8:	2220      	movs	r2, #32
 8004aea:	67da      	str	r2, [r3, #124]	@ 0x7c
 8004aec:	687b      	ldr	r3, [r7, #4]
 8004aee:	2278      	movs	r2, #120	@ 0x78
 8004af0:	2100      	movs	r1, #0
 8004af2:	5499      	strb	r1, [r3, r2]
 8004af4:	2303      	movs	r3, #3
 8004af6:	e05f      	b.n	8004bb8 <UART_CheckIdleState+0x140>
 8004af8:	687b      	ldr	r3, [r7, #4]
 8004afa:	681b      	ldr	r3, [r3, #0]
 8004afc:	681b      	ldr	r3, [r3, #0]
 8004afe:	2204      	movs	r2, #4
 8004b00:	4013      	ands	r3, r2
 8004b02:	2b04      	cmp	r3, #4
 8004b04:	d146      	bne.n	8004b94 <UART_CheckIdleState+0x11c>
 8004b06:	6bfb      	ldr	r3, [r7, #60]	@ 0x3c
 8004b08:	2280      	movs	r2, #128	@ 0x80
 8004b0a:	03d1      	lsls	r1, r2, #15
 8004b0c:	6878      	ldr	r0, [r7, #4]
 8004b0e:	4a2c      	ldr	r2, [pc, #176]	@ (8004bc0 <UART_CheckIdleState+0x148>)
 8004b10:	9200      	str	r2, [sp, #0]
 8004b12:	2200      	movs	r2, #0
 8004b14:	f000 f858 	bl	8004bc8 <UART_WaitOnFlagUntilTimeout>
 8004b18:	1e03      	subs	r3, r0, #0
 8004b1a:	d03b      	beq.n	8004b94 <UART_CheckIdleState+0x11c>
 8004b1c:	f3ef 8310 	mrs	r3, PRIMASK
 8004b20:	60fb      	str	r3, [r7, #12]
 8004b22:	68fb      	ldr	r3, [r7, #12]
 8004b24:	637b      	str	r3, [r7, #52]	@ 0x34
 8004b26:	2301      	movs	r3, #1
 8004b28:	613b      	str	r3, [r7, #16]
 8004b2a:	693b      	ldr	r3, [r7, #16]
 8004b2c:	f383 8810 	msr	PRIMASK, r3
 8004b30:	46c0      	nop			@ (mov r8, r8)
 8004b32:	687b      	ldr	r3, [r7, #4]
 8004b34:	681b      	ldr	r3, [r3, #0]
 8004b36:	681a      	ldr	r2, [r3, #0]
 8004b38:	687b      	ldr	r3, [r7, #4]
 8004b3a:	681b      	ldr	r3, [r3, #0]
 8004b3c:	4921      	ldr	r1, [pc, #132]	@ (8004bc4 <UART_CheckIdleState+0x14c>)
 8004b3e:	400a      	ands	r2, r1
 8004b40:	601a      	str	r2, [r3, #0]
 8004b42:	6b7b      	ldr	r3, [r7, #52]	@ 0x34
 8004b44:	617b      	str	r3, [r7, #20]
 8004b46:	697b      	ldr	r3, [r7, #20]
 8004b48:	f383 8810 	msr	PRIMASK, r3
 8004b4c:	46c0      	nop			@ (mov r8, r8)
 8004b4e:	f3ef 8310 	mrs	r3, PRIMASK
 8004b52:	61bb      	str	r3, [r7, #24]
 8004b54:	69bb      	ldr	r3, [r7, #24]
 8004b56:	633b      	str	r3, [r7, #48]	@ 0x30
 8004b58:	2301      	movs	r3, #1
 8004b5a:	61fb      	str	r3, [r7, #28]
 8004b5c:	69fb      	ldr	r3, [r7, #28]
 8004b5e:	f383 8810 	msr	PRIMASK, r3
 8004b62:	46c0      	nop			@ (mov r8, r8)
 8004b64:	687b      	ldr	r3, [r7, #4]
 8004b66:	681b      	ldr	r3, [r3, #0]
 8004b68:	689a      	ldr	r2, [r3, #8]
 8004b6a:	687b      	ldr	r3, [r7, #4]
 8004b6c:	681b      	ldr	r3, [r3, #0]
 8004b6e:	2101      	movs	r1, #1
 8004b70:	438a      	bics	r2, r1
 8004b72:	609a      	str	r2, [r3, #8]
 8004b74:	6b3b      	ldr	r3, [r7, #48]	@ 0x30
 8004b76:	623b      	str	r3, [r7, #32]
 8004b78:	6a3b      	ldr	r3, [r7, #32]
 8004b7a:	f383 8810 	msr	PRIMASK, r3
 8004b7e:	46c0      	nop			@ (mov r8, r8)
 8004b80:	687b      	ldr	r3, [r7, #4]
 8004b82:	2280      	movs	r2, #128	@ 0x80
 8004b84:	2120      	movs	r1, #32
 8004b86:	5099      	str	r1, [r3, r2]
 8004b88:	687b      	ldr	r3, [r7, #4]
 8004b8a:	2278      	movs	r2, #120	@ 0x78
 8004b8c:	2100      	movs	r1, #0
 8004b8e:	5499      	strb	r1, [r3, r2]
 8004b90:	2303      	movs	r3, #3
 8004b92:	e011      	b.n	8004bb8 <UART_CheckIdleState+0x140>
 8004b94:	687b      	ldr	r3, [r7, #4]
 8004b96:	2220      	movs	r2, #32
 8004b98:	67da      	str	r2, [r3, #124]	@ 0x7c
 8004b9a:	687b      	ldr	r3, [r7, #4]
 8004b9c:	2280      	movs	r2, #128	@ 0x80
 8004b9e:	2120      	movs	r1, #32
 8004ba0:	5099      	str	r1, [r3, r2]
 8004ba2:	687b      	ldr	r3, [r7, #4]
 8004ba4:	2200      	movs	r2, #0
 8004ba6:	661a      	str	r2, [r3, #96]	@ 0x60
 8004ba8:	687b      	ldr	r3, [r7, #4]
 8004baa:	2200      	movs	r2, #0
 8004bac:	665a      	str	r2, [r3, #100]	@ 0x64
 8004bae:	687b      	ldr	r3, [r7, #4]
 8004bb0:	2278      	movs	r2, #120	@ 0x78
 8004bb2:	2100      	movs	r1, #0
 8004bb4:	5499      	strb	r1, [r3, r2]
 8004bb6:	2300      	movs	r3, #0
 8004bb8:	0018      	movs	r0, r3
 8004bba:	46bd      	mov	sp, r7
 8004bbc:	b010      	add	sp, #64	@ 0x40
 8004bbe:	bd80      	pop	{r7, pc}
 8004bc0:	01ffffff 	.word	0x01ffffff
 8004bc4:	fffffedf 	.word	0xfffffedf

08004bc8 <UART_WaitOnFlagUntilTimeout>:
 8004bc8:	b580      	push	{r7, lr}
 8004bca:	b084      	sub	sp, #16
 8004bcc:	af00      	add	r7, sp, #0
 8004bce:	60f8      	str	r0, [r7, #12]
 8004bd0:	60b9      	str	r1, [r7, #8]
 8004bd2:	603b      	str	r3, [r7, #0]
 8004bd4:	1dfb      	adds	r3, r7, #7
 8004bd6:	701a      	strb	r2, [r3, #0]
 8004bd8:	e051      	b.n	8004c7e <UART_WaitOnFlagUntilTimeout+0xb6>
 8004bda:	69bb      	ldr	r3, [r7, #24]
 8004bdc:	3301      	adds	r3, #1
 8004bde:	d04e      	beq.n	8004c7e <UART_WaitOnFlagUntilTimeout+0xb6>
 8004be0:	f7fc fb6a 	bl	80012b8 <HAL_GetTick>
 8004be4:	0002      	movs	r2, r0
 8004be6:	683b      	ldr	r3, [r7, #0]
 8004be8:	1ad3      	subs	r3, r2, r3
 8004bea:	69ba      	ldr	r2, [r7, #24]
 8004bec:	429a      	cmp	r2, r3
 8004bee:	d302      	bcc.n	8004bf6 <UART_WaitOnFlagUntilTimeout+0x2e>
 8004bf0:	69bb      	ldr	r3, [r7, #24]
 8004bf2:	2b00      	cmp	r3, #0
 8004bf4:	d101      	bne.n	8004bfa <UART_WaitOnFlagUntilTimeout+0x32>
 8004bf6:	2303      	movs	r3, #3
 8004bf8:	e051      	b.n	8004c9e <UART_WaitOnFlagUntilTimeout+0xd6>
 8004bfa:	68fb      	ldr	r3, [r7, #12]
 8004bfc:	681b      	ldr	r3, [r3, #0]
 8004bfe:	681b      	ldr	r3, [r3, #0]
 8004c00:	2204      	movs	r2, #4
 8004c02:	4013      	ands	r3, r2
 8004c04:	d03b      	beq.n	8004c7e <UART_WaitOnFlagUntilTimeout+0xb6>
 8004c06:	68bb      	ldr	r3, [r7, #8]
 8004c08:	2b80      	cmp	r3, #128	@ 0x80
 8004c0a:	d038      	beq.n	8004c7e <UART_WaitOnFlagUntilTimeout+0xb6>
 8004c0c:	68bb      	ldr	r3, [r7, #8]
 8004c0e:	2b40      	cmp	r3, #64	@ 0x40
 8004c10:	d035      	beq.n	8004c7e <UART_WaitOnFlagUntilTimeout+0xb6>
 8004c12:	68fb      	ldr	r3, [r7, #12]
 8004c14:	681b      	ldr	r3, [r3, #0]
 8004c16:	69db      	ldr	r3, [r3, #28]
 8004c18:	2208      	movs	r2, #8
 8004c1a:	4013      	ands	r3, r2
 8004c1c:	2b08      	cmp	r3, #8
 8004c1e:	d111      	bne.n	8004c44 <UART_WaitOnFlagUntilTimeout+0x7c>
 8004c20:	68fb      	ldr	r3, [r7, #12]
 8004c22:	681b      	ldr	r3, [r3, #0]
 8004c24:	2208      	movs	r2, #8
 8004c26:	621a      	str	r2, [r3, #32]
 8004c28:	68fb      	ldr	r3, [r7, #12]
 8004c2a:	0018      	movs	r0, r3
 8004c2c:	f000 f900 	bl	8004e30 <UART_EndRxTransfer>
 8004c30:	68fb      	ldr	r3, [r7, #12]
 8004c32:	2284      	movs	r2, #132	@ 0x84
 8004c34:	2108      	movs	r1, #8
 8004c36:	5099      	str	r1, [r3, r2]
 8004c38:	68fb      	ldr	r3, [r7, #12]
 8004c3a:	2278      	movs	r2, #120	@ 0x78
 8004c3c:	2100      	movs	r1, #0
 8004c3e:	5499      	strb	r1, [r3, r2]
 8004c40:	2301      	movs	r3, #1
 8004c42:	e02c      	b.n	8004c9e <UART_WaitOnFlagUntilTimeout+0xd6>
 8004c44:	68fb      	ldr	r3, [r7, #12]
 8004c46:	681b      	ldr	r3, [r3, #0]
 8004c48:	69da      	ldr	r2, [r3, #28]
 8004c4a:	2380      	movs	r3, #128	@ 0x80
 8004c4c:	011b      	lsls	r3, r3, #4
 8004c4e:	401a      	ands	r2, r3
 8004c50:	2380      	movs	r3, #128	@ 0x80
 8004c52:	011b      	lsls	r3, r3, #4
 8004c54:	429a      	cmp	r2, r3
 8004c56:	d112      	bne.n	8004c7e <UART_WaitOnFlagUntilTimeout+0xb6>
 8004c58:	68fb      	ldr	r3, [r7, #12]
 8004c5a:	681b      	ldr	r3, [r3, #0]
 8004c5c:	2280      	movs	r2, #128	@ 0x80
 8004c5e:	0112      	lsls	r2, r2, #4
 8004c60:	621a      	str	r2, [r3, #32]
 8004c62:	68fb      	ldr	r3, [r7, #12]
 8004c64:	0018      	movs	r0, r3
 8004c66:	f000 f8e3 	bl	8004e30 <UART_EndRxTransfer>
 8004c6a:	68fb      	ldr	r3, [r7, #12]
 8004c6c:	2284      	movs	r2, #132	@ 0x84
 8004c6e:	2120      	movs	r1, #32
 8004c70:	5099      	str	r1, [r3, r2]
 8004c72:	68fb      	ldr	r3, [r7, #12]
 8004c74:	2278      	movs	r2, #120	@ 0x78
 8004c76:	2100      	movs	r1, #0
 8004c78:	5499      	strb	r1, [r3, r2]
 8004c7a:	2303      	movs	r3, #3
 8004c7c:	e00f      	b.n	8004c9e <UART_WaitOnFlagUntilTimeout+0xd6>
 8004c7e:	68fb      	ldr	r3, [r7, #12]
 8004c80:	681b      	ldr	r3, [r3, #0]
 8004c82:	69db      	ldr	r3, [r3, #28]
 8004c84:	68ba      	ldr	r2, [r7, #8]
 8004c86:	4013      	ands	r3, r2
 8004c88:	68ba      	ldr	r2, [r7, #8]
 8004c8a:	1ad3      	subs	r3, r2, r3
 8004c8c:	425a      	negs	r2, r3
 8004c8e:	4153      	adcs	r3, r2
 8004c90:	b2db      	uxtb	r3, r3
 8004c92:	001a      	movs	r2, r3
 8004c94:	1dfb      	adds	r3, r7, #7
 8004c96:	781b      	ldrb	r3, [r3, #0]
 8004c98:	429a      	cmp	r2, r3
 8004c9a:	d09e      	beq.n	8004bda <UART_WaitOnFlagUntilTimeout+0x12>
 8004c9c:	2300      	movs	r3, #0
 8004c9e:	0018      	movs	r0, r3
 8004ca0:	46bd      	mov	sp, r7
 8004ca2:	b004      	add	sp, #16
 8004ca4:	bd80      	pop	{r7, pc}
	...

08004ca8 <UART_Start_Receive_DMA>:
 8004ca8:	b580      	push	{r7, lr}
 8004caa:	b090      	sub	sp, #64	@ 0x40
 8004cac:	af00      	add	r7, sp, #0
 8004cae:	60f8      	str	r0, [r7, #12]
 8004cb0:	60b9      	str	r1, [r7, #8]
 8004cb2:	1dbb      	adds	r3, r7, #6
 8004cb4:	801a      	strh	r2, [r3, #0]
 8004cb6:	68fb      	ldr	r3, [r7, #12]
 8004cb8:	68ba      	ldr	r2, [r7, #8]
 8004cba:	655a      	str	r2, [r3, #84]	@ 0x54
 8004cbc:	68fb      	ldr	r3, [r7, #12]
 8004cbe:	1dba      	adds	r2, r7, #6
 8004cc0:	2158      	movs	r1, #88	@ 0x58
 8004cc2:	8812      	ldrh	r2, [r2, #0]
 8004cc4:	525a      	strh	r2, [r3, r1]
 8004cc6:	68fb      	ldr	r3, [r7, #12]
 8004cc8:	2284      	movs	r2, #132	@ 0x84
 8004cca:	2100      	movs	r1, #0
 8004ccc:	5099      	str	r1, [r3, r2]
 8004cce:	68fb      	ldr	r3, [r7, #12]
 8004cd0:	2280      	movs	r2, #128	@ 0x80
 8004cd2:	2122      	movs	r1, #34	@ 0x22
 8004cd4:	5099      	str	r1, [r3, r2]
 8004cd6:	68fb      	ldr	r3, [r7, #12]
 8004cd8:	6f5b      	ldr	r3, [r3, #116]	@ 0x74
 8004cda:	2b00      	cmp	r3, #0
 8004cdc:	d028      	beq.n	8004d30 <UART_Start_Receive_DMA+0x88>
 8004cde:	68fb      	ldr	r3, [r7, #12]
 8004ce0:	6f5b      	ldr	r3, [r3, #116]	@ 0x74
 8004ce2:	4a3e      	ldr	r2, [pc, #248]	@ (8004ddc <UART_Start_Receive_DMA+0x134>)
 8004ce4:	62da      	str	r2, [r3, #44]	@ 0x2c
 8004ce6:	68fb      	ldr	r3, [r7, #12]
 8004ce8:	6f5b      	ldr	r3, [r3, #116]	@ 0x74
 8004cea:	4a3d      	ldr	r2, [pc, #244]	@ (8004de0 <UART_Start_Receive_DMA+0x138>)
 8004cec:	631a      	str	r2, [r3, #48]	@ 0x30
 8004cee:	68fb      	ldr	r3, [r7, #12]
 8004cf0:	6f5b      	ldr	r3, [r3, #116]	@ 0x74
 8004cf2:	4a3c      	ldr	r2, [pc, #240]	@ (8004de4 <UART_Start_Receive_DMA+0x13c>)
 8004cf4:	635a      	str	r2, [r3, #52]	@ 0x34
 8004cf6:	68fb      	ldr	r3, [r7, #12]
 8004cf8:	6f5b      	ldr	r3, [r3, #116]	@ 0x74
 8004cfa:	2200      	movs	r2, #0
 8004cfc:	639a      	str	r2, [r3, #56]	@ 0x38
 8004cfe:	68fb      	ldr	r3, [r7, #12]
 8004d00:	6f58      	ldr	r0, [r3, #116]	@ 0x74
 8004d02:	68fb      	ldr	r3, [r7, #12]
 8004d04:	681b      	ldr	r3, [r3, #0]
 8004d06:	3324      	adds	r3, #36	@ 0x24
 8004d08:	0019      	movs	r1, r3
 8004d0a:	68fb      	ldr	r3, [r7, #12]
 8004d0c:	6d5b      	ldr	r3, [r3, #84]	@ 0x54
 8004d0e:	001a      	movs	r2, r3
 8004d10:	1dbb      	adds	r3, r7, #6
 8004d12:	881b      	ldrh	r3, [r3, #0]
 8004d14:	f7fc fce4 	bl	80016e0 <HAL_DMA_Start_IT>
 8004d18:	1e03      	subs	r3, r0, #0
 8004d1a:	d009      	beq.n	8004d30 <UART_Start_Receive_DMA+0x88>
 8004d1c:	68fb      	ldr	r3, [r7, #12]
 8004d1e:	2284      	movs	r2, #132	@ 0x84
 8004d20:	2110      	movs	r1, #16
 8004d22:	5099      	str	r1, [r3, r2]
 8004d24:	68fb      	ldr	r3, [r7, #12]
 8004d26:	2280      	movs	r2, #128	@ 0x80
 8004d28:	2120      	movs	r1, #32
 8004d2a:	5099      	str	r1, [r3, r2]
 8004d2c:	2301      	movs	r3, #1
 8004d2e:	e050      	b.n	8004dd2 <UART_Start_Receive_DMA+0x12a>
 8004d30:	68fb      	ldr	r3, [r7, #12]
 8004d32:	691b      	ldr	r3, [r3, #16]
 8004d34:	2b00      	cmp	r3, #0
 8004d36:	d019      	beq.n	8004d6c <UART_Start_Receive_DMA+0xc4>
 8004d38:	f3ef 8310 	mrs	r3, PRIMASK
 8004d3c:	62bb      	str	r3, [r7, #40]	@ 0x28
 8004d3e:	6abb      	ldr	r3, [r7, #40]	@ 0x28
 8004d40:	63fb      	str	r3, [r7, #60]	@ 0x3c
 8004d42:	2301      	movs	r3, #1
 8004d44:	62fb      	str	r3, [r7, #44]	@ 0x2c
 8004d46:	6afb      	ldr	r3, [r7, #44]	@ 0x2c
 8004d48:	f383 8810 	msr	PRIMASK, r3
 8004d4c:	46c0      	nop			@ (mov r8, r8)
 8004d4e:	68fb      	ldr	r3, [r7, #12]
 8004d50:	681b      	ldr	r3, [r3, #0]
 8004d52:	681a      	ldr	r2, [r3, #0]
 8004d54:	68fb      	ldr	r3, [r7, #12]
 8004d56:	681b      	ldr	r3, [r3, #0]
 8004d58:	2180      	movs	r1, #128	@ 0x80
 8004d5a:	0049      	lsls	r1, r1, #1
 8004d5c:	430a      	orrs	r2, r1
 8004d5e:	601a      	str	r2, [r3, #0]
 8004d60:	6bfb      	ldr	r3, [r7, #60]	@ 0x3c
 8004d62:	633b      	str	r3, [r7, #48]	@ 0x30
 8004d64:	6b3b      	ldr	r3, [r7, #48]	@ 0x30
 8004d66:	f383 8810 	msr	PRIMASK, r3
 8004d6a:	46c0      	nop			@ (mov r8, r8)
 8004d6c:	f3ef 8310 	mrs	r3, PRIMASK
 8004d70:	613b      	str	r3, [r7, #16]
 8004d72:	693b      	ldr	r3, [r7, #16]
 8004d74:	63bb      	str	r3, [r7, #56]	@ 0x38
 8004d76:	2301      	movs	r3, #1
 8004d78:	617b      	str	r3, [r7, #20]
 8004d7a:	697b      	ldr	r3, [r7, #20]
 8004d7c:	f383 8810 	msr	PRIMASK, r3
 8004d80:	46c0      	nop			@ (mov r8, r8)
 8004d82:	68fb      	ldr	r3, [r7, #12]
 8004d84:	681b      	ldr	r3, [r3, #0]
 8004d86:	689a      	ldr	r2, [r3, #8]
 8004d88:	68fb      	ldr	r3, [r7, #12]
 8004d8a:	681b      	ldr	r3, [r3, #0]
 8004d8c:	2101      	movs	r1, #1
 8004d8e:	430a      	orrs	r2, r1
 8004d90:	609a      	str	r2, [r3, #8]
 8004d92:	6bbb      	ldr	r3, [r7, #56]	@ 0x38
 8004d94:	61bb      	str	r3, [r7, #24]
 8004d96:	69bb      	ldr	r3, [r7, #24]
 8004d98:	f383 8810 	msr	PRIMASK, r3
 8004d9c:	46c0      	nop			@ (mov r8, r8)
 8004d9e:	f3ef 8310 	mrs	r3, PRIMASK
 8004da2:	61fb      	str	r3, [r7, #28]
 8004da4:	69fb      	ldr	r3, [r7, #28]
 8004da6:	637b      	str	r3, [r7, #52]	@ 0x34
 8004da8:	2301      	movs	r3, #1
 8004daa:	623b      	str	r3, [r7, #32]
 8004dac:	6a3b      	ldr	r3, [r7, #32]
 8004dae:	f383 8810 	msr	PRIMASK, r3
 8004db2:	46c0      	nop			@ (mov r8, r8)
 8004db4:	68fb      	ldr	r3, [r7, #12]
 8004db6:	681b      	ldr	r3, [r3, #0]
 8004db8:	689a      	ldr	r2, [r3, #8]
 8004dba:	68fb      	ldr	r3, [r7, #12]
 8004dbc:	681b      	ldr	r3, [r3, #0]
 8004dbe:	2140      	movs	r1, #64	@ 0x40
 8004dc0:	430a      	orrs	r2, r1
 8004dc2:	609a      	str	r2, [r3, #8]
 8004dc4:	6b7b      	ldr	r3, [r7, #52]	@ 0x34
 8004dc6:	627b      	str	r3, [r7, #36]	@ 0x24
 8004dc8:	6a7b      	ldr	r3, [r7, #36]	@ 0x24
 8004dca:	f383 8810 	msr	PRIMASK, r3
 8004dce:	46c0      	nop			@ (mov r8, r8)
 8004dd0:	2300      	movs	r3, #0
 8004dd2:	0018      	movs	r0, r3
 8004dd4:	46bd      	mov	sp, r7
 8004dd6:	b010      	add	sp, #64	@ 0x40
 8004dd8:	bd80      	pop	{r7, pc}
 8004dda:	46c0      	nop			@ (mov r8, r8)
 8004ddc:	08004fb1 	.word	0x08004fb1
 8004de0:	08005119 	.word	0x08005119
 8004de4:	08005197 	.word	0x08005197

08004de8 <UART_EndTxTransfer>:
 8004de8:	b580      	push	{r7, lr}
 8004dea:	b086      	sub	sp, #24
 8004dec:	af00      	add	r7, sp, #0
 8004dee:	6078      	str	r0, [r7, #4]
 8004df0:	f3ef 8310 	mrs	r3, PRIMASK
 8004df4:	60bb      	str	r3, [r7, #8]
 8004df6:	68bb      	ldr	r3, [r7, #8]
 8004df8:	617b      	str	r3, [r7, #20]
 8004dfa:	2301      	movs	r3, #1
 8004dfc:	60fb      	str	r3, [r7, #12]
 8004dfe:	68fb      	ldr	r3, [r7, #12]
 8004e00:	f383 8810 	msr	PRIMASK, r3
 8004e04:	46c0      	nop			@ (mov r8, r8)
 8004e06:	687b      	ldr	r3, [r7, #4]
 8004e08:	681b      	ldr	r3, [r3, #0]
 8004e0a:	681a      	ldr	r2, [r3, #0]
 8004e0c:	687b      	ldr	r3, [r7, #4]
 8004e0e:	681b      	ldr	r3, [r3, #0]
 8004e10:	21c0      	movs	r1, #192	@ 0xc0
 8004e12:	438a      	bics	r2, r1
 8004e14:	601a      	str	r2, [r3, #0]
 8004e16:	697b      	ldr	r3, [r7, #20]
 8004e18:	613b      	str	r3, [r7, #16]
 8004e1a:	693b      	ldr	r3, [r7, #16]
 8004e1c:	f383 8810 	msr	PRIMASK, r3
 8004e20:	46c0      	nop			@ (mov r8, r8)
 8004e22:	687b      	ldr	r3, [r7, #4]
 8004e24:	2220      	movs	r2, #32
 8004e26:	67da      	str	r2, [r3, #124]	@ 0x7c
 8004e28:	46c0      	nop			@ (mov r8, r8)
 8004e2a:	46bd      	mov	sp, r7
 8004e2c:	b006      	add	sp, #24
 8004e2e:	bd80      	pop	{r7, pc}

08004e30 <UART_EndRxTransfer>:
 8004e30:	b580      	push	{r7, lr}
 8004e32:	b08e      	sub	sp, #56	@ 0x38
 8004e34:	af00      	add	r7, sp, #0
 8004e36:	6078      	str	r0, [r7, #4]
 8004e38:	f3ef 8310 	mrs	r3, PRIMASK
 8004e3c:	617b      	str	r3, [r7, #20]
 8004e3e:	697b      	ldr	r3, [r7, #20]
 8004e40:	637b      	str	r3, [r7, #52]	@ 0x34
 8004e42:	2301      	movs	r3, #1
 8004e44:	61bb      	str	r3, [r7, #24]
 8004e46:	69bb      	ldr	r3, [r7, #24]
 8004e48:	f383 8810 	msr	PRIMASK, r3
 8004e4c:	46c0      	nop			@ (mov r8, r8)
 8004e4e:	687b      	ldr	r3, [r7, #4]
 8004e50:	681b      	ldr	r3, [r3, #0]
 8004e52:	681a      	ldr	r2, [r3, #0]
 8004e54:	687b      	ldr	r3, [r7, #4]
 8004e56:	681b      	ldr	r3, [r3, #0]
 8004e58:	4926      	ldr	r1, [pc, #152]	@ (8004ef4 <UART_EndRxTransfer+0xc4>)
 8004e5a:	400a      	ands	r2, r1
 8004e5c:	601a      	str	r2, [r3, #0]
 8004e5e:	6b7b      	ldr	r3, [r7, #52]	@ 0x34
 8004e60:	61fb      	str	r3, [r7, #28]
 8004e62:	69fb      	ldr	r3, [r7, #28]
 8004e64:	f383 8810 	msr	PRIMASK, r3
 8004e68:	46c0      	nop			@ (mov r8, r8)
 8004e6a:	f3ef 8310 	mrs	r3, PRIMASK
 8004e6e:	623b      	str	r3, [r7, #32]
 8004e70:	6a3b      	ldr	r3, [r7, #32]
 8004e72:	633b      	str	r3, [r7, #48]	@ 0x30
 8004e74:	2301      	movs	r3, #1
 8004e76:	627b      	str	r3, [r7, #36]	@ 0x24
 8004e78:	6a7b      	ldr	r3, [r7, #36]	@ 0x24
 8004e7a:	f383 8810 	msr	PRIMASK, r3
 8004e7e:	46c0      	nop			@ (mov r8, r8)
 8004e80:	687b      	ldr	r3, [r7, #4]
 8004e82:	681b      	ldr	r3, [r3, #0]
 8004e84:	689a      	ldr	r2, [r3, #8]
 8004e86:	687b      	ldr	r3, [r7, #4]
 8004e88:	681b      	ldr	r3, [r3, #0]
 8004e8a:	2101      	movs	r1, #1
 8004e8c:	438a      	bics	r2, r1
 8004e8e:	609a      	str	r2, [r3, #8]
 8004e90:	6b3b      	ldr	r3, [r7, #48]	@ 0x30
 8004e92:	62bb      	str	r3, [r7, #40]	@ 0x28
 8004e94:	6abb      	ldr	r3, [r7, #40]	@ 0x28
 8004e96:	f383 8810 	msr	PRIMASK, r3
 8004e9a:	46c0      	nop			@ (mov r8, r8)
 8004e9c:	687b      	ldr	r3, [r7, #4]
 8004e9e:	6e1b      	ldr	r3, [r3, #96]	@ 0x60
 8004ea0:	2b01      	cmp	r3, #1
 8004ea2:	d118      	bne.n	8004ed6 <UART_EndRxTransfer+0xa6>
 8004ea4:	f3ef 8310 	mrs	r3, PRIMASK
 8004ea8:	60bb      	str	r3, [r7, #8]
 8004eaa:	68bb      	ldr	r3, [r7, #8]
 8004eac:	62fb      	str	r3, [r7, #44]	@ 0x2c
 8004eae:	2301      	movs	r3, #1
 8004eb0:	60fb      	str	r3, [r7, #12]
 8004eb2:	68fb      	ldr	r3, [r7, #12]
 8004eb4:	f383 8810 	msr	PRIMASK, r3
 8004eb8:	46c0      	nop			@ (mov r8, r8)
 8004eba:	687b      	ldr	r3, [r7, #4]
 8004ebc:	681b      	ldr	r3, [r3, #0]
 8004ebe:	681a      	ldr	r2, [r3, #0]
 8004ec0:	687b      	ldr	r3, [r7, #4]
 8004ec2:	681b      	ldr	r3, [r3, #0]
 8004ec4:	2110      	movs	r1, #16
 8004ec6:	438a      	bics	r2, r1
 8004ec8:	601a      	str	r2, [r3, #0]
 8004eca:	6afb      	ldr	r3, [r7, #44]	@ 0x2c
 8004ecc:	613b      	str	r3, [r7, #16]
 8004ece:	693b      	ldr	r3, [r7, #16]
 8004ed0:	f383 8810 	msr	PRIMASK, r3
 8004ed4:	46c0      	nop			@ (mov r8, r8)
 8004ed6:	687b      	ldr	r3, [r7, #4]
 8004ed8:	2280      	movs	r2, #128	@ 0x80
 8004eda:	2120      	movs	r1, #32
 8004edc:	5099      	str	r1, [r3, r2]
 8004ede:	687b      	ldr	r3, [r7, #4]
 8004ee0:	2200      	movs	r2, #0
 8004ee2:	661a      	str	r2, [r3, #96]	@ 0x60
 8004ee4:	687b      	ldr	r3, [r7, #4]
 8004ee6:	2200      	movs	r2, #0
 8004ee8:	669a      	str	r2, [r3, #104]	@ 0x68
 8004eea:	46c0      	nop			@ (mov r8, r8)
 8004eec:	46bd      	mov	sp, r7
 8004eee:	b00e      	add	sp, #56	@ 0x38
 8004ef0:	bd80      	pop	{r7, pc}
 8004ef2:	46c0      	nop			@ (mov r8, r8)
 8004ef4:	fffffedf 	.word	0xfffffedf

08004ef8 <UART_DMATransmitCplt>:
 8004ef8:	b580      	push	{r7, lr}
 8004efa:	b08c      	sub	sp, #48	@ 0x30
 8004efc:	af00      	add	r7, sp, #0
 8004efe:	6078      	str	r0, [r7, #4]
 8004f00:	687b      	ldr	r3, [r7, #4]
 8004f02:	6a9b      	ldr	r3, [r3, #40]	@ 0x28
 8004f04:	62fb      	str	r3, [r7, #44]	@ 0x2c
 8004f06:	687b      	ldr	r3, [r7, #4]
 8004f08:	681b      	ldr	r3, [r3, #0]
 8004f0a:	681b      	ldr	r3, [r3, #0]
 8004f0c:	2220      	movs	r2, #32
 8004f0e:	4013      	ands	r3, r2
 8004f10:	d135      	bne.n	8004f7e <UART_DMATransmitCplt+0x86>
 8004f12:	6afb      	ldr	r3, [r7, #44]	@ 0x2c
 8004f14:	2252      	movs	r2, #82	@ 0x52
 8004f16:	2100      	movs	r1, #0
 8004f18:	5299      	strh	r1, [r3, r2]
 8004f1a:	f3ef 8310 	mrs	r3, PRIMASK
 8004f1e:	60fb      	str	r3, [r7, #12]
 8004f20:	68fb      	ldr	r3, [r7, #12]
 8004f22:	62bb      	str	r3, [r7, #40]	@ 0x28
 8004f24:	2301      	movs	r3, #1
 8004f26:	613b      	str	r3, [r7, #16]
 8004f28:	693b      	ldr	r3, [r7, #16]
 8004f2a:	f383 8810 	msr	PRIMASK, r3
 8004f2e:	46c0      	nop			@ (mov r8, r8)
 8004f30:	6afb      	ldr	r3, [r7, #44]	@ 0x2c
 8004f32:	681b      	ldr	r3, [r3, #0]
 8004f34:	689a      	ldr	r2, [r3, #8]
 8004f36:	6afb      	ldr	r3, [r7, #44]	@ 0x2c
 8004f38:	681b      	ldr	r3, [r3, #0]
 8004f3a:	2180      	movs	r1, #128	@ 0x80
 8004f3c:	438a      	bics	r2, r1
 8004f3e:	609a      	str	r2, [r3, #8]
 8004f40:	6abb      	ldr	r3, [r7, #40]	@ 0x28
 8004f42:	617b      	str	r3, [r7, #20]
 8004f44:	697b      	ldr	r3, [r7, #20]
 8004f46:	f383 8810 	msr	PRIMASK, r3
 8004f4a:	46c0      	nop			@ (mov r8, r8)
 8004f4c:	f3ef 8310 	mrs	r3, PRIMASK
 8004f50:	61bb      	str	r3, [r7, #24]
 8004f52:	69bb      	ldr	r3, [r7, #24]
 8004f54:	627b      	str	r3, [r7, #36]	@ 0x24
 8004f56:	2301      	movs	r3, #1
 8004f58:	61fb      	str	r3, [r7, #28]
 8004f5a:	69fb      	ldr	r3, [r7, #28]
 8004f5c:	f383 8810 	msr	PRIMASK, r3
 8004f60:	46c0      	nop			@ (mov r8, r8)
 8004f62:	6afb      	ldr	r3, [r7, #44]	@ 0x2c
 8004f64:	681b      	ldr	r3, [r3, #0]
 8004f66:	681a      	ldr	r2, [r3, #0]
 8004f68:	6afb      	ldr	r3, [r7, #44]	@ 0x2c
 8004f6a:	681b      	ldr	r3, [r3, #0]
 8004f6c:	2140      	movs	r1, #64	@ 0x40
 8004f6e:	430a      	orrs	r2, r1
 8004f70:	601a      	str	r2, [r3, #0]
 8004f72:	6a7b      	ldr	r3, [r7, #36]	@ 0x24
 8004f74:	623b      	str	r3, [r7, #32]
 8004f76:	6a3b      	ldr	r3, [r7, #32]
 8004f78:	f383 8810 	msr	PRIMASK, r3
 8004f7c:	e004      	b.n	8004f88 <UART_DMATransmitCplt+0x90>
 8004f7e:	6afb      	ldr	r3, [r7, #44]	@ 0x2c
 8004f80:	0018      	movs	r0, r3
 8004f82:	f7ff f9e9 	bl	8004358 <HAL_UART_TxCpltCallback>
 8004f86:	46c0      	nop			@ (mov r8, r8)
 8004f88:	46c0      	nop			@ (mov r8, r8)
 8004f8a:	46bd      	mov	sp, r7
 8004f8c:	b00c      	add	sp, #48	@ 0x30
 8004f8e:	bd80      	pop	{r7, pc}

08004f90 <UART_DMATxHalfCplt>:
 8004f90:	b580      	push	{r7, lr}
 8004f92:	b084      	sub	sp, #16
 8004f94:	af00      	add	r7, sp, #0
 8004f96:	6078      	str	r0, [r7, #4]
 8004f98:	687b      	ldr	r3, [r7, #4]
 8004f9a:	6a9b      	ldr	r3, [r3, #40]	@ 0x28
 8004f9c:	60fb      	str	r3, [r7, #12]
 8004f9e:	68fb      	ldr	r3, [r7, #12]
 8004fa0:	0018      	movs	r0, r3
 8004fa2:	f7ff f9e1 	bl	8004368 <HAL_UART_TxHalfCpltCallback>
 8004fa6:	46c0      	nop			@ (mov r8, r8)
 8004fa8:	46bd      	mov	sp, r7
 8004faa:	b004      	add	sp, #16
 8004fac:	bd80      	pop	{r7, pc}
	...

08004fb0 <UART_DMAReceiveCplt>:
 8004fb0:	b580      	push	{r7, lr}
 8004fb2:	b094      	sub	sp, #80	@ 0x50
 8004fb4:	af00      	add	r7, sp, #0
 8004fb6:	6078      	str	r0, [r7, #4]
 8004fb8:	687b      	ldr	r3, [r7, #4]
 8004fba:	6a9b      	ldr	r3, [r3, #40]	@ 0x28
 8004fbc:	64fb      	str	r3, [r7, #76]	@ 0x4c
 8004fbe:	687b      	ldr	r3, [r7, #4]
 8004fc0:	681b      	ldr	r3, [r3, #0]
 8004fc2:	681b      	ldr	r3, [r3, #0]
 8004fc4:	2220      	movs	r2, #32
 8004fc6:	4013      	ands	r3, r2
 8004fc8:	d16f      	bne.n	80050aa <UART_DMAReceiveCplt+0xfa>
 8004fca:	6cfb      	ldr	r3, [r7, #76]	@ 0x4c
 8004fcc:	225a      	movs	r2, #90	@ 0x5a
 8004fce:	2100      	movs	r1, #0
 8004fd0:	5299      	strh	r1, [r3, r2]
 8004fd2:	f3ef 8310 	mrs	r3, PRIMASK
 8004fd6:	617b      	str	r3, [r7, #20]
 8004fd8:	697b      	ldr	r3, [r7, #20]
 8004fda:	64bb      	str	r3, [r7, #72]	@ 0x48
 8004fdc:	2301      	movs	r3, #1
 8004fde:	61bb      	str	r3, [r7, #24]
 8004fe0:	69bb      	ldr	r3, [r7, #24]
 8004fe2:	f383 8810 	msr	PRIMASK, r3
 8004fe6:	46c0      	nop			@ (mov r8, r8)
 8004fe8:	6cfb      	ldr	r3, [r7, #76]	@ 0x4c
 8004fea:	681b      	ldr	r3, [r3, #0]
 8004fec:	681a      	ldr	r2, [r3, #0]
 8004fee:	6cfb      	ldr	r3, [r7, #76]	@ 0x4c
 8004ff0:	681b      	ldr	r3, [r3, #0]
 8004ff2:	4948      	ldr	r1, [pc, #288]	@ (8005114 <UART_DMAReceiveCplt+0x164>)
 8004ff4:	400a      	ands	r2, r1
 8004ff6:	601a      	str	r2, [r3, #0]
 8004ff8:	6cbb      	ldr	r3, [r7, #72]	@ 0x48
 8004ffa:	61fb      	str	r3, [r7, #28]
 8004ffc:	69fb      	ldr	r3, [r7, #28]
 8004ffe:	f383 8810 	msr	PRIMASK, r3
 8005002:	46c0      	nop			@ (mov r8, r8)
 8005004:	f3ef 8310 	mrs	r3, PRIMASK
 8005008:	623b      	str	r3, [r7, #32]
 800500a:	6a3b      	ldr	r3, [r7, #32]
 800500c:	647b      	str	r3, [r7, #68]	@ 0x44
 800500e:	2301      	movs	r3, #1
 8005010:	627b      	str	r3, [r7, #36]	@ 0x24
 8005012:	6a7b      	ldr	r3, [r7, #36]	@ 0x24
 8005014:	f383 8810 	msr	PRIMASK, r3
 8005018:	46c0      	nop			@ (mov r8, r8)
 800501a:	6cfb      	ldr	r3, [r7, #76]	@ 0x4c
 800501c:	681b      	ldr	r3, [r3, #0]
 800501e:	689a      	ldr	r2, [r3, #8]
 8005020:	6cfb      	ldr	r3, [r7, #76]	@ 0x4c
 8005022:	681b      	ldr	r3, [r3, #0]
 8005024:	2101      	movs	r1, #1
 8005026:	438a      	bics	r2, r1
 8005028:	609a      	str	r2, [r3, #8]
 800502a:	6c7b      	ldr	r3, [r7, #68]	@ 0x44
 800502c:	62bb      	str	r3, [r7, #40]	@ 0x28
 800502e:	6abb      	ldr	r3, [r7, #40]	@ 0x28
 8005030:	f383 8810 	msr	PRIMASK, r3
 8005034:	46c0      	nop			@ (mov r8, r8)
 8005036:	f3ef 8310 	mrs	r3, PRIMASK
 800503a:	62fb      	str	r3, [r7, #44]	@ 0x2c
 800503c:	6afb      	ldr	r3, [r7, #44]	@ 0x2c
 800503e:	643b      	str	r3, [r7, #64]	@ 0x40
 8005040:	2301      	movs	r3, #1
 8005042:	633b      	str	r3, [r7, #48]	@ 0x30
 8005044:	6b3b      	ldr	r3, [r7, #48]	@ 0x30
 8005046:	f383 8810 	msr	PRIMASK, r3
 800504a:	46c0      	nop			@ (mov r8, r8)
 800504c:	6cfb      	ldr	r3, [r7, #76]	@ 0x4c
 800504e:	681b      	ldr	r3, [r3, #0]
 8005050:	689a      	ldr	r2, [r3, #8]
 8005052:	6cfb      	ldr	r3, [r7, #76]	@ 0x4c
 8005054:	681b      	ldr	r3, [r3, #0]
 8005056:	2140      	movs	r1, #64	@ 0x40
 8005058:	438a      	bics	r2, r1
 800505a:	609a      	str	r2, [r3, #8]
 800505c:	6c3b      	ldr	r3, [r7, #64]	@ 0x40
 800505e:	637b      	str	r3, [r7, #52]	@ 0x34
 8005060:	6b7b      	ldr	r3, [r7, #52]	@ 0x34
 8005062:	f383 8810 	msr	PRIMASK, r3
 8005066:	46c0      	nop			@ (mov r8, r8)
 8005068:	6cfb      	ldr	r3, [r7, #76]	@ 0x4c
 800506a:	2280      	movs	r2, #128	@ 0x80
 800506c:	2120      	movs	r1, #32
 800506e:	5099      	str	r1, [r3, r2]
 8005070:	6cfb      	ldr	r3, [r7, #76]	@ 0x4c
 8005072:	6e1b      	ldr	r3, [r3, #96]	@ 0x60
 8005074:	2b01      	cmp	r3, #1
 8005076:	d118      	bne.n	80050aa <UART_DMAReceiveCplt+0xfa>
 8005078:	f3ef 8310 	mrs	r3, PRIMASK
 800507c:	60bb      	str	r3, [r7, #8]
 800507e:	68bb      	ldr	r3, [r7, #8]
 8005080:	63fb      	str	r3, [r7, #60]	@ 0x3c
 8005082:	2301      	movs	r3, #1
 8005084:	60fb      	str	r3, [r7, #12]
 8005086:	68fb      	ldr	r3, [r7, #12]
 8005088:	f383 8810 	msr	PRIMASK, r3
 800508c:	46c0      	nop			@ (mov r8, r8)
 800508e:	6cfb      	ldr	r3, [r7, #76]	@ 0x4c
 8005090:	681b      	ldr	r3, [r3, #0]
 8005092:	681a      	ldr	r2, [r3, #0]
 8005094:	6cfb      	ldr	r3, [r7, #76]	@ 0x4c
 8005096:	681b      	ldr	r3, [r3, #0]
 8005098:	2110      	movs	r1, #16
 800509a:	438a      	bics	r2, r1
 800509c:	601a      	str	r2, [r3, #0]
 800509e:	6bfb      	ldr	r3, [r7, #60]	@ 0x3c
 80050a0:	613b      	str	r3, [r7, #16]
 80050a2:	693b      	ldr	r3, [r7, #16]
 80050a4:	f383 8810 	msr	PRIMASK, r3
 80050a8:	46c0      	nop			@ (mov r8, r8)
 80050aa:	6cfb      	ldr	r3, [r7, #76]	@ 0x4c
 80050ac:	2200      	movs	r2, #0
 80050ae:	665a      	str	r2, [r3, #100]	@ 0x64
 80050b0:	6cfb      	ldr	r3, [r7, #76]	@ 0x4c
 80050b2:	6e1b      	ldr	r3, [r3, #96]	@ 0x60
 80050b4:	2b01      	cmp	r3, #1
 80050b6:	d124      	bne.n	8005102 <UART_DMAReceiveCplt+0x152>
 80050b8:	6cfb      	ldr	r3, [r7, #76]	@ 0x4c
 80050ba:	225a      	movs	r2, #90	@ 0x5a
 80050bc:	2100      	movs	r1, #0
 80050be:	5299      	strh	r1, [r3, r2]
 80050c0:	687b      	ldr	r3, [r7, #4]
 80050c2:	681b      	ldr	r3, [r3, #0]
 80050c4:	685a      	ldr	r2, [r3, #4]
 80050c6:	213a      	movs	r1, #58	@ 0x3a
 80050c8:	187b      	adds	r3, r7, r1
 80050ca:	801a      	strh	r2, [r3, #0]
 80050cc:	6cfb      	ldr	r3, [r7, #76]	@ 0x4c
 80050ce:	2258      	movs	r2, #88	@ 0x58
 80050d0:	5a9b      	ldrh	r3, [r3, r2]
 80050d2:	187a      	adds	r2, r7, r1
 80050d4:	8812      	ldrh	r2, [r2, #0]
 80050d6:	429a      	cmp	r2, r3
 80050d8:	d204      	bcs.n	80050e4 <UART_DMAReceiveCplt+0x134>
 80050da:	6cfb      	ldr	r3, [r7, #76]	@ 0x4c
 80050dc:	187a      	adds	r2, r7, r1
 80050de:	215a      	movs	r1, #90	@ 0x5a
 80050e0:	8812      	ldrh	r2, [r2, #0]
 80050e2:	525a      	strh	r2, [r3, r1]
 80050e4:	6cfb      	ldr	r3, [r7, #76]	@ 0x4c
 80050e6:	2258      	movs	r2, #88	@ 0x58
 80050e8:	5a9a      	ldrh	r2, [r3, r2]
 80050ea:	6cfb      	ldr	r3, [r7, #76]	@ 0x4c
 80050ec:	215a      	movs	r1, #90	@ 0x5a
 80050ee:	5a5b      	ldrh	r3, [r3, r1]
 80050f0:	b29b      	uxth	r3, r3
 80050f2:	1ad3      	subs	r3, r2, r3
 80050f4:	b29a      	uxth	r2, r3
 80050f6:	6cfb      	ldr	r3, [r7, #76]	@ 0x4c
 80050f8:	0011      	movs	r1, r2
 80050fa:	0018      	movs	r0, r3
 80050fc:	f7fb fd3a 	bl	8000b74 <HAL_UARTEx_RxEventCallback>
 8005100:	e003      	b.n	800510a <UART_DMAReceiveCplt+0x15a>
 8005102:	6cfb      	ldr	r3, [r7, #76]	@ 0x4c
 8005104:	0018      	movs	r0, r3
 8005106:	f7ff f937 	bl	8004378 <HAL_UART_RxCpltCallback>
 800510a:	46c0      	nop			@ (mov r8, r8)
 800510c:	46bd      	mov	sp, r7
 800510e:	b014      	add	sp, #80	@ 0x50
 8005110:	bd80      	pop	{r7, pc}
 8005112:	46c0      	nop			@ (mov r8, r8)
 8005114:	fffffeff 	.word	0xfffffeff

08005118 <UART_DMARxHalfCplt>:
 8005118:	b580      	push	{r7, lr}
 800511a:	b084      	sub	sp, #16
 800511c:	af00      	add	r7, sp, #0
 800511e:	6078      	str	r0, [r7, #4]
 8005120:	687b      	ldr	r3, [r7, #4]
 8005122:	6a9b      	ldr	r3, [r3, #40]	@ 0x28
 8005124:	60fb      	str	r3, [r7, #12]
 8005126:	68fb      	ldr	r3, [r7, #12]
 8005128:	2201      	movs	r2, #1
 800512a:	665a      	str	r2, [r3, #100]	@ 0x64
 800512c:	68fb      	ldr	r3, [r7, #12]
 800512e:	6e1b      	ldr	r3, [r3, #96]	@ 0x60
 8005130:	2b01      	cmp	r3, #1
 8005132:	d128      	bne.n	8005186 <UART_DMARxHalfCplt+0x6e>
 8005134:	68fb      	ldr	r3, [r7, #12]
 8005136:	2258      	movs	r2, #88	@ 0x58
 8005138:	5a9b      	ldrh	r3, [r3, r2]
 800513a:	085b      	lsrs	r3, r3, #1
 800513c:	b299      	uxth	r1, r3
 800513e:	68fb      	ldr	r3, [r7, #12]
 8005140:	225a      	movs	r2, #90	@ 0x5a
 8005142:	5299      	strh	r1, [r3, r2]
 8005144:	687b      	ldr	r3, [r7, #4]
 8005146:	681b      	ldr	r3, [r3, #0]
 8005148:	685a      	ldr	r2, [r3, #4]
 800514a:	210a      	movs	r1, #10
 800514c:	187b      	adds	r3, r7, r1
 800514e:	801a      	strh	r2, [r3, #0]
 8005150:	68fb      	ldr	r3, [r7, #12]
 8005152:	2258      	movs	r2, #88	@ 0x58
 8005154:	5a9b      	ldrh	r3, [r3, r2]
 8005156:	187a      	adds	r2, r7, r1
 8005158:	8812      	ldrh	r2, [r2, #0]
 800515a:	429a      	cmp	r2, r3
 800515c:	d804      	bhi.n	8005168 <UART_DMARxHalfCplt+0x50>
 800515e:	68fb      	ldr	r3, [r7, #12]
 8005160:	187a      	adds	r2, r7, r1
 8005162:	215a      	movs	r1, #90	@ 0x5a
 8005164:	8812      	ldrh	r2, [r2, #0]
 8005166:	525a      	strh	r2, [r3, r1]
 8005168:	68fb      	ldr	r3, [r7, #12]
 800516a:	2258      	movs	r2, #88	@ 0x58
 800516c:	5a9a      	ldrh	r2, [r3, r2]
 800516e:	68fb      	ldr	r3, [r7, #12]
 8005170:	215a      	movs	r1, #90	@ 0x5a
 8005172:	5a5b      	ldrh	r3, [r3, r1]
 8005174:	b29b      	uxth	r3, r3
 8005176:	1ad3      	subs	r3, r2, r3
 8005178:	b29a      	uxth	r2, r3
 800517a:	68fb      	ldr	r3, [r7, #12]
 800517c:	0011      	movs	r1, r2
 800517e:	0018      	movs	r0, r3
 8005180:	f7fb fcf8 	bl	8000b74 <HAL_UARTEx_RxEventCallback>
 8005184:	e003      	b.n	800518e <UART_DMARxHalfCplt+0x76>
 8005186:	68fb      	ldr	r3, [r7, #12]
 8005188:	0018      	movs	r0, r3
 800518a:	f7ff f8fd 	bl	8004388 <HAL_UART_RxHalfCpltCallback>
 800518e:	46c0      	nop			@ (mov r8, r8)
 8005190:	46bd      	mov	sp, r7
 8005192:	b004      	add	sp, #16
 8005194:	bd80      	pop	{r7, pc}

08005196 <UART_DMAError>:
 8005196:	b580      	push	{r7, lr}
 8005198:	b086      	sub	sp, #24
 800519a:	af00      	add	r7, sp, #0
 800519c:	6078      	str	r0, [r7, #4]
 800519e:	687b      	ldr	r3, [r7, #4]
 80051a0:	6a9b      	ldr	r3, [r3, #40]	@ 0x28
 80051a2:	617b      	str	r3, [r7, #20]
 80051a4:	697b      	ldr	r3, [r7, #20]
 80051a6:	6fdb      	ldr	r3, [r3, #124]	@ 0x7c
 80051a8:	613b      	str	r3, [r7, #16]
 80051aa:	697b      	ldr	r3, [r7, #20]
 80051ac:	2280      	movs	r2, #128	@ 0x80
 80051ae:	589b      	ldr	r3, [r3, r2]
 80051b0:	60fb      	str	r3, [r7, #12]
 80051b2:	697b      	ldr	r3, [r7, #20]
 80051b4:	681b      	ldr	r3, [r3, #0]
 80051b6:	689b      	ldr	r3, [r3, #8]
 80051b8:	2280      	movs	r2, #128	@ 0x80
 80051ba:	4013      	ands	r3, r2
 80051bc:	2b80      	cmp	r3, #128	@ 0x80
 80051be:	d10a      	bne.n	80051d6 <UART_DMAError+0x40>
 80051c0:	693b      	ldr	r3, [r7, #16]
 80051c2:	2b21      	cmp	r3, #33	@ 0x21
 80051c4:	d107      	bne.n	80051d6 <UART_DMAError+0x40>
 80051c6:	697b      	ldr	r3, [r7, #20]
 80051c8:	2252      	movs	r2, #82	@ 0x52
 80051ca:	2100      	movs	r1, #0
 80051cc:	5299      	strh	r1, [r3, r2]
 80051ce:	697b      	ldr	r3, [r7, #20]
 80051d0:	0018      	movs	r0, r3
 80051d2:	f7ff fe09 	bl	8004de8 <UART_EndTxTransfer>
 80051d6:	697b      	ldr	r3, [r7, #20]
 80051d8:	681b      	ldr	r3, [r3, #0]
 80051da:	689b      	ldr	r3, [r3, #8]
 80051dc:	2240      	movs	r2, #64	@ 0x40
 80051de:	4013      	ands	r3, r2
 80051e0:	2b40      	cmp	r3, #64	@ 0x40
 80051e2:	d10a      	bne.n	80051fa <UART_DMAError+0x64>
 80051e4:	68fb      	ldr	r3, [r7, #12]
 80051e6:	2b22      	cmp	r3, #34	@ 0x22
 80051e8:	d107      	bne.n	80051fa <UART_DMAError+0x64>
 80051ea:	697b      	ldr	r3, [r7, #20]
 80051ec:	225a      	movs	r2, #90	@ 0x5a
 80051ee:	2100      	movs	r1, #0
 80051f0:	5299      	strh	r1, [r3, r2]
 80051f2:	697b      	ldr	r3, [r7, #20]
 80051f4:	0018      	movs	r0, r3
 80051f6:	f7ff fe1b 	bl	8004e30 <UART_EndRxTransfer>
 80051fa:	697b      	ldr	r3, [r7, #20]
 80051fc:	2284      	movs	r2, #132	@ 0x84
 80051fe:	589b      	ldr	r3, [r3, r2]
 8005200:	2210      	movs	r2, #16
 8005202:	431a      	orrs	r2, r3
 8005204:	697b      	ldr	r3, [r7, #20]
 8005206:	2184      	movs	r1, #132	@ 0x84
 8005208:	505a      	str	r2, [r3, r1]
 800520a:	697b      	ldr	r3, [r7, #20]
 800520c:	0018      	movs	r0, r3
 800520e:	f7fb fccd 	bl	8000bac <HAL_UART_ErrorCallback>
 8005212:	46c0      	nop			@ (mov r8, r8)
 8005214:	46bd      	mov	sp, r7
 8005216:	b006      	add	sp, #24
 8005218:	bd80      	pop	{r7, pc}

0800521a <UART_DMAAbortOnError>:
 800521a:	b580      	push	{r7, lr}
 800521c:	b084      	sub	sp, #16
 800521e:	af00      	add	r7, sp, #0
 8005220:	6078      	str	r0, [r7, #4]
 8005222:	687b      	ldr	r3, [r7, #4]
 8005224:	6a9b      	ldr	r3, [r3, #40]	@ 0x28
 8005226:	60fb      	str	r3, [r7, #12]
 8005228:	68fb      	ldr	r3, [r7, #12]
 800522a:	225a      	movs	r2, #90	@ 0x5a
 800522c:	2100      	movs	r1, #0
 800522e:	5299      	strh	r1, [r3, r2]
 8005230:	68fb      	ldr	r3, [r7, #12]
 8005232:	0018      	movs	r0, r3
 8005234:	f7fb fcba 	bl	8000bac <HAL_UART_ErrorCallback>
 8005238:	46c0      	nop			@ (mov r8, r8)
 800523a:	46bd      	mov	sp, r7
 800523c:	b004      	add	sp, #16
 800523e:	bd80      	pop	{r7, pc}

08005240 <UART_EndTransmit_IT>:
 8005240:	b580      	push	{r7, lr}
 8005242:	b086      	sub	sp, #24
 8005244:	af00      	add	r7, sp, #0
 8005246:	6078      	str	r0, [r7, #4]
 8005248:	f3ef 8310 	mrs	r3, PRIMASK
 800524c:	60bb      	str	r3, [r7, #8]
 800524e:	68bb      	ldr	r3, [r7, #8]
 8005250:	617b      	str	r3, [r7, #20]
 8005252:	2301      	movs	r3, #1
 8005254:	60fb      	str	r3, [r7, #12]
 8005256:	68fb      	ldr	r3, [r7, #12]
 8005258:	f383 8810 	msr	PRIMASK, r3
 800525c:	46c0      	nop			@ (mov r8, r8)
 800525e:	687b      	ldr	r3, [r7, #4]
 8005260:	681b      	ldr	r3, [r3, #0]
 8005262:	681a      	ldr	r2, [r3, #0]
 8005264:	687b      	ldr	r3, [r7, #4]
 8005266:	681b      	ldr	r3, [r3, #0]
 8005268:	2140      	movs	r1, #64	@ 0x40
 800526a:	438a      	bics	r2, r1
 800526c:	601a      	str	r2, [r3, #0]
 800526e:	697b      	ldr	r3, [r7, #20]
 8005270:	613b      	str	r3, [r7, #16]
 8005272:	693b      	ldr	r3, [r7, #16]
 8005274:	f383 8810 	msr	PRIMASK, r3
 8005278:	46c0      	nop			@ (mov r8, r8)
 800527a:	687b      	ldr	r3, [r7, #4]
 800527c:	2220      	movs	r2, #32
 800527e:	67da      	str	r2, [r3, #124]	@ 0x7c
 8005280:	687b      	ldr	r3, [r7, #4]
 8005282:	2200      	movs	r2, #0
 8005284:	66da      	str	r2, [r3, #108]	@ 0x6c
 8005286:	687b      	ldr	r3, [r7, #4]
 8005288:	0018      	movs	r0, r3
 800528a:	f7ff f865 	bl	8004358 <HAL_UART_TxCpltCallback>
 800528e:	46c0      	nop			@ (mov r8, r8)
 8005290:	46bd      	mov	sp, r7
 8005292:	b006      	add	sp, #24
 8005294:	bd80      	pop	{r7, pc}

08005296 <HAL_UARTEx_WakeupCallback>:
 8005296:	b580      	push	{r7, lr}
 8005298:	b082      	sub	sp, #8
 800529a:	af00      	add	r7, sp, #0
 800529c:	6078      	str	r0, [r7, #4]
 800529e:	46c0      	nop			@ (mov r8, r8)
 80052a0:	46bd      	mov	sp, r7
 80052a2:	b002      	add	sp, #8
 80052a4:	bd80      	pop	{r7, pc}

080052a6 <HAL_UARTEx_ReceiveToIdle_DMA>:
 80052a6:	b5b0      	push	{r4, r5, r7, lr}
 80052a8:	b08a      	sub	sp, #40	@ 0x28
 80052aa:	af00      	add	r7, sp, #0
 80052ac:	60f8      	str	r0, [r7, #12]
 80052ae:	60b9      	str	r1, [r7, #8]
 80052b0:	1dbb      	adds	r3, r7, #6
 80052b2:	801a      	strh	r2, [r3, #0]
 80052b4:	68fb      	ldr	r3, [r7, #12]
 80052b6:	2280      	movs	r2, #128	@ 0x80
 80052b8:	589b      	ldr	r3, [r3, r2]
 80052ba:	2b20      	cmp	r3, #32
 80052bc:	d156      	bne.n	800536c <HAL_UARTEx_ReceiveToIdle_DMA+0xc6>
 80052be:	68bb      	ldr	r3, [r7, #8]
 80052c0:	2b00      	cmp	r3, #0
 80052c2:	d003      	beq.n	80052cc <HAL_UARTEx_ReceiveToIdle_DMA+0x26>
 80052c4:	1dbb      	adds	r3, r7, #6
 80052c6:	881b      	ldrh	r3, [r3, #0]
 80052c8:	2b00      	cmp	r3, #0
 80052ca:	d101      	bne.n	80052d0 <HAL_UARTEx_ReceiveToIdle_DMA+0x2a>
 80052cc:	2301      	movs	r3, #1
 80052ce:	e04e      	b.n	800536e <HAL_UARTEx_ReceiveToIdle_DMA+0xc8>
 80052d0:	68fb      	ldr	r3, [r7, #12]
 80052d2:	689a      	ldr	r2, [r3, #8]
 80052d4:	2380      	movs	r3, #128	@ 0x80
 80052d6:	015b      	lsls	r3, r3, #5
 80052d8:	429a      	cmp	r2, r3
 80052da:	d109      	bne.n	80052f0 <HAL_UARTEx_ReceiveToIdle_DMA+0x4a>
 80052dc:	68fb      	ldr	r3, [r7, #12]
 80052de:	691b      	ldr	r3, [r3, #16]
 80052e0:	2b00      	cmp	r3, #0
 80052e2:	d105      	bne.n	80052f0 <HAL_UARTEx_ReceiveToIdle_DMA+0x4a>
 80052e4:	68bb      	ldr	r3, [r7, #8]
 80052e6:	2201      	movs	r2, #1
 80052e8:	4013      	ands	r3, r2
 80052ea:	d001      	beq.n	80052f0 <HAL_UARTEx_ReceiveToIdle_DMA+0x4a>
 80052ec:	2301      	movs	r3, #1
 80052ee:	e03e      	b.n	800536e <HAL_UARTEx_ReceiveToIdle_DMA+0xc8>
 80052f0:	68fb      	ldr	r3, [r7, #12]
 80052f2:	2201      	movs	r2, #1
 80052f4:	661a      	str	r2, [r3, #96]	@ 0x60
 80052f6:	68fb      	ldr	r3, [r7, #12]
 80052f8:	2200      	movs	r2, #0
 80052fa:	665a      	str	r2, [r3, #100]	@ 0x64
 80052fc:	2527      	movs	r5, #39	@ 0x27
 80052fe:	197c      	adds	r4, r7, r5
 8005300:	1dbb      	adds	r3, r7, #6
 8005302:	881a      	ldrh	r2, [r3, #0]
 8005304:	68b9      	ldr	r1, [r7, #8]
 8005306:	68fb      	ldr	r3, [r7, #12]
 8005308:	0018      	movs	r0, r3
 800530a:	f7ff fccd 	bl	8004ca8 <UART_Start_Receive_DMA>
 800530e:	0003      	movs	r3, r0
 8005310:	7023      	strb	r3, [r4, #0]
 8005312:	197b      	adds	r3, r7, r5
 8005314:	781b      	ldrb	r3, [r3, #0]
 8005316:	2b00      	cmp	r3, #0
 8005318:	d124      	bne.n	8005364 <HAL_UARTEx_ReceiveToIdle_DMA+0xbe>
 800531a:	68fb      	ldr	r3, [r7, #12]
 800531c:	6e1b      	ldr	r3, [r3, #96]	@ 0x60
 800531e:	2b01      	cmp	r3, #1
 8005320:	d11c      	bne.n	800535c <HAL_UARTEx_ReceiveToIdle_DMA+0xb6>
 8005322:	68fb      	ldr	r3, [r7, #12]
 8005324:	681b      	ldr	r3, [r3, #0]
 8005326:	2210      	movs	r2, #16
 8005328:	621a      	str	r2, [r3, #32]
 800532a:	f3ef 8310 	mrs	r3, PRIMASK
 800532e:	617b      	str	r3, [r7, #20]
 8005330:	697b      	ldr	r3, [r7, #20]
 8005332:	623b      	str	r3, [r7, #32]
 8005334:	2301      	movs	r3, #1
 8005336:	61bb      	str	r3, [r7, #24]
 8005338:	69bb      	ldr	r3, [r7, #24]
 800533a:	f383 8810 	msr	PRIMASK, r3
 800533e:	46c0      	nop			@ (mov r8, r8)
 8005340:	68fb      	ldr	r3, [r7, #12]
 8005342:	681b      	ldr	r3, [r3, #0]
 8005344:	681a      	ldr	r2, [r3, #0]
 8005346:	68fb      	ldr	r3, [r7, #12]
 8005348:	681b      	ldr	r3, [r3, #0]
 800534a:	2110      	movs	r1, #16
 800534c:	430a      	orrs	r2, r1
 800534e:	601a      	str	r2, [r3, #0]
 8005350:	6a3b      	ldr	r3, [r7, #32]
 8005352:	61fb      	str	r3, [r7, #28]
 8005354:	69fb      	ldr	r3, [r7, #28]
 8005356:	f383 8810 	msr	PRIMASK, r3
 800535a:	e003      	b.n	8005364 <HAL_UARTEx_ReceiveToIdle_DMA+0xbe>
 800535c:	2327      	movs	r3, #39	@ 0x27
 800535e:	18fb      	adds	r3, r7, r3
 8005360:	2201      	movs	r2, #1
 8005362:	701a      	strb	r2, [r3, #0]
 8005364:	2327      	movs	r3, #39	@ 0x27
 8005366:	18fb      	adds	r3, r7, r3
 8005368:	781b      	ldrb	r3, [r3, #0]
 800536a:	e000      	b.n	800536e <HAL_UARTEx_ReceiveToIdle_DMA+0xc8>
 800536c:	2302      	movs	r3, #2
 800536e:	0018      	movs	r0, r3
 8005370:	46bd      	mov	sp, r7
 8005372:	b00a      	add	sp, #40	@ 0x28
 8005374:	bdb0      	pop	{r4, r5, r7, pc}

08005376 <ATC_Malloc>:
void              ATC_TempCallback(const char *str);

/***********************************************************************************************************/

void* ATC_Malloc(size_t size)
{
 8005376:	b580      	push	{r7, lr}
 8005378:	b084      	sub	sp, #16
 800537a:	af00      	add	r7, sp, #0
 800537c:	6078      	str	r0, [r7, #4]
  void *ptr = NULL;
 800537e:	2300      	movs	r3, #0
 8005380:	60fb      	str	r3, [r7, #12]
#if ATC_RTOS == ATC_RTOS_DISABLE
  ptr = malloc(size);
 8005382:	687b      	ldr	r3, [r7, #4]
 8005384:	0018      	movs	r0, r3
 8005386:	f000 fbbd 	bl	8005b04 <malloc>
 800538a:	0003      	movs	r3, r0
 800538c:	60fb      	str	r3, [r7, #12]
#elif (ATC_RTOS == ATC_RTOS_CMSIS_V1) || (ATC_RTOS == ATC_RTOS_CMSIS_V2)
  ptr = pvPortMalloc(size);
#elif ATC_RTOS == ATC_RTOS_THREADX
  ??
#endif
  return ptr;
 800538e:	68fb      	ldr	r3, [r7, #12]
}
 8005390:	0018      	movs	r0, r3
 8005392:	46bd      	mov	sp, r7
 8005394:	b004      	add	sp, #16
 8005396:	bd80      	pop	{r7, pc}

08005398 <ATC_Free>:

/***********************************************************************************************************/

void ATC_Free(void** ptr)
{
 8005398:	b580      	push	{r7, lr}
 800539a:	b082      	sub	sp, #8
 800539c:	af00      	add	r7, sp, #0
 800539e:	6078      	str	r0, [r7, #4]
  if (ptr != NULL && *ptr != NULL)
 80053a0:	687b      	ldr	r3, [r7, #4]
 80053a2:	2b00      	cmp	r3, #0
 80053a4:	d00b      	beq.n	80053be <ATC_Free+0x26>
 80053a6:	687b      	ldr	r3, [r7, #4]
 80053a8:	681b      	ldr	r3, [r3, #0]
 80053aa:	2b00      	cmp	r3, #0
 80053ac:	d007      	beq.n	80053be <ATC_Free+0x26>
  {
#if ATC_RTOS == ATC_RTOS_DISABLE
    free(*ptr);
 80053ae:	687b      	ldr	r3, [r7, #4]
 80053b0:	681b      	ldr	r3, [r3, #0]
 80053b2:	0018      	movs	r0, r3
 80053b4:	f000 fbb0 	bl	8005b18 <free>
#elif (ATC_RTOS == ATC_RTOS_CMSIS_V1) || (ATC_RTOS == ATC_RTOS_CMSIS_V2)
    vPortFree(*ptr);
#elif ATC_RTOS == ATC_RTOS_THREADX
    ??
#endif
     *ptr = NULL;
 80053b8:	687b      	ldr	r3, [r7, #4]
 80053ba:	2200      	movs	r2, #0
 80053bc:	601a      	str	r2, [r3, #0]
  }
}
 80053be:	46c0      	nop			@ (mov r8, r8)
 80053c0:	46bd      	mov	sp, r7
 80053c2:	b002      	add	sp, #8
 80053c4:	bd80      	pop	{r7, pc}

080053c6 <ATC_RxFlush>:

/***********************************************************************************************************/

void ATC_RxFlush(ATC_HandleTypeDef* hAtc)
{
 80053c6:	b580      	push	{r7, lr}
 80053c8:	b082      	sub	sp, #8
 80053ca:	af00      	add	r7, sp, #0
 80053cc:	6078      	str	r0, [r7, #4]
  hAtc->RxIndex = 0;
 80053ce:	687b      	ldr	r3, [r7, #4]
 80053d0:	2200      	movs	r2, #0
 80053d2:	831a      	strh	r2, [r3, #24]
  memset(hAtc->pReadBuff, 0, hAtc->Size);
 80053d4:	687b      	ldr	r3, [r7, #4]
 80053d6:	6a58      	ldr	r0, [r3, #36]	@ 0x24
 80053d8:	687b      	ldr	r3, [r7, #4]
 80053da:	8a9b      	ldrh	r3, [r3, #20]
 80053dc:	001a      	movs	r2, r3
 80053de:	2100      	movs	r1, #0
 80053e0:	f000 fc8c 	bl	8005cfc <memset>
}
 80053e4:	46c0      	nop			@ (mov r8, r8)
 80053e6:	46bd      	mov	sp, r7
 80053e8:	b002      	add	sp, #8
 80053ea:	bd80      	pop	{r7, pc}

080053ec <ATC_TxRaw>:

/***********************************************************************************************************/

bool ATC_TxRaw(ATC_HandleTypeDef* hAtc, const uint8_t* Data, uint16_t Len)
{
 80053ec:	b590      	push	{r4, r7, lr}
 80053ee:	b087      	sub	sp, #28
 80053f0:	af00      	add	r7, sp, #0
 80053f2:	60f8      	str	r0, [r7, #12]
 80053f4:	60b9      	str	r1, [r7, #8]
 80053f6:	1dbb      	adds	r3, r7, #6
 80053f8:	801a      	strh	r2, [r3, #0]
  bool answer = false;
 80053fa:	2417      	movs	r4, #23
 80053fc:	193b      	adds	r3, r7, r4
 80053fe:	2200      	movs	r2, #0
 8005400:	701a      	strb	r2, [r3, #0]
    {
      dprintf("%c", Data[i]);
    }
    dprintf("\r\n");
#endif
    hAtc->TxLen = Len;
 8005402:	68fb      	ldr	r3, [r7, #12]
 8005404:	1dba      	adds	r2, r7, #6
 8005406:	8812      	ldrh	r2, [r2, #0]
 8005408:	835a      	strh	r2, [r3, #26]
    if (HAL_UART_Transmit_DMA(hAtc->hUart, Data, Len) != HAL_OK)
 800540a:	68fb      	ldr	r3, [r7, #12]
 800540c:	6818      	ldr	r0, [r3, #0]
 800540e:	1dbb      	adds	r3, r7, #6
 8005410:	881a      	ldrh	r2, [r3, #0]
 8005412:	68bb      	ldr	r3, [r7, #8]
 8005414:	0019      	movs	r1, r3
 8005416:	f7fe fafb 	bl	8003a10 <HAL_UART_Transmit_DMA>
 800541a:	1e03      	subs	r3, r0, #0
 800541c:	d103      	bne.n	8005426 <ATC_TxRaw+0x3a>
    {
      break;
    }
    answer = true;
 800541e:	193b      	adds	r3, r7, r4
 8005420:	2201      	movs	r2, #1
 8005422:	701a      	strb	r2, [r3, #0]
 8005424:	e000      	b.n	8005428 <ATC_TxRaw+0x3c>
      break;
 8005426:	46c0      	nop			@ (mov r8, r8)

  } while (0);

  return answer;
 8005428:	2317      	movs	r3, #23
 800542a:	18fb      	adds	r3, r7, r3
 800542c:	781b      	ldrb	r3, [r3, #0]
}
 800542e:	0018      	movs	r0, r3
 8005430:	46bd      	mov	sp, r7
 8005432:	b007      	add	sp, #28
 8005434:	bd90      	pop	{r4, r7, pc}

08005436 <ATC_TxBusy>:

/***********************************************************************************************************/

bool ATC_TxBusy(ATC_HandleTypeDef* hAtc)
{
 8005436:	b580      	push	{r7, lr}
 8005438:	b082      	sub	sp, #8
 800543a:	af00      	add	r7, sp, #0
 800543c:	6078      	str	r0, [r7, #4]
  if ((HAL_UART_GetState(hAtc->hUart) == HAL_UART_STATE_BUSY_TX) || (HAL_UART_GetState(hAtc->hUart) == HAL_UART_STATE_BUSY_TX_RX))
 800543e:	687b      	ldr	r3, [r7, #4]
 8005440:	681b      	ldr	r3, [r3, #0]
 8005442:	0018      	movs	r0, r3
 8005444:	f7fe ffa8 	bl	8004398 <HAL_UART_GetState>
 8005448:	0003      	movs	r3, r0
 800544a:	2b21      	cmp	r3, #33	@ 0x21
 800544c:	d007      	beq.n	800545e <ATC_TxBusy+0x28>
 800544e:	687b      	ldr	r3, [r7, #4]
 8005450:	681b      	ldr	r3, [r3, #0]
 8005452:	0018      	movs	r0, r3
 8005454:	f7fe ffa0 	bl	8004398 <HAL_UART_GetState>
 8005458:	0003      	movs	r3, r0
 800545a:	2b23      	cmp	r3, #35	@ 0x23
 800545c:	d101      	bne.n	8005462 <ATC_TxBusy+0x2c>
  {
    return true;
 800545e:	2301      	movs	r3, #1
 8005460:	e000      	b.n	8005464 <ATC_TxBusy+0x2e>
  }
  else
  {
    return false;
 8005462:	2300      	movs	r3, #0
  }
}
 8005464:	0018      	movs	r0, r3
 8005466:	46bd      	mov	sp, r7
 8005468:	b002      	add	sp, #8
 800546a:	bd80      	pop	{r7, pc}

0800546c <ATC_TxWait>:

/***********************************************************************************************************/

bool ATC_TxWait(ATC_HandleTypeDef* hAtc, uint32_t Timeout)
{
 800546c:	b580      	push	{r7, lr}
 800546e:	b084      	sub	sp, #16
 8005470:	af00      	add	r7, sp, #0
 8005472:	6078      	str	r0, [r7, #4]
 8005474:	6039      	str	r1, [r7, #0]
  bool answer = false;
 8005476:	230f      	movs	r3, #15
 8005478:	18fb      	adds	r3, r7, r3
 800547a:	2200      	movs	r2, #0
 800547c:	701a      	strb	r2, [r3, #0]
  uint32_t start_time = HAL_GetTick();
 800547e:	f7fb ff1b 	bl	80012b8 <HAL_GetTick>
 8005482:	0003      	movs	r3, r0
 8005484:	60bb      	str	r3, [r7, #8]
  while (1)
  {
    ATC_Delay(1);
 8005486:	2001      	movs	r0, #1
 8005488:	f000 fb2f 	bl	8005aea <ATC_Delay>
    if ((HAL_UART_GetState(hAtc->hUart) == HAL_UART_STATE_BUSY_RX) || (HAL_UART_GetState(hAtc->hUart) == HAL_UART_STATE_READY))
 800548c:	687b      	ldr	r3, [r7, #4]
 800548e:	681b      	ldr	r3, [r3, #0]
 8005490:	0018      	movs	r0, r3
 8005492:	f7fe ff81 	bl	8004398 <HAL_UART_GetState>
 8005496:	0003      	movs	r3, r0
 8005498:	2b22      	cmp	r3, #34	@ 0x22
 800549a:	d007      	beq.n	80054ac <ATC_TxWait+0x40>
 800549c:	687b      	ldr	r3, [r7, #4]
 800549e:	681b      	ldr	r3, [r3, #0]
 80054a0:	0018      	movs	r0, r3
 80054a2:	f7fe ff79 	bl	8004398 <HAL_UART_GetState>
 80054a6:	0003      	movs	r3, r0
 80054a8:	2b20      	cmp	r3, #32
 80054aa:	d104      	bne.n	80054b6 <ATC_TxWait+0x4a>
    {
      answer = true;
 80054ac:	230f      	movs	r3, #15
 80054ae:	18fb      	adds	r3, r7, r3
 80054b0:	2201      	movs	r2, #1
 80054b2:	701a      	strb	r2, [r3, #0]
      break;
 80054b4:	e01c      	b.n	80054f0 <ATC_TxWait+0x84>
    }
    if ((HAL_UART_GetState(hAtc->hUart) == HAL_UART_STATE_ERROR) || (HAL_UART_GetState(hAtc->hUart) == HAL_UART_STATE_TIMEOUT))
 80054b6:	687b      	ldr	r3, [r7, #4]
 80054b8:	681b      	ldr	r3, [r3, #0]
 80054ba:	0018      	movs	r0, r3
 80054bc:	f7fe ff6c 	bl	8004398 <HAL_UART_GetState>
 80054c0:	0003      	movs	r3, r0
 80054c2:	2be0      	cmp	r3, #224	@ 0xe0
 80054c4:	d014      	beq.n	80054f0 <ATC_TxWait+0x84>
 80054c6:	687b      	ldr	r3, [r7, #4]
 80054c8:	681b      	ldr	r3, [r3, #0]
 80054ca:	0018      	movs	r0, r3
 80054cc:	f7fe ff64 	bl	8004398 <HAL_UART_GetState>
 80054d0:	0003      	movs	r3, r0
 80054d2:	2ba0      	cmp	r3, #160	@ 0xa0
 80054d4:	d00c      	beq.n	80054f0 <ATC_TxWait+0x84>
    {
      break;
    }
    if (HAL_GetTick() - start_time >= Timeout)
 80054d6:	f7fb feef 	bl	80012b8 <HAL_GetTick>
 80054da:	0002      	movs	r2, r0
 80054dc:	68bb      	ldr	r3, [r7, #8]
 80054de:	1ad3      	subs	r3, r2, r3
 80054e0:	683a      	ldr	r2, [r7, #0]
 80054e2:	429a      	cmp	r2, r3
 80054e4:	d8cf      	bhi.n	8005486 <ATC_TxWait+0x1a>
    {
      HAL_UART_AbortTransmit(hAtc->hUart);
 80054e6:	687b      	ldr	r3, [r7, #4]
 80054e8:	681b      	ldr	r3, [r3, #0]
 80054ea:	0018      	movs	r0, r3
 80054ec:	f7fe fb20 	bl	8003b30 <HAL_UART_AbortTransmit>
      break;
    }
  }

  return answer;
 80054f0:	230f      	movs	r3, #15
 80054f2:	18fb      	adds	r3, r7, r3
 80054f4:	781b      	ldrb	r3, [r3, #0]
}
 80054f6:	0018      	movs	r0, r3
 80054f8:	46bd      	mov	sp, r7
 80054fa:	b004      	add	sp, #16
 80054fc:	bd80      	pop	{r7, pc}

080054fe <ATC_CheckResponse>:
}

/***********************************************************************************************************/

uint8_t ATC_CheckResponse(ATC_HandleTypeDef* hAtc, char** ppFound)
{
 80054fe:	b580      	push	{r7, lr}
 8005500:	b084      	sub	sp, #16
 8005502:	af00      	add	r7, sp, #0
 8005504:	6078      	str	r0, [r7, #4]
 8005506:	6039      	str	r1, [r7, #0]
  uint8_t index = 0;
 8005508:	230f      	movs	r3, #15
 800550a:	18fb      	adds	r3, r7, r3
 800550c:	2200      	movs	r2, #0
 800550e:	701a      	strb	r2, [r3, #0]
  if (hAtc->RxIndex > 0)
 8005510:	687b      	ldr	r3, [r7, #4]
 8005512:	8b1b      	ldrh	r3, [r3, #24]
 8005514:	2b00      	cmp	r3, #0
 8005516:	d031      	beq.n	800557c <ATC_CheckResponse+0x7e>
  {
    for (uint16_t i = 0; i < hAtc->RespCount; i++)
 8005518:	230c      	movs	r3, #12
 800551a:	18fb      	adds	r3, r7, r3
 800551c:	2200      	movs	r2, #0
 800551e:	801a      	strh	r2, [r3, #0]
 8005520:	e025      	b.n	800556e <ATC_CheckResponse+0x70>
    {
      char *found = strstr((char*)hAtc->pReadBuff, (char*)hAtc->ppResp[i]);
 8005522:	687b      	ldr	r3, [r7, #4]
 8005524:	6a58      	ldr	r0, [r3, #36]	@ 0x24
 8005526:	230c      	movs	r3, #12
 8005528:	18fb      	adds	r3, r7, r3
 800552a:	881a      	ldrh	r2, [r3, #0]
 800552c:	687b      	ldr	r3, [r7, #4]
 800552e:	320a      	adds	r2, #10
 8005530:	0092      	lsls	r2, r2, #2
 8005532:	58d3      	ldr	r3, [r2, r3]
 8005534:	0019      	movs	r1, r3
 8005536:	f000 fbfd 	bl	8005d34 <strstr>
 800553a:	0003      	movs	r3, r0
 800553c:	60bb      	str	r3, [r7, #8]
      if (found != NULL)
 800553e:	68bb      	ldr	r3, [r7, #8]
 8005540:	2b00      	cmp	r3, #0
 8005542:	d00e      	beq.n	8005562 <ATC_CheckResponse+0x64>
      {
        if (ppFound != NULL)
 8005544:	683b      	ldr	r3, [r7, #0]
 8005546:	2b00      	cmp	r3, #0
 8005548:	d002      	beq.n	8005550 <ATC_CheckResponse+0x52>
        {
          *ppFound = found;
 800554a:	683b      	ldr	r3, [r7, #0]
 800554c:	68ba      	ldr	r2, [r7, #8]
 800554e:	601a      	str	r2, [r3, #0]
        }
        index = i + 1;
 8005550:	230c      	movs	r3, #12
 8005552:	18fb      	adds	r3, r7, r3
 8005554:	881b      	ldrh	r3, [r3, #0]
 8005556:	b2da      	uxtb	r2, r3
 8005558:	230f      	movs	r3, #15
 800555a:	18fb      	adds	r3, r7, r3
 800555c:	3201      	adds	r2, #1
 800555e:	701a      	strb	r2, [r3, #0]
        break;
 8005560:	e00c      	b.n	800557c <ATC_CheckResponse+0x7e>
    for (uint16_t i = 0; i < hAtc->RespCount; i++)
 8005562:	210c      	movs	r1, #12
 8005564:	187b      	adds	r3, r7, r1
 8005566:	881a      	ldrh	r2, [r3, #0]
 8005568:	187b      	adds	r3, r7, r1
 800556a:	3201      	adds	r2, #1
 800556c:	801a      	strh	r2, [r3, #0]
 800556e:	687b      	ldr	r3, [r7, #4]
 8005570:	8adb      	ldrh	r3, [r3, #22]
 8005572:	220c      	movs	r2, #12
 8005574:	18ba      	adds	r2, r7, r2
 8005576:	8812      	ldrh	r2, [r2, #0]
 8005578:	429a      	cmp	r2, r3
 800557a:	d3d2      	bcc.n	8005522 <ATC_CheckResponse+0x24>
      }
    }
  }
  return index;
 800557c:	230f      	movs	r3, #15
 800557e:	18fb      	adds	r3, r7, r3
 8005580:	781b      	ldrb	r3, [r3, #0]
}
 8005582:	0018      	movs	r0, r3
 8005584:	46bd      	mov	sp, r7
 8005586:	b004      	add	sp, #16
 8005588:	bd80      	pop	{r7, pc}

0800558a <ATC_CheckErrors>:

/***********************************************************************************************************/

void ATC_CheckErrors(ATC_HandleTypeDef* hAtc)
{
 800558a:	b580      	push	{r7, lr}
 800558c:	b082      	sub	sp, #8
 800558e:	af00      	add	r7, sp, #0
 8005590:	6078      	str	r0, [r7, #4]
  if (HAL_UART_GetError(hAtc->hUart) != HAL_UART_ERROR_NONE)
 8005592:	687b      	ldr	r3, [r7, #4]
 8005594:	681b      	ldr	r3, [r3, #0]
 8005596:	0018      	movs	r0, r3
 8005598:	f7fe ff10 	bl	80043bc <HAL_UART_GetError>
 800559c:	1e03      	subs	r3, r0, #0
 800559e:	d01f      	beq.n	80055e0 <ATC_CheckErrors+0x56>
  {
    __HAL_UART_CLEAR_FLAG(hAtc->hUart, 0xFFFFFFFF);
 80055a0:	687b      	ldr	r3, [r7, #4]
 80055a2:	681b      	ldr	r3, [r3, #0]
 80055a4:	681b      	ldr	r3, [r3, #0]
 80055a6:	2201      	movs	r2, #1
 80055a8:	4252      	negs	r2, r2
 80055aa:	621a      	str	r2, [r3, #32]
    HAL_UART_AbortReceive(hAtc->hUart);
 80055ac:	687b      	ldr	r3, [r7, #4]
 80055ae:	681b      	ldr	r3, [r3, #0]
 80055b0:	0018      	movs	r0, r3
 80055b2:	f7fe fb23 	bl	8003bfc <HAL_UART_AbortReceive>
    HAL_UARTEx_ReceiveToIdle_DMA(hAtc->hUart, hAtc->pRxBuff, hAtc->Size);
 80055b6:	687b      	ldr	r3, [r7, #4]
 80055b8:	6818      	ldr	r0, [r3, #0]
 80055ba:	687b      	ldr	r3, [r7, #4]
 80055bc:	69d9      	ldr	r1, [r3, #28]
 80055be:	687b      	ldr	r3, [r7, #4]
 80055c0:	8a9b      	ldrh	r3, [r3, #20]
 80055c2:	001a      	movs	r2, r3
 80055c4:	f7ff fe6f 	bl	80052a6 <HAL_UARTEx_ReceiveToIdle_DMA>
    __HAL_DMA_DISABLE_IT(hAtc->hUart->hdmarx, DMA_IT_HT);
 80055c8:	687b      	ldr	r3, [r7, #4]
 80055ca:	681b      	ldr	r3, [r3, #0]
 80055cc:	6f5b      	ldr	r3, [r3, #116]	@ 0x74
 80055ce:	681b      	ldr	r3, [r3, #0]
 80055d0:	681a      	ldr	r2, [r3, #0]
 80055d2:	687b      	ldr	r3, [r7, #4]
 80055d4:	681b      	ldr	r3, [r3, #0]
 80055d6:	6f5b      	ldr	r3, [r3, #116]	@ 0x74
 80055d8:	681b      	ldr	r3, [r3, #0]
 80055da:	2104      	movs	r1, #4
 80055dc:	438a      	bics	r2, r1
 80055de:	601a      	str	r2, [r3, #0]
  }
  if (!((HAL_UART_GetState(hAtc->hUart) == HAL_UART_STATE_BUSY_RX) ||
 80055e0:	687b      	ldr	r3, [r7, #4]
 80055e2:	681b      	ldr	r3, [r3, #0]
 80055e4:	0018      	movs	r0, r3
 80055e6:	f7fe fed7 	bl	8004398 <HAL_UART_GetState>
 80055ea:	0003      	movs	r3, r0
 80055ec:	2b22      	cmp	r3, #34	@ 0x22
 80055ee:	d027      	beq.n	8005640 <ATC_CheckErrors+0xb6>
      (HAL_UART_GetState(hAtc->hUart) == HAL_UART_STATE_BUSY_TX_RX)))
 80055f0:	687b      	ldr	r3, [r7, #4]
 80055f2:	681b      	ldr	r3, [r3, #0]
 80055f4:	0018      	movs	r0, r3
 80055f6:	f7fe fecf 	bl	8004398 <HAL_UART_GetState>
 80055fa:	0003      	movs	r3, r0
  if (!((HAL_UART_GetState(hAtc->hUart) == HAL_UART_STATE_BUSY_RX) ||
 80055fc:	2b23      	cmp	r3, #35	@ 0x23
 80055fe:	d01f      	beq.n	8005640 <ATC_CheckErrors+0xb6>
  {
    __HAL_UART_CLEAR_FLAG(hAtc->hUart, 0xFFFFFFFF);
 8005600:	687b      	ldr	r3, [r7, #4]
 8005602:	681b      	ldr	r3, [r3, #0]
 8005604:	681b      	ldr	r3, [r3, #0]
 8005606:	2201      	movs	r2, #1
 8005608:	4252      	negs	r2, r2
 800560a:	621a      	str	r2, [r3, #32]
    HAL_UART_AbortReceive(hAtc->hUart);
 800560c:	687b      	ldr	r3, [r7, #4]
 800560e:	681b      	ldr	r3, [r3, #0]
 8005610:	0018      	movs	r0, r3
 8005612:	f7fe faf3 	bl	8003bfc <HAL_UART_AbortReceive>
    HAL_UARTEx_ReceiveToIdle_DMA(hAtc->hUart, hAtc->pRxBuff, hAtc->Size);
 8005616:	687b      	ldr	r3, [r7, #4]
 8005618:	6818      	ldr	r0, [r3, #0]
 800561a:	687b      	ldr	r3, [r7, #4]
 800561c:	69d9      	ldr	r1, [r3, #28]
 800561e:	687b      	ldr	r3, [r7, #4]
 8005620:	8a9b      	ldrh	r3, [r3, #20]
 8005622:	001a      	movs	r2, r3
 8005624:	f7ff fe3f 	bl	80052a6 <HAL_UARTEx_ReceiveToIdle_DMA>
    __HAL_DMA_DISABLE_IT(hAtc->hUart->hdmarx, DMA_IT_HT);
 8005628:	687b      	ldr	r3, [r7, #4]
 800562a:	681b      	ldr	r3, [r3, #0]
 800562c:	6f5b      	ldr	r3, [r3, #116]	@ 0x74
 800562e:	681b      	ldr	r3, [r3, #0]
 8005630:	681a      	ldr	r2, [r3, #0]
 8005632:	687b      	ldr	r3, [r7, #4]
 8005634:	681b      	ldr	r3, [r3, #0]
 8005636:	6f5b      	ldr	r3, [r3, #116]	@ 0x74
 8005638:	681b      	ldr	r3, [r3, #0]
 800563a:	2104      	movs	r1, #4
 800563c:	438a      	bics	r2, r1
 800563e:	601a      	str	r2, [r3, #0]
  }
}
 8005640:	46c0      	nop			@ (mov r8, r8)
 8005642:	46bd      	mov	sp, r7
 8005644:	b002      	add	sp, #8
 8005646:	bd80      	pop	{r7, pc}

08005648 <ATC_Init>:
  * @param  BufferSize: Size of the RX buffer. It needs 2X memory.
  * @param  pName: Name identifier for the ATC.
  * @retval true if initialization is successful, false otherwise.
  */
bool ATC_Init(ATC_HandleTypeDef* hAtc, UART_HandleTypeDef* hUart, uint16_t BufferSize, const char* pName)
{
 8005648:	b580      	push	{r7, lr}
 800564a:	b086      	sub	sp, #24
 800564c:	af00      	add	r7, sp, #0
 800564e:	60f8      	str	r0, [r7, #12]
 8005650:	60b9      	str	r1, [r7, #8]
 8005652:	603b      	str	r3, [r7, #0]
 8005654:	1dbb      	adds	r3, r7, #6
 8005656:	801a      	strh	r2, [r3, #0]
  bool answer = false;
 8005658:	2317      	movs	r3, #23
 800565a:	18fb      	adds	r3, r7, r3
 800565c:	2200      	movs	r2, #0
 800565e:	701a      	strb	r2, [r3, #0]
  do
  {
    if (hAtc == NULL || hUart == NULL)
 8005660:	68fb      	ldr	r3, [r7, #12]
 8005662:	2b00      	cmp	r3, #0
 8005664:	d100      	bne.n	8005668 <ATC_Init+0x20>
 8005666:	e07f      	b.n	8005768 <ATC_Init+0x120>
 8005668:	68bb      	ldr	r3, [r7, #8]
 800566a:	2b00      	cmp	r3, #0
 800566c:	d100      	bne.n	8005670 <ATC_Init+0x28>
 800566e:	e07b      	b.n	8005768 <ATC_Init+0x120>
    {
      break;
    }
    memset(hAtc, 0, sizeof(ATC_HandleTypeDef));
 8005670:	68fb      	ldr	r3, [r7, #12]
 8005672:	223c      	movs	r2, #60	@ 0x3c
 8005674:	2100      	movs	r1, #0
 8005676:	0018      	movs	r0, r3
 8005678:	f000 fb40 	bl	8005cfc <memset>
    if (pName != NULL)
 800567c:	683b      	ldr	r3, [r7, #0]
 800567e:	2b00      	cmp	r3, #0
 8005680:	d006      	beq.n	8005690 <ATC_Init+0x48>
    {
      strncpy(hAtc->Name, pName, sizeof(hAtc->Name) - 1);
 8005682:	68fb      	ldr	r3, [r7, #12]
 8005684:	3304      	adds	r3, #4
 8005686:	6839      	ldr	r1, [r7, #0]
 8005688:	2207      	movs	r2, #7
 800568a:	0018      	movs	r0, r3
 800568c:	f000 fb3e 	bl	8005d0c <strncpy>
    }
    hAtc->hUart = hUart;
 8005690:	68fb      	ldr	r3, [r7, #12]
 8005692:	68ba      	ldr	r2, [r7, #8]
 8005694:	601a      	str	r2, [r3, #0]
    hAtc->pRxBuff = ATC_Malloc(BufferSize);
 8005696:	1dbb      	adds	r3, r7, #6
 8005698:	881b      	ldrh	r3, [r3, #0]
 800569a:	0018      	movs	r0, r3
 800569c:	f7ff fe6b 	bl	8005376 <ATC_Malloc>
 80056a0:	0002      	movs	r2, r0
 80056a2:	68fb      	ldr	r3, [r7, #12]
 80056a4:	61da      	str	r2, [r3, #28]
    if (hAtc->pRxBuff != NULL)
 80056a6:	68fb      	ldr	r3, [r7, #12]
 80056a8:	69db      	ldr	r3, [r3, #28]
 80056aa:	2b00      	cmp	r3, #0
 80056ac:	d055      	beq.n	800575a <ATC_Init+0x112>
    {
      memset(hAtc->pRxBuff, 0, BufferSize);
 80056ae:	68fb      	ldr	r3, [r7, #12]
 80056b0:	69d8      	ldr	r0, [r3, #28]
 80056b2:	1dbb      	adds	r3, r7, #6
 80056b4:	881b      	ldrh	r3, [r3, #0]
 80056b6:	001a      	movs	r2, r3
 80056b8:	2100      	movs	r1, #0
 80056ba:	f000 fb1f 	bl	8005cfc <memset>
    else
    {
      dprintf("ATC<%s> - ERROR MALLOC RX BUFF\r\n", hAtc->Name);
      break;
    }
    hAtc->pTxBuff = ATC_Malloc(BufferSize);
 80056be:	1dbb      	adds	r3, r7, #6
 80056c0:	881b      	ldrh	r3, [r3, #0]
 80056c2:	0018      	movs	r0, r3
 80056c4:	f7ff fe57 	bl	8005376 <ATC_Malloc>
 80056c8:	0002      	movs	r2, r0
 80056ca:	68fb      	ldr	r3, [r7, #12]
 80056cc:	621a      	str	r2, [r3, #32]
    if (hAtc->pTxBuff != NULL)
 80056ce:	68fb      	ldr	r3, [r7, #12]
 80056d0:	6a1b      	ldr	r3, [r3, #32]
 80056d2:	2b00      	cmp	r3, #0
 80056d4:	d043      	beq.n	800575e <ATC_Init+0x116>
    {
      memset(hAtc->pTxBuff, 0, BufferSize);
 80056d6:	68fb      	ldr	r3, [r7, #12]
 80056d8:	6a18      	ldr	r0, [r3, #32]
 80056da:	1dbb      	adds	r3, r7, #6
 80056dc:	881b      	ldrh	r3, [r3, #0]
 80056de:	001a      	movs	r2, r3
 80056e0:	2100      	movs	r1, #0
 80056e2:	f000 fb0b 	bl	8005cfc <memset>
    else
    {
      dprintf("ATC<%s> - ERROR MALLOC TX BUFF\r\n", hAtc->Name);
      break;
    }
    hAtc->pReadBuff = ATC_Malloc(BufferSize);
 80056e6:	1dbb      	adds	r3, r7, #6
 80056e8:	881b      	ldrh	r3, [r3, #0]
 80056ea:	0018      	movs	r0, r3
 80056ec:	f7ff fe43 	bl	8005376 <ATC_Malloc>
 80056f0:	0002      	movs	r2, r0
 80056f2:	68fb      	ldr	r3, [r7, #12]
 80056f4:	625a      	str	r2, [r3, #36]	@ 0x24
    if (hAtc->pReadBuff != NULL)
 80056f6:	68fb      	ldr	r3, [r7, #12]
 80056f8:	6a5b      	ldr	r3, [r3, #36]	@ 0x24
 80056fa:	2b00      	cmp	r3, #0
 80056fc:	d031      	beq.n	8005762 <ATC_Init+0x11a>
    {
      memset(hAtc->pReadBuff, 0, BufferSize);
 80056fe:	68fb      	ldr	r3, [r7, #12]
 8005700:	6a58      	ldr	r0, [r3, #36]	@ 0x24
 8005702:	1dbb      	adds	r3, r7, #6
 8005704:	881b      	ldrh	r3, [r3, #0]
 8005706:	001a      	movs	r2, r3
 8005708:	2100      	movs	r1, #0
 800570a:	f000 faf7 	bl	8005cfc <memset>
    else
    {
      dprintf("ATC<%s> - ERROR MALLOC READ BUFF\r\n", hAtc->Name);
      break;
    }
    hAtc->Size = BufferSize;
 800570e:	68fb      	ldr	r3, [r7, #12]
 8005710:	1dba      	adds	r2, r7, #6
 8005712:	8812      	ldrh	r2, [r2, #0]
 8005714:	829a      	strh	r2, [r3, #20]
    __HAL_UART_CLEAR_FLAG(hAtc->hUart, 0xFFFFFFFF);
 8005716:	68fb      	ldr	r3, [r7, #12]
 8005718:	681b      	ldr	r3, [r3, #0]
 800571a:	681b      	ldr	r3, [r3, #0]
 800571c:	2201      	movs	r2, #1
 800571e:	4252      	negs	r2, r2
 8005720:	621a      	str	r2, [r3, #32]
    if (HAL_UARTEx_ReceiveToIdle_DMA(hAtc->hUart, hAtc->pRxBuff, hAtc->Size) != HAL_OK)
 8005722:	68fb      	ldr	r3, [r7, #12]
 8005724:	6818      	ldr	r0, [r3, #0]
 8005726:	68fb      	ldr	r3, [r7, #12]
 8005728:	69d9      	ldr	r1, [r3, #28]
 800572a:	68fb      	ldr	r3, [r7, #12]
 800572c:	8a9b      	ldrh	r3, [r3, #20]
 800572e:	001a      	movs	r2, r3
 8005730:	f7ff fdb9 	bl	80052a6 <HAL_UARTEx_ReceiveToIdle_DMA>
 8005734:	1e03      	subs	r3, r0, #0
 8005736:	d116      	bne.n	8005766 <ATC_Init+0x11e>
    {
      dprintf("ATC<%s> - ERROR ENABLE RX DMA\r\n", hAtc->Name);
      break;
    }
    __HAL_DMA_DISABLE_IT(hAtc->hUart->hdmarx, DMA_IT_HT);
 8005738:	68fb      	ldr	r3, [r7, #12]
 800573a:	681b      	ldr	r3, [r3, #0]
 800573c:	6f5b      	ldr	r3, [r3, #116]	@ 0x74
 800573e:	681b      	ldr	r3, [r3, #0]
 8005740:	681a      	ldr	r2, [r3, #0]
 8005742:	68fb      	ldr	r3, [r7, #12]
 8005744:	681b      	ldr	r3, [r3, #0]
 8005746:	6f5b      	ldr	r3, [r3, #116]	@ 0x74
 8005748:	681b      	ldr	r3, [r3, #0]
 800574a:	2104      	movs	r1, #4
 800574c:	438a      	bics	r2, r1
 800574e:	601a      	str	r2, [r3, #0]
    answer = true;
 8005750:	2317      	movs	r3, #23
 8005752:	18fb      	adds	r3, r7, r3
 8005754:	2201      	movs	r2, #1
 8005756:	701a      	strb	r2, [r3, #0]
 8005758:	e006      	b.n	8005768 <ATC_Init+0x120>
      break;
 800575a:	46c0      	nop			@ (mov r8, r8)
 800575c:	e004      	b.n	8005768 <ATC_Init+0x120>
      break;
 800575e:	46c0      	nop			@ (mov r8, r8)
 8005760:	e002      	b.n	8005768 <ATC_Init+0x120>
      break;
 8005762:	46c0      	nop			@ (mov r8, r8)
 8005764:	e000      	b.n	8005768 <ATC_Init+0x120>
      break;
 8005766:	46c0      	nop			@ (mov r8, r8)

  } while (0);

  if (answer == false)
 8005768:	2317      	movs	r3, #23
 800576a:	18fb      	adds	r3, r7, r3
 800576c:	781b      	ldrb	r3, [r3, #0]
 800576e:	2201      	movs	r2, #1
 8005770:	4053      	eors	r3, r2
 8005772:	b2db      	uxtb	r3, r3
 8005774:	2b00      	cmp	r3, #0
 8005776:	d017      	beq.n	80057a8 <ATC_Init+0x160>
  {
    if (hAtc->pRxBuff != NULL)
 8005778:	68fb      	ldr	r3, [r7, #12]
 800577a:	69db      	ldr	r3, [r3, #28]
 800577c:	2b00      	cmp	r3, #0
 800577e:	d004      	beq.n	800578a <ATC_Init+0x142>
    {
      ATC_Free((void**)&hAtc->pRxBuff);
 8005780:	68fb      	ldr	r3, [r7, #12]
 8005782:	331c      	adds	r3, #28
 8005784:	0018      	movs	r0, r3
 8005786:	f7ff fe07 	bl	8005398 <ATC_Free>
    }
    if (hAtc->pReadBuff != NULL)
 800578a:	68fb      	ldr	r3, [r7, #12]
 800578c:	6a5b      	ldr	r3, [r3, #36]	@ 0x24
 800578e:	2b00      	cmp	r3, #0
 8005790:	d004      	beq.n	800579c <ATC_Init+0x154>
    {
      ATC_Free((void**)&hAtc->pReadBuff);
 8005792:	68fb      	ldr	r3, [r7, #12]
 8005794:	3324      	adds	r3, #36	@ 0x24
 8005796:	0018      	movs	r0, r3
 8005798:	f7ff fdfe 	bl	8005398 <ATC_Free>
    }
    memset(hAtc, 0, sizeof(ATC_HandleTypeDef));
 800579c:	68fb      	ldr	r3, [r7, #12]
 800579e:	223c      	movs	r2, #60	@ 0x3c
 80057a0:	2100      	movs	r1, #0
 80057a2:	0018      	movs	r0, r3
 80057a4:	f000 faaa 	bl	8005cfc <memset>
  }
  else
  {
    dprintf("ATC<%s> - INIT DONE\r\n", hAtc->Name);
  }
  return answer;
 80057a8:	2317      	movs	r3, #23
 80057aa:	18fb      	adds	r3, r7, r3
 80057ac:	781b      	ldrb	r3, [r3, #0]
}
 80057ae:	0018      	movs	r0, r3
 80057b0:	46bd      	mov	sp, r7
 80057b2:	b006      	add	sp, #24
 80057b4:	bd80      	pop	{r7, pc}

080057b6 <ATC_SetEvents>:
  * @param  hAtc: Pointer to the ATC handle.
  * @param  psEvents: Pointer to the event handler structure.
  * @retval true if events are set successfully, false otherwise.
  */
bool ATC_SetEvents(ATC_HandleTypeDef* hAtc, const ATC_EventTypeDef* psEvents)
{
 80057b6:	b580      	push	{r7, lr}
 80057b8:	b084      	sub	sp, #16
 80057ba:	af00      	add	r7, sp, #0
 80057bc:	6078      	str	r0, [r7, #4]
 80057be:	6039      	str	r1, [r7, #0]
  bool answer = false;
 80057c0:	230f      	movs	r3, #15
 80057c2:	18fb      	adds	r3, r7, r3
 80057c4:	2200      	movs	r2, #0
 80057c6:	701a      	strb	r2, [r3, #0]
  uint32_t ev = 0;
 80057c8:	2300      	movs	r3, #0
 80057ca:	60bb      	str	r3, [r7, #8]
  do
  {
    if (hAtc == NULL)
 80057cc:	687b      	ldr	r3, [r7, #4]
 80057ce:	2b00      	cmp	r3, #0
 80057d0:	d01f      	beq.n	8005812 <ATC_SetEvents+0x5c>
    {
      break;
    }
    if (psEvents == NULL)
 80057d2:	683b      	ldr	r3, [r7, #0]
 80057d4:	2b00      	cmp	r3, #0
 80057d6:	d01e      	beq.n	8005816 <ATC_SetEvents+0x60>
    {
      break;
    }
    while ((psEvents[ev].Event != NULL) && (psEvents[ev].EventCallback != NULL))
 80057d8:	e002      	b.n	80057e0 <ATC_SetEvents+0x2a>
    {
      ev++;
 80057da:	68bb      	ldr	r3, [r7, #8]
 80057dc:	3301      	adds	r3, #1
 80057de:	60bb      	str	r3, [r7, #8]
    while ((psEvents[ev].Event != NULL) && (psEvents[ev].EventCallback != NULL))
 80057e0:	68bb      	ldr	r3, [r7, #8]
 80057e2:	00db      	lsls	r3, r3, #3
 80057e4:	683a      	ldr	r2, [r7, #0]
 80057e6:	18d3      	adds	r3, r2, r3
 80057e8:	681b      	ldr	r3, [r3, #0]
 80057ea:	2b00      	cmp	r3, #0
 80057ec:	d006      	beq.n	80057fc <ATC_SetEvents+0x46>
 80057ee:	68bb      	ldr	r3, [r7, #8]
 80057f0:	00db      	lsls	r3, r3, #3
 80057f2:	683a      	ldr	r2, [r7, #0]
 80057f4:	18d3      	adds	r3, r2, r3
 80057f6:	685b      	ldr	r3, [r3, #4]
 80057f8:	2b00      	cmp	r3, #0
 80057fa:	d1ee      	bne.n	80057da <ATC_SetEvents+0x24>
    }
    hAtc->psEvents = (ATC_EventTypeDef*)psEvents;
 80057fc:	687b      	ldr	r3, [r7, #4]
 80057fe:	683a      	ldr	r2, [r7, #0]
 8005800:	60da      	str	r2, [r3, #12]
    hAtc->Events = ev;
 8005802:	687b      	ldr	r3, [r7, #4]
 8005804:	68ba      	ldr	r2, [r7, #8]
 8005806:	611a      	str	r2, [r3, #16]
    answer = true;
 8005808:	230f      	movs	r3, #15
 800580a:	18fb      	adds	r3, r7, r3
 800580c:	2201      	movs	r2, #1
 800580e:	701a      	strb	r2, [r3, #0]
 8005810:	e002      	b.n	8005818 <ATC_SetEvents+0x62>
      break;
 8005812:	46c0      	nop			@ (mov r8, r8)
 8005814:	e000      	b.n	8005818 <ATC_SetEvents+0x62>
      break;
 8005816:	46c0      	nop			@ (mov r8, r8)

  } while (0);

  return answer;
 8005818:	230f      	movs	r3, #15
 800581a:	18fb      	adds	r3, r7, r3
 800581c:	781b      	ldrb	r3, [r3, #0]
}
 800581e:	0018      	movs	r0, r3
 8005820:	46bd      	mov	sp, r7
 8005822:	b004      	add	sp, #16
 8005824:	bd80      	pop	{r7, pc}

08005826 <ATC_SendReceive>:
  * @param  Items: Number of String for Searching
  * @param  ...: Variable arguments for expected responses.
  * @retval Response index if found, error code otherwise.
  */
int ATC_SendReceive(ATC_HandleTypeDef* hAtc, const char* pCommand, uint32_t TxTimeout, char** ppResp, uint32_t RxTimeout, uint8_t Items, ...)
{
 8005826:	b5b0      	push	{r4, r5, r7, lr}
 8005828:	b08c      	sub	sp, #48	@ 0x30
 800582a:	af00      	add	r7, sp, #0
 800582c:	60f8      	str	r0, [r7, #12]
 800582e:	60b9      	str	r1, [r7, #8]
 8005830:	607a      	str	r2, [r7, #4]
 8005832:	603b      	str	r3, [r7, #0]
  int answer = ATC_RESP_NOT_FOUND;
 8005834:	2300      	movs	r3, #0
 8005836:	62fb      	str	r3, [r7, #44]	@ 0x2c
  if (ATC_TxBusy(hAtc) == true)
 8005838:	68fb      	ldr	r3, [r7, #12]
 800583a:	0018      	movs	r0, r3
 800583c:	f7ff fdfb 	bl	8005436 <ATC_TxBusy>
 8005840:	1e03      	subs	r3, r0, #0
 8005842:	d002      	beq.n	800584a <ATC_SendReceive+0x24>
  {
    return ATC_RESP_TX_BUSY;
 8005844:	2304      	movs	r3, #4
 8005846:	425b      	negs	r3, r3
 8005848:	e0e3      	b.n	8005a12 <ATC_SendReceive+0x1ec>
  }
  if (Items > ATC_RESP_MAX)
 800584a:	2344      	movs	r3, #68	@ 0x44
 800584c:	18fb      	adds	r3, r7, r3
 800584e:	781b      	ldrb	r3, [r3, #0]
 8005850:	2b05      	cmp	r3, #5
 8005852:	d902      	bls.n	800585a <ATC_SendReceive+0x34>
  {
    return ATC_RESP_ITEMS;
 8005854:	2305      	movs	r3, #5
 8005856:	425b      	negs	r3, r3
 8005858:	e0db      	b.n	8005a12 <ATC_SendReceive+0x1ec>
  }
  ATC_CheckErrors(hAtc);
 800585a:	68fb      	ldr	r3, [r7, #12]
 800585c:	0018      	movs	r0, r3
 800585e:	f7ff fe94 	bl	800558a <ATC_CheckErrors>
  va_list args;
  va_start(args, Items);
 8005862:	2348      	movs	r3, #72	@ 0x48
 8005864:	18fb      	adds	r3, r7, r3
 8005866:	617b      	str	r3, [r7, #20]
  for (int i = 0; i < Items; i++)
 8005868:	2300      	movs	r3, #0
 800586a:	62bb      	str	r3, [r7, #40]	@ 0x28
 800586c:	e051      	b.n	8005912 <ATC_SendReceive+0xec>
  {
    char *arg = va_arg(args, char*);
 800586e:	697b      	ldr	r3, [r7, #20]
 8005870:	1d1a      	adds	r2, r3, #4
 8005872:	617a      	str	r2, [r7, #20]
 8005874:	681b      	ldr	r3, [r3, #0]
 8005876:	61bb      	str	r3, [r7, #24]
    hAtc->ppResp[i] = (uint8_t*) ATC_Malloc(strlen(arg) + 1);
 8005878:	69bb      	ldr	r3, [r7, #24]
 800587a:	0018      	movs	r0, r3
 800587c:	f7fa fc44 	bl	8000108 <strlen>
 8005880:	0003      	movs	r3, r0
 8005882:	3301      	adds	r3, #1
 8005884:	0018      	movs	r0, r3
 8005886:	f7ff fd76 	bl	8005376 <ATC_Malloc>
 800588a:	0001      	movs	r1, r0
 800588c:	68fb      	ldr	r3, [r7, #12]
 800588e:	6aba      	ldr	r2, [r7, #40]	@ 0x28
 8005890:	320a      	adds	r2, #10
 8005892:	0092      	lsls	r2, r2, #2
 8005894:	50d1      	str	r1, [r2, r3]
    if (hAtc->ppResp[i] == NULL)
 8005896:	68fb      	ldr	r3, [r7, #12]
 8005898:	6aba      	ldr	r2, [r7, #40]	@ 0x28
 800589a:	320a      	adds	r2, #10
 800589c:	0092      	lsls	r2, r2, #2
 800589e:	58d3      	ldr	r3, [r2, r3]
 80058a0:	2b00      	cmp	r3, #0
 80058a2:	d11c      	bne.n	80058de <ATC_SendReceive+0xb8>
    {
      for (uint8_t j = 0; j < i; j++)
 80058a4:	2327      	movs	r3, #39	@ 0x27
 80058a6:	18fb      	adds	r3, r7, r3
 80058a8:	2200      	movs	r2, #0
 80058aa:	701a      	strb	r2, [r3, #0]
 80058ac:	e00e      	b.n	80058cc <ATC_SendReceive+0xa6>
      {
        ATC_Free((void**)&hAtc->ppResp[j]);
 80058ae:	2427      	movs	r4, #39	@ 0x27
 80058b0:	193b      	adds	r3, r7, r4
 80058b2:	781b      	ldrb	r3, [r3, #0]
 80058b4:	330a      	adds	r3, #10
 80058b6:	009b      	lsls	r3, r3, #2
 80058b8:	68fa      	ldr	r2, [r7, #12]
 80058ba:	18d3      	adds	r3, r2, r3
 80058bc:	0018      	movs	r0, r3
 80058be:	f7ff fd6b 	bl	8005398 <ATC_Free>
      for (uint8_t j = 0; j < i; j++)
 80058c2:	193b      	adds	r3, r7, r4
 80058c4:	781a      	ldrb	r2, [r3, #0]
 80058c6:	193b      	adds	r3, r7, r4
 80058c8:	3201      	adds	r2, #1
 80058ca:	701a      	strb	r2, [r3, #0]
 80058cc:	2327      	movs	r3, #39	@ 0x27
 80058ce:	18fb      	adds	r3, r7, r3
 80058d0:	781b      	ldrb	r3, [r3, #0]
 80058d2:	6aba      	ldr	r2, [r7, #40]	@ 0x28
 80058d4:	429a      	cmp	r2, r3
 80058d6:	dcea      	bgt.n	80058ae <ATC_SendReceive+0x88>
      }
      return ATC_RESP_MEM_ERROR;
 80058d8:	2303      	movs	r3, #3
 80058da:	425b      	negs	r3, r3
 80058dc:	e099      	b.n	8005a12 <ATC_SendReceive+0x1ec>
    }
    strcpy((char*) hAtc->ppResp[i], arg);
 80058de:	68fb      	ldr	r3, [r7, #12]
 80058e0:	6aba      	ldr	r2, [r7, #40]	@ 0x28
 80058e2:	320a      	adds	r2, #10
 80058e4:	0092      	lsls	r2, r2, #2
 80058e6:	58d3      	ldr	r3, [r2, r3]
 80058e8:	69ba      	ldr	r2, [r7, #24]
 80058ea:	0011      	movs	r1, r2
 80058ec:	0018      	movs	r0, r3
 80058ee:	f000 fa75 	bl	8005ddc <strcpy>
    hAtc->ppResp[i][strlen(arg)] = 0;
 80058f2:	68fb      	ldr	r3, [r7, #12]
 80058f4:	6aba      	ldr	r2, [r7, #40]	@ 0x28
 80058f6:	320a      	adds	r2, #10
 80058f8:	0092      	lsls	r2, r2, #2
 80058fa:	58d4      	ldr	r4, [r2, r3]
 80058fc:	69bb      	ldr	r3, [r7, #24]
 80058fe:	0018      	movs	r0, r3
 8005900:	f7fa fc02 	bl	8000108 <strlen>
 8005904:	0003      	movs	r3, r0
 8005906:	18e3      	adds	r3, r4, r3
 8005908:	2200      	movs	r2, #0
 800590a:	701a      	strb	r2, [r3, #0]
  for (int i = 0; i < Items; i++)
 800590c:	6abb      	ldr	r3, [r7, #40]	@ 0x28
 800590e:	3301      	adds	r3, #1
 8005910:	62bb      	str	r3, [r7, #40]	@ 0x28
 8005912:	2344      	movs	r3, #68	@ 0x44
 8005914:	18fb      	adds	r3, r7, r3
 8005916:	781b      	ldrb	r3, [r3, #0]
 8005918:	6aba      	ldr	r2, [r7, #40]	@ 0x28
 800591a:	429a      	cmp	r2, r3
 800591c:	dba7      	blt.n	800586e <ATC_SendReceive+0x48>
  }
  va_end(args);

  do
  {
    ATC_RxFlush(hAtc);
 800591e:	68fb      	ldr	r3, [r7, #12]
 8005920:	0018      	movs	r0, r3
 8005922:	f7ff fd50 	bl	80053c6 <ATC_RxFlush>
    if (ATC_TxRaw(hAtc, (const uint8_t*)pCommand, strlen((char*)pCommand)) == false)
 8005926:	68bb      	ldr	r3, [r7, #8]
 8005928:	0018      	movs	r0, r3
 800592a:	f7fa fbed 	bl	8000108 <strlen>
 800592e:	0003      	movs	r3, r0
 8005930:	b29a      	uxth	r2, r3
 8005932:	68b9      	ldr	r1, [r7, #8]
 8005934:	68fb      	ldr	r3, [r7, #12]
 8005936:	0018      	movs	r0, r3
 8005938:	f7ff fd58 	bl	80053ec <ATC_TxRaw>
 800593c:	0003      	movs	r3, r0
 800593e:	001a      	movs	r2, r3
 8005940:	2301      	movs	r3, #1
 8005942:	4053      	eors	r3, r2
 8005944:	b2db      	uxtb	r3, r3
 8005946:	2b00      	cmp	r3, #0
 8005948:	d003      	beq.n	8005952 <ATC_SendReceive+0x12c>
    {
      answer = ATC_RESP_SENDING_ERROR;
 800594a:	2301      	movs	r3, #1
 800594c:	425b      	negs	r3, r3
 800594e:	62fb      	str	r3, [r7, #44]	@ 0x2c
      break;
 8005950:	e010      	b.n	8005974 <ATC_SendReceive+0x14e>
    }
    if (ATC_TxWait(hAtc, TxTimeout) == false)
 8005952:	687a      	ldr	r2, [r7, #4]
 8005954:	68fb      	ldr	r3, [r7, #12]
 8005956:	0011      	movs	r1, r2
 8005958:	0018      	movs	r0, r3
 800595a:	f7ff fd87 	bl	800546c <ATC_TxWait>
 800595e:	0003      	movs	r3, r0
 8005960:	001a      	movs	r2, r3
 8005962:	2301      	movs	r3, #1
 8005964:	4053      	eors	r3, r2
 8005966:	b2db      	uxtb	r3, r3
 8005968:	2b00      	cmp	r3, #0
 800596a:	d003      	beq.n	8005974 <ATC_SendReceive+0x14e>
    {
      answer = ATC_RESP_SENDING_TIMEOUT;
 800596c:	2302      	movs	r3, #2
 800596e:	425b      	negs	r3, r3
 8005970:	62fb      	str	r3, [r7, #44]	@ 0x2c
      break;
 8005972:	46c0      	nop			@ (mov r8, r8)
    }

  } while (0);

  if ((Items > 0) && (answer == ATC_RESP_NOT_FOUND))
 8005974:	2444      	movs	r4, #68	@ 0x44
 8005976:	193b      	adds	r3, r7, r4
 8005978:	781b      	ldrb	r3, [r3, #0]
 800597a:	2b00      	cmp	r3, #0
 800597c:	d029      	beq.n	80059d2 <ATC_SendReceive+0x1ac>
 800597e:	6afb      	ldr	r3, [r7, #44]	@ 0x2c
 8005980:	2b00      	cmp	r3, #0
 8005982:	d126      	bne.n	80059d2 <ATC_SendReceive+0x1ac>
  {
    uint32_t start_time = HAL_GetTick();
 8005984:	f7fb fc98 	bl	80012b8 <HAL_GetTick>
 8005988:	0003      	movs	r3, r0
 800598a:	623b      	str	r3, [r7, #32]
    hAtc->RespCount = Items;
 800598c:	193b      	adds	r3, r7, r4
 800598e:	781b      	ldrb	r3, [r3, #0]
 8005990:	b29a      	uxth	r2, r3
 8005992:	68fb      	ldr	r3, [r7, #12]
 8005994:	82da      	strh	r2, [r3, #22]
    while (HAL_GetTick() - start_time < RxTimeout)
 8005996:	e014      	b.n	80059c2 <ATC_SendReceive+0x19c>
    {
      ATC_Delay(1);
 8005998:	2001      	movs	r0, #1
 800599a:	f000 f8a6 	bl	8005aea <ATC_Delay>
      uint8_t found_index = ATC_CheckResponse(hAtc, ppResp);
 800599e:	251f      	movs	r5, #31
 80059a0:	197c      	adds	r4, r7, r5
 80059a2:	683a      	ldr	r2, [r7, #0]
 80059a4:	68fb      	ldr	r3, [r7, #12]
 80059a6:	0011      	movs	r1, r2
 80059a8:	0018      	movs	r0, r3
 80059aa:	f7ff fda8 	bl	80054fe <ATC_CheckResponse>
 80059ae:	0003      	movs	r3, r0
 80059b0:	7023      	strb	r3, [r4, #0]
      if (found_index > 0)
 80059b2:	197b      	adds	r3, r7, r5
 80059b4:	781b      	ldrb	r3, [r3, #0]
 80059b6:	2b00      	cmp	r3, #0
 80059b8:	d003      	beq.n	80059c2 <ATC_SendReceive+0x19c>
      {
        answer = found_index;
 80059ba:	197b      	adds	r3, r7, r5
 80059bc:	781b      	ldrb	r3, [r3, #0]
 80059be:	62fb      	str	r3, [r7, #44]	@ 0x2c
        break;
 80059c0:	e007      	b.n	80059d2 <ATC_SendReceive+0x1ac>
    while (HAL_GetTick() - start_time < RxTimeout)
 80059c2:	f7fb fc79 	bl	80012b8 <HAL_GetTick>
 80059c6:	0002      	movs	r2, r0
 80059c8:	6a3b      	ldr	r3, [r7, #32]
 80059ca:	1ad3      	subs	r3, r2, r3
 80059cc:	6c3a      	ldr	r2, [r7, #64]	@ 0x40
 80059ce:	429a      	cmp	r2, r3
 80059d0:	d8e2      	bhi.n	8005998 <ATC_SendReceive+0x172>
      }
    }
  }
  hAtc->RespCount = 0;
 80059d2:	68fb      	ldr	r3, [r7, #12]
 80059d4:	2200      	movs	r2, #0
 80059d6:	82da      	strh	r2, [r3, #22]
  for (uint8_t i = 0; i < Items; i++)
 80059d8:	2326      	movs	r3, #38	@ 0x26
 80059da:	18fb      	adds	r3, r7, r3
 80059dc:	2200      	movs	r2, #0
 80059de:	701a      	strb	r2, [r3, #0]
 80059e0:	e00e      	b.n	8005a00 <ATC_SendReceive+0x1da>
  {
    ATC_Free((void**)&hAtc->ppResp[i]);
 80059e2:	2426      	movs	r4, #38	@ 0x26
 80059e4:	193b      	adds	r3, r7, r4
 80059e6:	781b      	ldrb	r3, [r3, #0]
 80059e8:	330a      	adds	r3, #10
 80059ea:	009b      	lsls	r3, r3, #2
 80059ec:	68fa      	ldr	r2, [r7, #12]
 80059ee:	18d3      	adds	r3, r2, r3
 80059f0:	0018      	movs	r0, r3
 80059f2:	f7ff fcd1 	bl	8005398 <ATC_Free>
  for (uint8_t i = 0; i < Items; i++)
 80059f6:	193b      	adds	r3, r7, r4
 80059f8:	781a      	ldrb	r2, [r3, #0]
 80059fa:	193b      	adds	r3, r7, r4
 80059fc:	3201      	adds	r2, #1
 80059fe:	701a      	strb	r2, [r3, #0]
 8005a00:	2326      	movs	r3, #38	@ 0x26
 8005a02:	18fa      	adds	r2, r7, r3
 8005a04:	2344      	movs	r3, #68	@ 0x44
 8005a06:	18fb      	adds	r3, r7, r3
 8005a08:	7812      	ldrb	r2, [r2, #0]
 8005a0a:	781b      	ldrb	r3, [r3, #0]
 8005a0c:	429a      	cmp	r2, r3
 8005a0e:	d3e8      	bcc.n	80059e2 <ATC_SendReceive+0x1bc>
  }
  return answer;
 8005a10:	6afb      	ldr	r3, [r7, #44]	@ 0x2c
}
 8005a12:	0018      	movs	r0, r3
 8005a14:	46bd      	mov	sp, r7
 8005a16:	b00c      	add	sp, #48	@ 0x30
 8005a18:	bdb0      	pop	{r4, r5, r7, pc}

08005a1a <ATC_IdleLineCallback>:
  * @param  hAtc: Pointer to the ATC handle.
  * @param  Len: Length of received data.
  * @retval None.
  */
inline void ATC_IdleLineCallback(ATC_HandleTypeDef* hAtc, uint16_t Len)
{
 8005a1a:	b580      	push	{r7, lr}
 8005a1c:	b082      	sub	sp, #8
 8005a1e:	af00      	add	r7, sp, #0
 8005a20:	6078      	str	r0, [r7, #4]
 8005a22:	000a      	movs	r2, r1
 8005a24:	1cbb      	adds	r3, r7, #2
 8005a26:	801a      	strh	r2, [r3, #0]
  if (Len > hAtc->Size - hAtc->RxIndex)
 8005a28:	1cbb      	adds	r3, r7, #2
 8005a2a:	881a      	ldrh	r2, [r3, #0]
 8005a2c:	687b      	ldr	r3, [r7, #4]
 8005a2e:	8a9b      	ldrh	r3, [r3, #20]
 8005a30:	0019      	movs	r1, r3
 8005a32:	687b      	ldr	r3, [r7, #4]
 8005a34:	8b1b      	ldrh	r3, [r3, #24]
 8005a36:	1acb      	subs	r3, r1, r3
 8005a38:	429a      	cmp	r2, r3
 8005a3a:	dd06      	ble.n	8005a4a <ATC_IdleLineCallback+0x30>
  {
    Len = hAtc->Size - hAtc->RxIndex;
 8005a3c:	687b      	ldr	r3, [r7, #4]
 8005a3e:	8a99      	ldrh	r1, [r3, #20]
 8005a40:	687b      	ldr	r3, [r7, #4]
 8005a42:	8b1a      	ldrh	r2, [r3, #24]
 8005a44:	1cbb      	adds	r3, r7, #2
 8005a46:	1a8a      	subs	r2, r1, r2
 8005a48:	801a      	strh	r2, [r3, #0]
  }
  memcpy(&hAtc->pReadBuff[hAtc->RxIndex], hAtc->pRxBuff, Len);
 8005a4a:	687b      	ldr	r3, [r7, #4]
 8005a4c:	6a5b      	ldr	r3, [r3, #36]	@ 0x24
 8005a4e:	687a      	ldr	r2, [r7, #4]
 8005a50:	8b12      	ldrh	r2, [r2, #24]
 8005a52:	1898      	adds	r0, r3, r2
 8005a54:	687b      	ldr	r3, [r7, #4]
 8005a56:	69d9      	ldr	r1, [r3, #28]
 8005a58:	1cbb      	adds	r3, r7, #2
 8005a5a:	881b      	ldrh	r3, [r3, #0]
 8005a5c:	001a      	movs	r2, r3
 8005a5e:	f000 f9c5 	bl	8005dec <memcpy>
  {
    dprintf("%c", hAtc->pRxBuff[i]);
  }
  dprintf("\r\n");
#endif
  hAtc->RxIndex += Len;
 8005a62:	687b      	ldr	r3, [r7, #4]
 8005a64:	8b1a      	ldrh	r2, [r3, #24]
 8005a66:	1cbb      	adds	r3, r7, #2
 8005a68:	881b      	ldrh	r3, [r3, #0]
 8005a6a:	18d3      	adds	r3, r2, r3
 8005a6c:	b29a      	uxth	r2, r3
 8005a6e:	687b      	ldr	r3, [r7, #4]
 8005a70:	831a      	strh	r2, [r3, #24]
  if (HAL_UARTEx_ReceiveToIdle_DMA(hAtc->hUart, hAtc->pRxBuff, hAtc->Size) == HAL_OK)
 8005a72:	687b      	ldr	r3, [r7, #4]
 8005a74:	6818      	ldr	r0, [r3, #0]
 8005a76:	687b      	ldr	r3, [r7, #4]
 8005a78:	69d9      	ldr	r1, [r3, #28]
 8005a7a:	687b      	ldr	r3, [r7, #4]
 8005a7c:	8a9b      	ldrh	r3, [r3, #20]
 8005a7e:	001a      	movs	r2, r3
 8005a80:	f7ff fc11 	bl	80052a6 <HAL_UARTEx_ReceiveToIdle_DMA>
 8005a84:	1e03      	subs	r3, r0, #0
 8005a86:	d10c      	bne.n	8005aa2 <ATC_IdleLineCallback+0x88>
  {
    __HAL_DMA_DISABLE_IT(hAtc->hUart->hdmarx, DMA_IT_HT);
 8005a88:	687b      	ldr	r3, [r7, #4]
 8005a8a:	681b      	ldr	r3, [r3, #0]
 8005a8c:	6f5b      	ldr	r3, [r3, #116]	@ 0x74
 8005a8e:	681b      	ldr	r3, [r3, #0]
 8005a90:	681a      	ldr	r2, [r3, #0]
 8005a92:	687b      	ldr	r3, [r7, #4]
 8005a94:	681b      	ldr	r3, [r3, #0]
 8005a96:	6f5b      	ldr	r3, [r3, #116]	@ 0x74
 8005a98:	681b      	ldr	r3, [r3, #0]
 8005a9a:	2104      	movs	r1, #4
 8005a9c:	438a      	bics	r2, r1
 8005a9e:	601a      	str	r2, [r3, #0]
    __HAL_UART_CLEAR_FLAG(hAtc->hUart, 0xFFFFFFFF);
    HAL_UART_AbortReceive(hAtc->hUart);
    HAL_UARTEx_ReceiveToIdle_DMA(hAtc->hUart, hAtc->pRxBuff, hAtc->Size);
    __HAL_DMA_DISABLE_IT(hAtc->hUart->hdmarx, DMA_IT_HT);
  }
}
 8005aa0:	e01f      	b.n	8005ae2 <ATC_IdleLineCallback+0xc8>
    __HAL_UART_CLEAR_FLAG(hAtc->hUart, 0xFFFFFFFF);
 8005aa2:	687b      	ldr	r3, [r7, #4]
 8005aa4:	681b      	ldr	r3, [r3, #0]
 8005aa6:	681b      	ldr	r3, [r3, #0]
 8005aa8:	2201      	movs	r2, #1
 8005aaa:	4252      	negs	r2, r2
 8005aac:	621a      	str	r2, [r3, #32]
    HAL_UART_AbortReceive(hAtc->hUart);
 8005aae:	687b      	ldr	r3, [r7, #4]
 8005ab0:	681b      	ldr	r3, [r3, #0]
 8005ab2:	0018      	movs	r0, r3
 8005ab4:	f7fe f8a2 	bl	8003bfc <HAL_UART_AbortReceive>
    HAL_UARTEx_ReceiveToIdle_DMA(hAtc->hUart, hAtc->pRxBuff, hAtc->Size);
 8005ab8:	687b      	ldr	r3, [r7, #4]
 8005aba:	6818      	ldr	r0, [r3, #0]
 8005abc:	687b      	ldr	r3, [r7, #4]
 8005abe:	69d9      	ldr	r1, [r3, #28]
 8005ac0:	687b      	ldr	r3, [r7, #4]
 8005ac2:	8a9b      	ldrh	r3, [r3, #20]
 8005ac4:	001a      	movs	r2, r3
 8005ac6:	f7ff fbee 	bl	80052a6 <HAL_UARTEx_ReceiveToIdle_DMA>
    __HAL_DMA_DISABLE_IT(hAtc->hUart->hdmarx, DMA_IT_HT);
 8005aca:	687b      	ldr	r3, [r7, #4]
 8005acc:	681b      	ldr	r3, [r3, #0]
 8005ace:	6f5b      	ldr	r3, [r3, #116]	@ 0x74
 8005ad0:	681b      	ldr	r3, [r3, #0]
 8005ad2:	681a      	ldr	r2, [r3, #0]
 8005ad4:	687b      	ldr	r3, [r7, #4]
 8005ad6:	681b      	ldr	r3, [r3, #0]
 8005ad8:	6f5b      	ldr	r3, [r3, #116]	@ 0x74
 8005ada:	681b      	ldr	r3, [r3, #0]
 8005adc:	2104      	movs	r1, #4
 8005ade:	438a      	bics	r2, r1
 8005ae0:	601a      	str	r2, [r3, #0]
}
 8005ae2:	46c0      	nop			@ (mov r8, r8)
 8005ae4:	46bd      	mov	sp, r7
 8005ae6:	b002      	add	sp, #8
 8005ae8:	bd80      	pop	{r7, pc}

08005aea <ATC_Delay>:
  * @brief  Delay function.
  * @param  Delay: delay in milisecond..
  * @retval None.
  */
void ATC_Delay(uint32_t Delay)
{
 8005aea:	b580      	push	{r7, lr}
 8005aec:	b082      	sub	sp, #8
 8005aee:	af00      	add	r7, sp, #0
 8005af0:	6078      	str	r0, [r7, #4]
#if ATC_RTOS == ATC_RTOS_DISABLE
  HAL_Delay(Delay);
 8005af2:	687b      	ldr	r3, [r7, #4]
 8005af4:	0018      	movs	r0, r3
 8005af6:	f7fb fbe9 	bl	80012cc <HAL_Delay>
  uint32_t d = (TX_TIMER_TICKS_PER_SECOND * Delay) / 1000;
  if (d == 0)
    d = 1;
  tx_thread_sleep(d);
#endif
}
 8005afa:	46c0      	nop			@ (mov r8, r8)
 8005afc:	46bd      	mov	sp, r7
 8005afe:	b002      	add	sp, #8
 8005b00:	bd80      	pop	{r7, pc}
	...

08005b04 <malloc>:
 8005b04:	b510      	push	{r4, lr}
 8005b06:	4b03      	ldr	r3, [pc, #12]	@ (8005b14 <malloc+0x10>)
 8005b08:	0001      	movs	r1, r0
 8005b0a:	6818      	ldr	r0, [r3, #0]
 8005b0c:	f000 f830 	bl	8005b70 <_malloc_r>
 8005b10:	bd10      	pop	{r4, pc}
 8005b12:	46c0      	nop			@ (mov r8, r8)
 8005b14:	20000010 	.word	0x20000010

08005b18 <free>:
 8005b18:	b510      	push	{r4, lr}
 8005b1a:	4b03      	ldr	r3, [pc, #12]	@ (8005b28 <free+0x10>)
 8005b1c:	0001      	movs	r1, r0
 8005b1e:	6818      	ldr	r0, [r3, #0]
 8005b20:	f000 f96e 	bl	8005e00 <_free_r>
 8005b24:	bd10      	pop	{r4, pc}
 8005b26:	46c0      	nop			@ (mov r8, r8)
 8005b28:	20000010 	.word	0x20000010

08005b2c <sbrk_aligned>:
 8005b2c:	b570      	push	{r4, r5, r6, lr}
 8005b2e:	4e0f      	ldr	r6, [pc, #60]	@ (8005b6c <sbrk_aligned+0x40>)
 8005b30:	000d      	movs	r5, r1
 8005b32:	6831      	ldr	r1, [r6, #0]
 8005b34:	0004      	movs	r4, r0
 8005b36:	2900      	cmp	r1, #0
 8005b38:	d102      	bne.n	8005b40 <sbrk_aligned+0x14>
 8005b3a:	f000 f911 	bl	8005d60 <_sbrk_r>
 8005b3e:	6030      	str	r0, [r6, #0]
 8005b40:	0029      	movs	r1, r5
 8005b42:	0020      	movs	r0, r4
 8005b44:	f000 f90c 	bl	8005d60 <_sbrk_r>
 8005b48:	1c43      	adds	r3, r0, #1
 8005b4a:	d103      	bne.n	8005b54 <sbrk_aligned+0x28>
 8005b4c:	2501      	movs	r5, #1
 8005b4e:	426d      	negs	r5, r5
 8005b50:	0028      	movs	r0, r5
 8005b52:	bd70      	pop	{r4, r5, r6, pc}
 8005b54:	2303      	movs	r3, #3
 8005b56:	1cc5      	adds	r5, r0, #3
 8005b58:	439d      	bics	r5, r3
 8005b5a:	42a8      	cmp	r0, r5
 8005b5c:	d0f8      	beq.n	8005b50 <sbrk_aligned+0x24>
 8005b5e:	1a29      	subs	r1, r5, r0
 8005b60:	0020      	movs	r0, r4
 8005b62:	f000 f8fd 	bl	8005d60 <_sbrk_r>
 8005b66:	3001      	adds	r0, #1
 8005b68:	d1f2      	bne.n	8005b50 <sbrk_aligned+0x24>
 8005b6a:	e7ef      	b.n	8005b4c <sbrk_aligned+0x20>
 8005b6c:	200003a8 	.word	0x200003a8

08005b70 <_malloc_r>:
 8005b70:	b5f7      	push	{r0, r1, r2, r4, r5, r6, r7, lr}
 8005b72:	2203      	movs	r2, #3
 8005b74:	1ccb      	adds	r3, r1, #3
 8005b76:	4393      	bics	r3, r2
 8005b78:	3308      	adds	r3, #8
 8005b7a:	0005      	movs	r5, r0
 8005b7c:	001f      	movs	r7, r3
 8005b7e:	2b0c      	cmp	r3, #12
 8005b80:	d234      	bcs.n	8005bec <_malloc_r+0x7c>
 8005b82:	270c      	movs	r7, #12
 8005b84:	42b9      	cmp	r1, r7
 8005b86:	d833      	bhi.n	8005bf0 <_malloc_r+0x80>
 8005b88:	0028      	movs	r0, r5
 8005b8a:	f000 f871 	bl	8005c70 <__malloc_lock>
 8005b8e:	4e37      	ldr	r6, [pc, #220]	@ (8005c6c <_malloc_r+0xfc>)
 8005b90:	6833      	ldr	r3, [r6, #0]
 8005b92:	001c      	movs	r4, r3
 8005b94:	2c00      	cmp	r4, #0
 8005b96:	d12f      	bne.n	8005bf8 <_malloc_r+0x88>
 8005b98:	0039      	movs	r1, r7
 8005b9a:	0028      	movs	r0, r5
 8005b9c:	f7ff ffc6 	bl	8005b2c <sbrk_aligned>
 8005ba0:	0004      	movs	r4, r0
 8005ba2:	1c43      	adds	r3, r0, #1
 8005ba4:	d15f      	bne.n	8005c66 <_malloc_r+0xf6>
 8005ba6:	6834      	ldr	r4, [r6, #0]
 8005ba8:	9400      	str	r4, [sp, #0]
 8005baa:	9b00      	ldr	r3, [sp, #0]
 8005bac:	2b00      	cmp	r3, #0
 8005bae:	d14a      	bne.n	8005c46 <_malloc_r+0xd6>
 8005bb0:	2c00      	cmp	r4, #0
 8005bb2:	d052      	beq.n	8005c5a <_malloc_r+0xea>
 8005bb4:	6823      	ldr	r3, [r4, #0]
 8005bb6:	0028      	movs	r0, r5
 8005bb8:	18e3      	adds	r3, r4, r3
 8005bba:	9900      	ldr	r1, [sp, #0]
 8005bbc:	9301      	str	r3, [sp, #4]
 8005bbe:	f000 f8cf 	bl	8005d60 <_sbrk_r>
 8005bc2:	9b01      	ldr	r3, [sp, #4]
 8005bc4:	4283      	cmp	r3, r0
 8005bc6:	d148      	bne.n	8005c5a <_malloc_r+0xea>
 8005bc8:	6823      	ldr	r3, [r4, #0]
 8005bca:	0028      	movs	r0, r5
 8005bcc:	1aff      	subs	r7, r7, r3
 8005bce:	0039      	movs	r1, r7
 8005bd0:	f7ff ffac 	bl	8005b2c <sbrk_aligned>
 8005bd4:	3001      	adds	r0, #1
 8005bd6:	d040      	beq.n	8005c5a <_malloc_r+0xea>
 8005bd8:	6823      	ldr	r3, [r4, #0]
 8005bda:	19db      	adds	r3, r3, r7
 8005bdc:	6023      	str	r3, [r4, #0]
 8005bde:	6833      	ldr	r3, [r6, #0]
 8005be0:	685a      	ldr	r2, [r3, #4]
 8005be2:	2a00      	cmp	r2, #0
 8005be4:	d133      	bne.n	8005c4e <_malloc_r+0xde>
 8005be6:	9b00      	ldr	r3, [sp, #0]
 8005be8:	6033      	str	r3, [r6, #0]
 8005bea:	e019      	b.n	8005c20 <_malloc_r+0xb0>
 8005bec:	2b00      	cmp	r3, #0
 8005bee:	dac9      	bge.n	8005b84 <_malloc_r+0x14>
 8005bf0:	230c      	movs	r3, #12
 8005bf2:	602b      	str	r3, [r5, #0]
 8005bf4:	2000      	movs	r0, #0
 8005bf6:	bdfe      	pop	{r1, r2, r3, r4, r5, r6, r7, pc}
 8005bf8:	6821      	ldr	r1, [r4, #0]
 8005bfa:	1bc9      	subs	r1, r1, r7
 8005bfc:	d420      	bmi.n	8005c40 <_malloc_r+0xd0>
 8005bfe:	290b      	cmp	r1, #11
 8005c00:	d90a      	bls.n	8005c18 <_malloc_r+0xa8>
 8005c02:	19e2      	adds	r2, r4, r7
 8005c04:	6027      	str	r7, [r4, #0]
 8005c06:	42a3      	cmp	r3, r4
 8005c08:	d104      	bne.n	8005c14 <_malloc_r+0xa4>
 8005c0a:	6032      	str	r2, [r6, #0]
 8005c0c:	6863      	ldr	r3, [r4, #4]
 8005c0e:	6011      	str	r1, [r2, #0]
 8005c10:	6053      	str	r3, [r2, #4]
 8005c12:	e005      	b.n	8005c20 <_malloc_r+0xb0>
 8005c14:	605a      	str	r2, [r3, #4]
 8005c16:	e7f9      	b.n	8005c0c <_malloc_r+0x9c>
 8005c18:	6862      	ldr	r2, [r4, #4]
 8005c1a:	42a3      	cmp	r3, r4
 8005c1c:	d10e      	bne.n	8005c3c <_malloc_r+0xcc>
 8005c1e:	6032      	str	r2, [r6, #0]
 8005c20:	0028      	movs	r0, r5
 8005c22:	f000 f82d 	bl	8005c80 <__malloc_unlock>
 8005c26:	0020      	movs	r0, r4
 8005c28:	2207      	movs	r2, #7
 8005c2a:	300b      	adds	r0, #11
 8005c2c:	1d23      	adds	r3, r4, #4
 8005c2e:	4390      	bics	r0, r2
 8005c30:	1ac2      	subs	r2, r0, r3
 8005c32:	4298      	cmp	r0, r3
 8005c34:	d0df      	beq.n	8005bf6 <_malloc_r+0x86>
 8005c36:	1a1b      	subs	r3, r3, r0
 8005c38:	50a3      	str	r3, [r4, r2]
 8005c3a:	e7dc      	b.n	8005bf6 <_malloc_r+0x86>
 8005c3c:	605a      	str	r2, [r3, #4]
 8005c3e:	e7ef      	b.n	8005c20 <_malloc_r+0xb0>
 8005c40:	0023      	movs	r3, r4
 8005c42:	6864      	ldr	r4, [r4, #4]
 8005c44:	e7a6      	b.n	8005b94 <_malloc_r+0x24>
 8005c46:	9c00      	ldr	r4, [sp, #0]
 8005c48:	6863      	ldr	r3, [r4, #4]
 8005c4a:	9300      	str	r3, [sp, #0]
 8005c4c:	e7ad      	b.n	8005baa <_malloc_r+0x3a>
 8005c4e:	001a      	movs	r2, r3
 8005c50:	685b      	ldr	r3, [r3, #4]
 8005c52:	42a3      	cmp	r3, r4
 8005c54:	d1fb      	bne.n	8005c4e <_malloc_r+0xde>
 8005c56:	2300      	movs	r3, #0
 8005c58:	e7da      	b.n	8005c10 <_malloc_r+0xa0>
 8005c5a:	230c      	movs	r3, #12
 8005c5c:	0028      	movs	r0, r5
 8005c5e:	602b      	str	r3, [r5, #0]
 8005c60:	f000 f80e 	bl	8005c80 <__malloc_unlock>
 8005c64:	e7c6      	b.n	8005bf4 <_malloc_r+0x84>
 8005c66:	6007      	str	r7, [r0, #0]
 8005c68:	e7da      	b.n	8005c20 <_malloc_r+0xb0>
 8005c6a:	46c0      	nop			@ (mov r8, r8)
 8005c6c:	200003ac 	.word	0x200003ac

08005c70 <__malloc_lock>:
 8005c70:	b510      	push	{r4, lr}
 8005c72:	4802      	ldr	r0, [pc, #8]	@ (8005c7c <__malloc_lock+0xc>)
 8005c74:	f000 f8b0 	bl	8005dd8 <__retarget_lock_acquire_recursive>
 8005c78:	bd10      	pop	{r4, pc}
 8005c7a:	46c0      	nop			@ (mov r8, r8)
 8005c7c:	200004ec 	.word	0x200004ec

08005c80 <__malloc_unlock>:
 8005c80:	b510      	push	{r4, lr}
 8005c82:	4802      	ldr	r0, [pc, #8]	@ (8005c8c <__malloc_unlock+0xc>)
 8005c84:	f000 f8a9 	bl	8005dda <__retarget_lock_release_recursive>
 8005c88:	bd10      	pop	{r4, pc}
 8005c8a:	46c0      	nop			@ (mov r8, r8)
 8005c8c:	200004ec 	.word	0x200004ec

08005c90 <sniprintf>:
 8005c90:	b40c      	push	{r2, r3}
 8005c92:	b530      	push	{r4, r5, lr}
 8005c94:	4b18      	ldr	r3, [pc, #96]	@ (8005cf8 <sniprintf+0x68>)
 8005c96:	000c      	movs	r4, r1
 8005c98:	681d      	ldr	r5, [r3, #0]
 8005c9a:	b09d      	sub	sp, #116	@ 0x74
 8005c9c:	2900      	cmp	r1, #0
 8005c9e:	da08      	bge.n	8005cb2 <sniprintf+0x22>
 8005ca0:	238b      	movs	r3, #139	@ 0x8b
 8005ca2:	2001      	movs	r0, #1
 8005ca4:	602b      	str	r3, [r5, #0]
 8005ca6:	4240      	negs	r0, r0
 8005ca8:	b01d      	add	sp, #116	@ 0x74
 8005caa:	bc30      	pop	{r4, r5}
 8005cac:	bc08      	pop	{r3}
 8005cae:	b002      	add	sp, #8
 8005cb0:	4718      	bx	r3
 8005cb2:	2382      	movs	r3, #130	@ 0x82
 8005cb4:	466a      	mov	r2, sp
 8005cb6:	009b      	lsls	r3, r3, #2
 8005cb8:	8293      	strh	r3, [r2, #20]
 8005cba:	2300      	movs	r3, #0
 8005cbc:	9002      	str	r0, [sp, #8]
 8005cbe:	931b      	str	r3, [sp, #108]	@ 0x6c
 8005cc0:	9006      	str	r0, [sp, #24]
 8005cc2:	4299      	cmp	r1, r3
 8005cc4:	d000      	beq.n	8005cc8 <sniprintf+0x38>
 8005cc6:	1e4b      	subs	r3, r1, #1
 8005cc8:	9304      	str	r3, [sp, #16]
 8005cca:	9307      	str	r3, [sp, #28]
 8005ccc:	2301      	movs	r3, #1
 8005cce:	466a      	mov	r2, sp
 8005cd0:	425b      	negs	r3, r3
 8005cd2:	82d3      	strh	r3, [r2, #22]
 8005cd4:	0028      	movs	r0, r5
 8005cd6:	ab21      	add	r3, sp, #132	@ 0x84
 8005cd8:	9a20      	ldr	r2, [sp, #128]	@ 0x80
 8005cda:	a902      	add	r1, sp, #8
 8005cdc:	9301      	str	r3, [sp, #4]
 8005cde:	f000 f939 	bl	8005f54 <_svfiprintf_r>
 8005ce2:	1c43      	adds	r3, r0, #1
 8005ce4:	da01      	bge.n	8005cea <sniprintf+0x5a>
 8005ce6:	238b      	movs	r3, #139	@ 0x8b
 8005ce8:	602b      	str	r3, [r5, #0]
 8005cea:	2c00      	cmp	r4, #0
 8005cec:	d0dc      	beq.n	8005ca8 <sniprintf+0x18>
 8005cee:	2200      	movs	r2, #0
 8005cf0:	9b02      	ldr	r3, [sp, #8]
 8005cf2:	701a      	strb	r2, [r3, #0]
 8005cf4:	e7d8      	b.n	8005ca8 <sniprintf+0x18>
 8005cf6:	46c0      	nop			@ (mov r8, r8)
 8005cf8:	20000010 	.word	0x20000010

08005cfc <memset>:
 8005cfc:	0003      	movs	r3, r0
 8005cfe:	1882      	adds	r2, r0, r2
 8005d00:	4293      	cmp	r3, r2
 8005d02:	d100      	bne.n	8005d06 <memset+0xa>
 8005d04:	4770      	bx	lr
 8005d06:	7019      	strb	r1, [r3, #0]
 8005d08:	3301      	adds	r3, #1
 8005d0a:	e7f9      	b.n	8005d00 <memset+0x4>

08005d0c <strncpy>:
 8005d0c:	0003      	movs	r3, r0
 8005d0e:	b530      	push	{r4, r5, lr}
 8005d10:	001d      	movs	r5, r3
 8005d12:	2a00      	cmp	r2, #0
 8005d14:	d006      	beq.n	8005d24 <strncpy+0x18>
 8005d16:	780c      	ldrb	r4, [r1, #0]
 8005d18:	3a01      	subs	r2, #1
 8005d1a:	3301      	adds	r3, #1
 8005d1c:	702c      	strb	r4, [r5, #0]
 8005d1e:	3101      	adds	r1, #1
 8005d20:	2c00      	cmp	r4, #0
 8005d22:	d1f5      	bne.n	8005d10 <strncpy+0x4>
 8005d24:	2100      	movs	r1, #0
 8005d26:	189a      	adds	r2, r3, r2
 8005d28:	4293      	cmp	r3, r2
 8005d2a:	d100      	bne.n	8005d2e <strncpy+0x22>
 8005d2c:	bd30      	pop	{r4, r5, pc}
 8005d2e:	7019      	strb	r1, [r3, #0]
 8005d30:	3301      	adds	r3, #1
 8005d32:	e7f9      	b.n	8005d28 <strncpy+0x1c>

08005d34 <strstr>:
 8005d34:	780a      	ldrb	r2, [r1, #0]
 8005d36:	b530      	push	{r4, r5, lr}
 8005d38:	2a00      	cmp	r2, #0
 8005d3a:	d10c      	bne.n	8005d56 <strstr+0x22>
 8005d3c:	bd30      	pop	{r4, r5, pc}
 8005d3e:	429a      	cmp	r2, r3
 8005d40:	d108      	bne.n	8005d54 <strstr+0x20>
 8005d42:	2301      	movs	r3, #1
 8005d44:	5ccc      	ldrb	r4, [r1, r3]
 8005d46:	2c00      	cmp	r4, #0
 8005d48:	d0f8      	beq.n	8005d3c <strstr+0x8>
 8005d4a:	5cc5      	ldrb	r5, [r0, r3]
 8005d4c:	42a5      	cmp	r5, r4
 8005d4e:	d101      	bne.n	8005d54 <strstr+0x20>
 8005d50:	3301      	adds	r3, #1
 8005d52:	e7f7      	b.n	8005d44 <strstr+0x10>
 8005d54:	3001      	adds	r0, #1
 8005d56:	7803      	ldrb	r3, [r0, #0]
 8005d58:	2b00      	cmp	r3, #0
 8005d5a:	d1f0      	bne.n	8005d3e <strstr+0xa>
 8005d5c:	0018      	movs	r0, r3
 8005d5e:	e7ed      	b.n	8005d3c <strstr+0x8>

08005d60 <_sbrk_r>:
 8005d60:	2300      	movs	r3, #0
 8005d62:	b570      	push	{r4, r5, r6, lr}
 8005d64:	4d06      	ldr	r5, [pc, #24]	@ (8005d80 <_sbrk_r+0x20>)
 8005d66:	0004      	movs	r4, r0
 8005d68:	0008      	movs	r0, r1
 8005d6a:	602b      	str	r3, [r5, #0]
 8005d6c:	f7fa fff8 	bl	8000d60 <_sbrk>
 8005d70:	1c43      	adds	r3, r0, #1
 8005d72:	d103      	bne.n	8005d7c <_sbrk_r+0x1c>
 8005d74:	682b      	ldr	r3, [r5, #0]
 8005d76:	2b00      	cmp	r3, #0
 8005d78:	d000      	beq.n	8005d7c <_sbrk_r+0x1c>
 8005d7a:	6023      	str	r3, [r4, #0]
 8005d7c:	bd70      	pop	{r4, r5, r6, pc}
 8005d7e:	46c0      	nop			@ (mov r8, r8)
 8005d80:	200004e8 	.word	0x200004e8

08005d84 <__errno>:
 8005d84:	4b01      	ldr	r3, [pc, #4]	@ (8005d8c <__errno+0x8>)
 8005d86:	6818      	ldr	r0, [r3, #0]
 8005d88:	4770      	bx	lr
 8005d8a:	46c0      	nop			@ (mov r8, r8)
 8005d8c:	20000010 	.word	0x20000010

08005d90 <__libc_init_array>:
 8005d90:	b570      	push	{r4, r5, r6, lr}
 8005d92:	2600      	movs	r6, #0
 8005d94:	4c0c      	ldr	r4, [pc, #48]	@ (8005dc8 <__libc_init_array+0x38>)
 8005d96:	4d0d      	ldr	r5, [pc, #52]	@ (8005dcc <__libc_init_array+0x3c>)
 8005d98:	1b64      	subs	r4, r4, r5
 8005d9a:	10a4      	asrs	r4, r4, #2
 8005d9c:	42a6      	cmp	r6, r4
 8005d9e:	d109      	bne.n	8005db4 <__libc_init_array+0x24>
 8005da0:	2600      	movs	r6, #0
 8005da2:	f000 fba7 	bl	80064f4 <_init>
 8005da6:	4c0a      	ldr	r4, [pc, #40]	@ (8005dd0 <__libc_init_array+0x40>)
 8005da8:	4d0a      	ldr	r5, [pc, #40]	@ (8005dd4 <__libc_init_array+0x44>)
 8005daa:	1b64      	subs	r4, r4, r5
 8005dac:	10a4      	asrs	r4, r4, #2
 8005dae:	42a6      	cmp	r6, r4
 8005db0:	d105      	bne.n	8005dbe <__libc_init_array+0x2e>
 8005db2:	bd70      	pop	{r4, r5, r6, pc}
 8005db4:	00b3      	lsls	r3, r6, #2
 8005db6:	58eb      	ldr	r3, [r5, r3]
 8005db8:	4798      	blx	r3
 8005dba:	3601      	adds	r6, #1
 8005dbc:	e7ee      	b.n	8005d9c <__libc_init_array+0xc>
 8005dbe:	00b3      	lsls	r3, r6, #2
 8005dc0:	58eb      	ldr	r3, [r5, r3]
 8005dc2:	4798      	blx	r3
 8005dc4:	3601      	adds	r6, #1
 8005dc6:	e7f2      	b.n	8005dae <__libc_init_array+0x1e>
 8005dc8:	08006670 	.word	0x08006670
 8005dcc:	08006670 	.word	0x08006670
 8005dd0:	08006674 	.word	0x08006674
 8005dd4:	08006670 	.word	0x08006670

08005dd8 <__retarget_lock_acquire_recursive>:
 8005dd8:	4770      	bx	lr

08005dda <__retarget_lock_release_recursive>:
 8005dda:	4770      	bx	lr

08005ddc <strcpy>:
 8005ddc:	0003      	movs	r3, r0
 8005dde:	780a      	ldrb	r2, [r1, #0]
 8005de0:	3101      	adds	r1, #1
 8005de2:	701a      	strb	r2, [r3, #0]
 8005de4:	3301      	adds	r3, #1
 8005de6:	2a00      	cmp	r2, #0
 8005de8:	d1f9      	bne.n	8005dde <strcpy+0x2>
 8005dea:	4770      	bx	lr

08005dec <memcpy>:
 8005dec:	2300      	movs	r3, #0
 8005dee:	b510      	push	{r4, lr}
 8005df0:	429a      	cmp	r2, r3
 8005df2:	d100      	bne.n	8005df6 <memcpy+0xa>
 8005df4:	bd10      	pop	{r4, pc}
 8005df6:	5ccc      	ldrb	r4, [r1, r3]
 8005df8:	54c4      	strb	r4, [r0, r3]
 8005dfa:	3301      	adds	r3, #1
 8005dfc:	e7f8      	b.n	8005df0 <memcpy+0x4>
	...

08005e00 <_free_r>:
 8005e00:	b570      	push	{r4, r5, r6, lr}
 8005e02:	0005      	movs	r5, r0
 8005e04:	1e0c      	subs	r4, r1, #0
 8005e06:	d010      	beq.n	8005e2a <_free_r+0x2a>
 8005e08:	3c04      	subs	r4, #4
 8005e0a:	6823      	ldr	r3, [r4, #0]
 8005e0c:	2b00      	cmp	r3, #0
 8005e0e:	da00      	bge.n	8005e12 <_free_r+0x12>
 8005e10:	18e4      	adds	r4, r4, r3
 8005e12:	0028      	movs	r0, r5
 8005e14:	f7ff ff2c 	bl	8005c70 <__malloc_lock>
 8005e18:	4a1d      	ldr	r2, [pc, #116]	@ (8005e90 <_free_r+0x90>)
 8005e1a:	6813      	ldr	r3, [r2, #0]
 8005e1c:	2b00      	cmp	r3, #0
 8005e1e:	d105      	bne.n	8005e2c <_free_r+0x2c>
 8005e20:	6063      	str	r3, [r4, #4]
 8005e22:	6014      	str	r4, [r2, #0]
 8005e24:	0028      	movs	r0, r5
 8005e26:	f7ff ff2b 	bl	8005c80 <__malloc_unlock>
 8005e2a:	bd70      	pop	{r4, r5, r6, pc}
 8005e2c:	42a3      	cmp	r3, r4
 8005e2e:	d908      	bls.n	8005e42 <_free_r+0x42>
 8005e30:	6820      	ldr	r0, [r4, #0]
 8005e32:	1821      	adds	r1, r4, r0
 8005e34:	428b      	cmp	r3, r1
 8005e36:	d1f3      	bne.n	8005e20 <_free_r+0x20>
 8005e38:	6819      	ldr	r1, [r3, #0]
 8005e3a:	685b      	ldr	r3, [r3, #4]
 8005e3c:	1809      	adds	r1, r1, r0
 8005e3e:	6021      	str	r1, [r4, #0]
 8005e40:	e7ee      	b.n	8005e20 <_free_r+0x20>
 8005e42:	001a      	movs	r2, r3
 8005e44:	685b      	ldr	r3, [r3, #4]
 8005e46:	2b00      	cmp	r3, #0
 8005e48:	d001      	beq.n	8005e4e <_free_r+0x4e>
 8005e4a:	42a3      	cmp	r3, r4
 8005e4c:	d9f9      	bls.n	8005e42 <_free_r+0x42>
 8005e4e:	6811      	ldr	r1, [r2, #0]
 8005e50:	1850      	adds	r0, r2, r1
 8005e52:	42a0      	cmp	r0, r4
 8005e54:	d10b      	bne.n	8005e6e <_free_r+0x6e>
 8005e56:	6820      	ldr	r0, [r4, #0]
 8005e58:	1809      	adds	r1, r1, r0
 8005e5a:	1850      	adds	r0, r2, r1
 8005e5c:	6011      	str	r1, [r2, #0]
 8005e5e:	4283      	cmp	r3, r0
 8005e60:	d1e0      	bne.n	8005e24 <_free_r+0x24>
 8005e62:	6818      	ldr	r0, [r3, #0]
 8005e64:	685b      	ldr	r3, [r3, #4]
 8005e66:	1841      	adds	r1, r0, r1
 8005e68:	6011      	str	r1, [r2, #0]
 8005e6a:	6053      	str	r3, [r2, #4]
 8005e6c:	e7da      	b.n	8005e24 <_free_r+0x24>
 8005e6e:	42a0      	cmp	r0, r4
 8005e70:	d902      	bls.n	8005e78 <_free_r+0x78>
 8005e72:	230c      	movs	r3, #12
 8005e74:	602b      	str	r3, [r5, #0]
 8005e76:	e7d5      	b.n	8005e24 <_free_r+0x24>
 8005e78:	6820      	ldr	r0, [r4, #0]
 8005e7a:	1821      	adds	r1, r4, r0
 8005e7c:	428b      	cmp	r3, r1
 8005e7e:	d103      	bne.n	8005e88 <_free_r+0x88>
 8005e80:	6819      	ldr	r1, [r3, #0]
 8005e82:	685b      	ldr	r3, [r3, #4]
 8005e84:	1809      	adds	r1, r1, r0
 8005e86:	6021      	str	r1, [r4, #0]
 8005e88:	6063      	str	r3, [r4, #4]
 8005e8a:	6054      	str	r4, [r2, #4]
 8005e8c:	e7ca      	b.n	8005e24 <_free_r+0x24>
 8005e8e:	46c0      	nop			@ (mov r8, r8)
 8005e90:	200003ac 	.word	0x200003ac

08005e94 <__ssputs_r>:
 8005e94:	b5f0      	push	{r4, r5, r6, r7, lr}
 8005e96:	688e      	ldr	r6, [r1, #8]
 8005e98:	b085      	sub	sp, #20
 8005e9a:	001f      	movs	r7, r3
 8005e9c:	000c      	movs	r4, r1
 8005e9e:	680b      	ldr	r3, [r1, #0]
 8005ea0:	9002      	str	r0, [sp, #8]
 8005ea2:	9203      	str	r2, [sp, #12]
 8005ea4:	42be      	cmp	r6, r7
 8005ea6:	d830      	bhi.n	8005f0a <__ssputs_r+0x76>
 8005ea8:	210c      	movs	r1, #12
 8005eaa:	5e62      	ldrsh	r2, [r4, r1]
 8005eac:	2190      	movs	r1, #144	@ 0x90
 8005eae:	00c9      	lsls	r1, r1, #3
 8005eb0:	420a      	tst	r2, r1
 8005eb2:	d028      	beq.n	8005f06 <__ssputs_r+0x72>
 8005eb4:	2003      	movs	r0, #3
 8005eb6:	6921      	ldr	r1, [r4, #16]
 8005eb8:	1a5b      	subs	r3, r3, r1
 8005eba:	9301      	str	r3, [sp, #4]
 8005ebc:	6963      	ldr	r3, [r4, #20]
 8005ebe:	4343      	muls	r3, r0
 8005ec0:	9801      	ldr	r0, [sp, #4]
 8005ec2:	0fdd      	lsrs	r5, r3, #31
 8005ec4:	18ed      	adds	r5, r5, r3
 8005ec6:	1c7b      	adds	r3, r7, #1
 8005ec8:	181b      	adds	r3, r3, r0
 8005eca:	106d      	asrs	r5, r5, #1
 8005ecc:	42ab      	cmp	r3, r5
 8005ece:	d900      	bls.n	8005ed2 <__ssputs_r+0x3e>
 8005ed0:	001d      	movs	r5, r3
 8005ed2:	0552      	lsls	r2, r2, #21
 8005ed4:	d528      	bpl.n	8005f28 <__ssputs_r+0x94>
 8005ed6:	0029      	movs	r1, r5
 8005ed8:	9802      	ldr	r0, [sp, #8]
 8005eda:	f7ff fe49 	bl	8005b70 <_malloc_r>
 8005ede:	1e06      	subs	r6, r0, #0
 8005ee0:	d02c      	beq.n	8005f3c <__ssputs_r+0xa8>
 8005ee2:	9a01      	ldr	r2, [sp, #4]
 8005ee4:	6921      	ldr	r1, [r4, #16]
 8005ee6:	f7ff ff81 	bl	8005dec <memcpy>
 8005eea:	89a2      	ldrh	r2, [r4, #12]
 8005eec:	4b18      	ldr	r3, [pc, #96]	@ (8005f50 <__ssputs_r+0xbc>)
 8005eee:	401a      	ands	r2, r3
 8005ef0:	2380      	movs	r3, #128	@ 0x80
 8005ef2:	4313      	orrs	r3, r2
 8005ef4:	81a3      	strh	r3, [r4, #12]
 8005ef6:	9b01      	ldr	r3, [sp, #4]
 8005ef8:	6126      	str	r6, [r4, #16]
 8005efa:	18f6      	adds	r6, r6, r3
 8005efc:	6026      	str	r6, [r4, #0]
 8005efe:	003e      	movs	r6, r7
 8005f00:	6165      	str	r5, [r4, #20]
 8005f02:	1aed      	subs	r5, r5, r3
 8005f04:	60a5      	str	r5, [r4, #8]
 8005f06:	42be      	cmp	r6, r7
 8005f08:	d900      	bls.n	8005f0c <__ssputs_r+0x78>
 8005f0a:	003e      	movs	r6, r7
 8005f0c:	0032      	movs	r2, r6
 8005f0e:	9903      	ldr	r1, [sp, #12]
 8005f10:	6820      	ldr	r0, [r4, #0]
 8005f12:	f000 fa99 	bl	8006448 <memmove>
 8005f16:	2000      	movs	r0, #0
 8005f18:	68a3      	ldr	r3, [r4, #8]
 8005f1a:	1b9b      	subs	r3, r3, r6
 8005f1c:	60a3      	str	r3, [r4, #8]
 8005f1e:	6823      	ldr	r3, [r4, #0]
 8005f20:	199b      	adds	r3, r3, r6
 8005f22:	6023      	str	r3, [r4, #0]
 8005f24:	b005      	add	sp, #20
 8005f26:	bdf0      	pop	{r4, r5, r6, r7, pc}
 8005f28:	002a      	movs	r2, r5
 8005f2a:	9802      	ldr	r0, [sp, #8]
 8005f2c:	f000 faa9 	bl	8006482 <_realloc_r>
 8005f30:	1e06      	subs	r6, r0, #0
 8005f32:	d1e0      	bne.n	8005ef6 <__ssputs_r+0x62>
 8005f34:	6921      	ldr	r1, [r4, #16]
 8005f36:	9802      	ldr	r0, [sp, #8]
 8005f38:	f7ff ff62 	bl	8005e00 <_free_r>
 8005f3c:	230c      	movs	r3, #12
 8005f3e:	2001      	movs	r0, #1
 8005f40:	9a02      	ldr	r2, [sp, #8]
 8005f42:	4240      	negs	r0, r0
 8005f44:	6013      	str	r3, [r2, #0]
 8005f46:	89a2      	ldrh	r2, [r4, #12]
 8005f48:	3334      	adds	r3, #52	@ 0x34
 8005f4a:	4313      	orrs	r3, r2
 8005f4c:	81a3      	strh	r3, [r4, #12]
 8005f4e:	e7e9      	b.n	8005f24 <__ssputs_r+0x90>
 8005f50:	fffffb7f 	.word	0xfffffb7f

08005f54 <_svfiprintf_r>:
 8005f54:	b5f0      	push	{r4, r5, r6, r7, lr}
 8005f56:	b0a1      	sub	sp, #132	@ 0x84
 8005f58:	9003      	str	r0, [sp, #12]
 8005f5a:	001d      	movs	r5, r3
 8005f5c:	898b      	ldrh	r3, [r1, #12]
 8005f5e:	000f      	movs	r7, r1
 8005f60:	0016      	movs	r6, r2
 8005f62:	061b      	lsls	r3, r3, #24
 8005f64:	d511      	bpl.n	8005f8a <_svfiprintf_r+0x36>
 8005f66:	690b      	ldr	r3, [r1, #16]
 8005f68:	2b00      	cmp	r3, #0
 8005f6a:	d10e      	bne.n	8005f8a <_svfiprintf_r+0x36>
 8005f6c:	2140      	movs	r1, #64	@ 0x40
 8005f6e:	f7ff fdff 	bl	8005b70 <_malloc_r>
 8005f72:	6038      	str	r0, [r7, #0]
 8005f74:	6138      	str	r0, [r7, #16]
 8005f76:	2800      	cmp	r0, #0
 8005f78:	d105      	bne.n	8005f86 <_svfiprintf_r+0x32>
 8005f7a:	230c      	movs	r3, #12
 8005f7c:	9a03      	ldr	r2, [sp, #12]
 8005f7e:	6013      	str	r3, [r2, #0]
 8005f80:	2001      	movs	r0, #1
 8005f82:	4240      	negs	r0, r0
 8005f84:	e0cf      	b.n	8006126 <_svfiprintf_r+0x1d2>
 8005f86:	2340      	movs	r3, #64	@ 0x40
 8005f88:	617b      	str	r3, [r7, #20]
 8005f8a:	2300      	movs	r3, #0
 8005f8c:	ac08      	add	r4, sp, #32
 8005f8e:	6163      	str	r3, [r4, #20]
 8005f90:	3320      	adds	r3, #32
 8005f92:	7663      	strb	r3, [r4, #25]
 8005f94:	3310      	adds	r3, #16
 8005f96:	76a3      	strb	r3, [r4, #26]
 8005f98:	9507      	str	r5, [sp, #28]
 8005f9a:	0035      	movs	r5, r6
 8005f9c:	782b      	ldrb	r3, [r5, #0]
 8005f9e:	2b00      	cmp	r3, #0
 8005fa0:	d001      	beq.n	8005fa6 <_svfiprintf_r+0x52>
 8005fa2:	2b25      	cmp	r3, #37	@ 0x25
 8005fa4:	d148      	bne.n	8006038 <_svfiprintf_r+0xe4>
 8005fa6:	1bab      	subs	r3, r5, r6
 8005fa8:	9305      	str	r3, [sp, #20]
 8005faa:	42b5      	cmp	r5, r6
 8005fac:	d00b      	beq.n	8005fc6 <_svfiprintf_r+0x72>
 8005fae:	0032      	movs	r2, r6
 8005fb0:	0039      	movs	r1, r7
 8005fb2:	9803      	ldr	r0, [sp, #12]
 8005fb4:	f7ff ff6e 	bl	8005e94 <__ssputs_r>
 8005fb8:	3001      	adds	r0, #1
 8005fba:	d100      	bne.n	8005fbe <_svfiprintf_r+0x6a>
 8005fbc:	e0ae      	b.n	800611c <_svfiprintf_r+0x1c8>
 8005fbe:	6963      	ldr	r3, [r4, #20]
 8005fc0:	9a05      	ldr	r2, [sp, #20]
 8005fc2:	189b      	adds	r3, r3, r2
 8005fc4:	6163      	str	r3, [r4, #20]
 8005fc6:	782b      	ldrb	r3, [r5, #0]
 8005fc8:	2b00      	cmp	r3, #0
 8005fca:	d100      	bne.n	8005fce <_svfiprintf_r+0x7a>
 8005fcc:	e0a6      	b.n	800611c <_svfiprintf_r+0x1c8>
 8005fce:	2201      	movs	r2, #1
 8005fd0:	2300      	movs	r3, #0
 8005fd2:	4252      	negs	r2, r2
 8005fd4:	6062      	str	r2, [r4, #4]
 8005fd6:	a904      	add	r1, sp, #16
 8005fd8:	3254      	adds	r2, #84	@ 0x54
 8005fda:	1852      	adds	r2, r2, r1
 8005fdc:	1c6e      	adds	r6, r5, #1
 8005fde:	6023      	str	r3, [r4, #0]
 8005fe0:	60e3      	str	r3, [r4, #12]
 8005fe2:	60a3      	str	r3, [r4, #8]
 8005fe4:	7013      	strb	r3, [r2, #0]
 8005fe6:	65a3      	str	r3, [r4, #88]	@ 0x58
 8005fe8:	4b54      	ldr	r3, [pc, #336]	@ (800613c <_svfiprintf_r+0x1e8>)
 8005fea:	2205      	movs	r2, #5
 8005fec:	0018      	movs	r0, r3
 8005fee:	7831      	ldrb	r1, [r6, #0]
 8005ff0:	9305      	str	r3, [sp, #20]
 8005ff2:	f000 fa3b 	bl	800646c <memchr>
 8005ff6:	1c75      	adds	r5, r6, #1
 8005ff8:	2800      	cmp	r0, #0
 8005ffa:	d11f      	bne.n	800603c <_svfiprintf_r+0xe8>
 8005ffc:	6822      	ldr	r2, [r4, #0]
 8005ffe:	06d3      	lsls	r3, r2, #27
 8006000:	d504      	bpl.n	800600c <_svfiprintf_r+0xb8>
 8006002:	2353      	movs	r3, #83	@ 0x53
 8006004:	a904      	add	r1, sp, #16
 8006006:	185b      	adds	r3, r3, r1
 8006008:	2120      	movs	r1, #32
 800600a:	7019      	strb	r1, [r3, #0]
 800600c:	0713      	lsls	r3, r2, #28
 800600e:	d504      	bpl.n	800601a <_svfiprintf_r+0xc6>
 8006010:	2353      	movs	r3, #83	@ 0x53
 8006012:	a904      	add	r1, sp, #16
 8006014:	185b      	adds	r3, r3, r1
 8006016:	212b      	movs	r1, #43	@ 0x2b
 8006018:	7019      	strb	r1, [r3, #0]
 800601a:	7833      	ldrb	r3, [r6, #0]
 800601c:	2b2a      	cmp	r3, #42	@ 0x2a
 800601e:	d016      	beq.n	800604e <_svfiprintf_r+0xfa>
 8006020:	0035      	movs	r5, r6
 8006022:	2100      	movs	r1, #0
 8006024:	200a      	movs	r0, #10
 8006026:	68e3      	ldr	r3, [r4, #12]
 8006028:	782a      	ldrb	r2, [r5, #0]
 800602a:	1c6e      	adds	r6, r5, #1
 800602c:	3a30      	subs	r2, #48	@ 0x30
 800602e:	2a09      	cmp	r2, #9
 8006030:	d950      	bls.n	80060d4 <_svfiprintf_r+0x180>
 8006032:	2900      	cmp	r1, #0
 8006034:	d111      	bne.n	800605a <_svfiprintf_r+0x106>
 8006036:	e017      	b.n	8006068 <_svfiprintf_r+0x114>
 8006038:	3501      	adds	r5, #1
 800603a:	e7af      	b.n	8005f9c <_svfiprintf_r+0x48>
 800603c:	9b05      	ldr	r3, [sp, #20]
 800603e:	6822      	ldr	r2, [r4, #0]
 8006040:	1ac0      	subs	r0, r0, r3
 8006042:	2301      	movs	r3, #1
 8006044:	4083      	lsls	r3, r0
 8006046:	4313      	orrs	r3, r2
 8006048:	002e      	movs	r6, r5
 800604a:	6023      	str	r3, [r4, #0]
 800604c:	e7cc      	b.n	8005fe8 <_svfiprintf_r+0x94>
 800604e:	9b07      	ldr	r3, [sp, #28]
 8006050:	1d19      	adds	r1, r3, #4
 8006052:	681b      	ldr	r3, [r3, #0]
 8006054:	9107      	str	r1, [sp, #28]
 8006056:	2b00      	cmp	r3, #0
 8006058:	db01      	blt.n	800605e <_svfiprintf_r+0x10a>
 800605a:	930b      	str	r3, [sp, #44]	@ 0x2c
 800605c:	e004      	b.n	8006068 <_svfiprintf_r+0x114>
 800605e:	425b      	negs	r3, r3
 8006060:	60e3      	str	r3, [r4, #12]
 8006062:	2302      	movs	r3, #2
 8006064:	4313      	orrs	r3, r2
 8006066:	6023      	str	r3, [r4, #0]
 8006068:	782b      	ldrb	r3, [r5, #0]
 800606a:	2b2e      	cmp	r3, #46	@ 0x2e
 800606c:	d10c      	bne.n	8006088 <_svfiprintf_r+0x134>
 800606e:	786b      	ldrb	r3, [r5, #1]
 8006070:	2b2a      	cmp	r3, #42	@ 0x2a
 8006072:	d134      	bne.n	80060de <_svfiprintf_r+0x18a>
 8006074:	9b07      	ldr	r3, [sp, #28]
 8006076:	3502      	adds	r5, #2
 8006078:	1d1a      	adds	r2, r3, #4
 800607a:	681b      	ldr	r3, [r3, #0]
 800607c:	9207      	str	r2, [sp, #28]
 800607e:	2b00      	cmp	r3, #0
 8006080:	da01      	bge.n	8006086 <_svfiprintf_r+0x132>
 8006082:	2301      	movs	r3, #1
 8006084:	425b      	negs	r3, r3
 8006086:	9309      	str	r3, [sp, #36]	@ 0x24
 8006088:	4e2d      	ldr	r6, [pc, #180]	@ (8006140 <_svfiprintf_r+0x1ec>)
 800608a:	2203      	movs	r2, #3
 800608c:	0030      	movs	r0, r6
 800608e:	7829      	ldrb	r1, [r5, #0]
 8006090:	f000 f9ec 	bl	800646c <memchr>
 8006094:	2800      	cmp	r0, #0
 8006096:	d006      	beq.n	80060a6 <_svfiprintf_r+0x152>
 8006098:	2340      	movs	r3, #64	@ 0x40
 800609a:	1b80      	subs	r0, r0, r6
 800609c:	4083      	lsls	r3, r0
 800609e:	6822      	ldr	r2, [r4, #0]
 80060a0:	3501      	adds	r5, #1
 80060a2:	4313      	orrs	r3, r2
 80060a4:	6023      	str	r3, [r4, #0]
 80060a6:	7829      	ldrb	r1, [r5, #0]
 80060a8:	2206      	movs	r2, #6
 80060aa:	4826      	ldr	r0, [pc, #152]	@ (8006144 <_svfiprintf_r+0x1f0>)
 80060ac:	1c6e      	adds	r6, r5, #1
 80060ae:	7621      	strb	r1, [r4, #24]
 80060b0:	f000 f9dc 	bl	800646c <memchr>
 80060b4:	2800      	cmp	r0, #0
 80060b6:	d038      	beq.n	800612a <_svfiprintf_r+0x1d6>
 80060b8:	4b23      	ldr	r3, [pc, #140]	@ (8006148 <_svfiprintf_r+0x1f4>)
 80060ba:	2b00      	cmp	r3, #0
 80060bc:	d122      	bne.n	8006104 <_svfiprintf_r+0x1b0>
 80060be:	2207      	movs	r2, #7
 80060c0:	9b07      	ldr	r3, [sp, #28]
 80060c2:	3307      	adds	r3, #7
 80060c4:	4393      	bics	r3, r2
 80060c6:	3308      	adds	r3, #8
 80060c8:	9307      	str	r3, [sp, #28]
 80060ca:	6963      	ldr	r3, [r4, #20]
 80060cc:	9a04      	ldr	r2, [sp, #16]
 80060ce:	189b      	adds	r3, r3, r2
 80060d0:	6163      	str	r3, [r4, #20]
 80060d2:	e762      	b.n	8005f9a <_svfiprintf_r+0x46>
 80060d4:	4343      	muls	r3, r0
 80060d6:	0035      	movs	r5, r6
 80060d8:	2101      	movs	r1, #1
 80060da:	189b      	adds	r3, r3, r2
 80060dc:	e7a4      	b.n	8006028 <_svfiprintf_r+0xd4>
 80060de:	2300      	movs	r3, #0
 80060e0:	200a      	movs	r0, #10
 80060e2:	0019      	movs	r1, r3
 80060e4:	3501      	adds	r5, #1
 80060e6:	6063      	str	r3, [r4, #4]
 80060e8:	782a      	ldrb	r2, [r5, #0]
 80060ea:	1c6e      	adds	r6, r5, #1
 80060ec:	3a30      	subs	r2, #48	@ 0x30
 80060ee:	2a09      	cmp	r2, #9
 80060f0:	d903      	bls.n	80060fa <_svfiprintf_r+0x1a6>
 80060f2:	2b00      	cmp	r3, #0
 80060f4:	d0c8      	beq.n	8006088 <_svfiprintf_r+0x134>
 80060f6:	9109      	str	r1, [sp, #36]	@ 0x24
 80060f8:	e7c6      	b.n	8006088 <_svfiprintf_r+0x134>
 80060fa:	4341      	muls	r1, r0
 80060fc:	0035      	movs	r5, r6
 80060fe:	2301      	movs	r3, #1
 8006100:	1889      	adds	r1, r1, r2
 8006102:	e7f1      	b.n	80060e8 <_svfiprintf_r+0x194>
 8006104:	aa07      	add	r2, sp, #28
 8006106:	9200      	str	r2, [sp, #0]
 8006108:	0021      	movs	r1, r4
 800610a:	003a      	movs	r2, r7
 800610c:	4b0f      	ldr	r3, [pc, #60]	@ (800614c <_svfiprintf_r+0x1f8>)
 800610e:	9803      	ldr	r0, [sp, #12]
 8006110:	e000      	b.n	8006114 <_svfiprintf_r+0x1c0>
 8006112:	bf00      	nop
 8006114:	9004      	str	r0, [sp, #16]
 8006116:	9b04      	ldr	r3, [sp, #16]
 8006118:	3301      	adds	r3, #1
 800611a:	d1d6      	bne.n	80060ca <_svfiprintf_r+0x176>
 800611c:	89bb      	ldrh	r3, [r7, #12]
 800611e:	980d      	ldr	r0, [sp, #52]	@ 0x34
 8006120:	065b      	lsls	r3, r3, #25
 8006122:	d500      	bpl.n	8006126 <_svfiprintf_r+0x1d2>
 8006124:	e72c      	b.n	8005f80 <_svfiprintf_r+0x2c>
 8006126:	b021      	add	sp, #132	@ 0x84
 8006128:	bdf0      	pop	{r4, r5, r6, r7, pc}
 800612a:	aa07      	add	r2, sp, #28
 800612c:	9200      	str	r2, [sp, #0]
 800612e:	0021      	movs	r1, r4
 8006130:	003a      	movs	r2, r7
 8006132:	4b06      	ldr	r3, [pc, #24]	@ (800614c <_svfiprintf_r+0x1f8>)
 8006134:	9803      	ldr	r0, [sp, #12]
 8006136:	f000 f87b 	bl	8006230 <_printf_i>
 800613a:	e7eb      	b.n	8006114 <_svfiprintf_r+0x1c0>
 800613c:	08006634 	.word	0x08006634
 8006140:	0800663a 	.word	0x0800663a
 8006144:	0800663e 	.word	0x0800663e
 8006148:	00000000 	.word	0x00000000
 800614c:	08005e95 	.word	0x08005e95

08006150 <_printf_common>:
 8006150:	b5f7      	push	{r0, r1, r2, r4, r5, r6, r7, lr}
 8006152:	0016      	movs	r6, r2
 8006154:	9301      	str	r3, [sp, #4]
 8006156:	688a      	ldr	r2, [r1, #8]
 8006158:	690b      	ldr	r3, [r1, #16]
 800615a:	000c      	movs	r4, r1
 800615c:	9000      	str	r0, [sp, #0]
 800615e:	4293      	cmp	r3, r2
 8006160:	da00      	bge.n	8006164 <_printf_common+0x14>
 8006162:	0013      	movs	r3, r2
 8006164:	0022      	movs	r2, r4
 8006166:	6033      	str	r3, [r6, #0]
 8006168:	3243      	adds	r2, #67	@ 0x43
 800616a:	7812      	ldrb	r2, [r2, #0]
 800616c:	2a00      	cmp	r2, #0
 800616e:	d001      	beq.n	8006174 <_printf_common+0x24>
 8006170:	3301      	adds	r3, #1
 8006172:	6033      	str	r3, [r6, #0]
 8006174:	6823      	ldr	r3, [r4, #0]
 8006176:	069b      	lsls	r3, r3, #26
 8006178:	d502      	bpl.n	8006180 <_printf_common+0x30>
 800617a:	6833      	ldr	r3, [r6, #0]
 800617c:	3302      	adds	r3, #2
 800617e:	6033      	str	r3, [r6, #0]
 8006180:	6822      	ldr	r2, [r4, #0]
 8006182:	2306      	movs	r3, #6
 8006184:	0015      	movs	r5, r2
 8006186:	401d      	ands	r5, r3
 8006188:	421a      	tst	r2, r3
 800618a:	d027      	beq.n	80061dc <_printf_common+0x8c>
 800618c:	0023      	movs	r3, r4
 800618e:	3343      	adds	r3, #67	@ 0x43
 8006190:	781b      	ldrb	r3, [r3, #0]
 8006192:	1e5a      	subs	r2, r3, #1
 8006194:	4193      	sbcs	r3, r2
 8006196:	6822      	ldr	r2, [r4, #0]
 8006198:	0692      	lsls	r2, r2, #26
 800619a:	d430      	bmi.n	80061fe <_printf_common+0xae>
 800619c:	0022      	movs	r2, r4
 800619e:	9901      	ldr	r1, [sp, #4]
 80061a0:	9800      	ldr	r0, [sp, #0]
 80061a2:	9d08      	ldr	r5, [sp, #32]
 80061a4:	3243      	adds	r2, #67	@ 0x43
 80061a6:	47a8      	blx	r5
 80061a8:	3001      	adds	r0, #1
 80061aa:	d025      	beq.n	80061f8 <_printf_common+0xa8>
 80061ac:	2206      	movs	r2, #6
 80061ae:	6823      	ldr	r3, [r4, #0]
 80061b0:	2500      	movs	r5, #0
 80061b2:	4013      	ands	r3, r2
 80061b4:	2b04      	cmp	r3, #4
 80061b6:	d105      	bne.n	80061c4 <_printf_common+0x74>
 80061b8:	6833      	ldr	r3, [r6, #0]
 80061ba:	68e5      	ldr	r5, [r4, #12]
 80061bc:	1aed      	subs	r5, r5, r3
 80061be:	43eb      	mvns	r3, r5
 80061c0:	17db      	asrs	r3, r3, #31
 80061c2:	401d      	ands	r5, r3
 80061c4:	68a3      	ldr	r3, [r4, #8]
 80061c6:	6922      	ldr	r2, [r4, #16]
 80061c8:	4293      	cmp	r3, r2
 80061ca:	dd01      	ble.n	80061d0 <_printf_common+0x80>
 80061cc:	1a9b      	subs	r3, r3, r2
 80061ce:	18ed      	adds	r5, r5, r3
 80061d0:	2600      	movs	r6, #0
 80061d2:	42b5      	cmp	r5, r6
 80061d4:	d120      	bne.n	8006218 <_printf_common+0xc8>
 80061d6:	2000      	movs	r0, #0
 80061d8:	e010      	b.n	80061fc <_printf_common+0xac>
 80061da:	3501      	adds	r5, #1
 80061dc:	68e3      	ldr	r3, [r4, #12]
 80061de:	6832      	ldr	r2, [r6, #0]
 80061e0:	1a9b      	subs	r3, r3, r2
 80061e2:	42ab      	cmp	r3, r5
 80061e4:	ddd2      	ble.n	800618c <_printf_common+0x3c>
 80061e6:	0022      	movs	r2, r4
 80061e8:	2301      	movs	r3, #1
 80061ea:	9901      	ldr	r1, [sp, #4]
 80061ec:	9800      	ldr	r0, [sp, #0]
 80061ee:	9f08      	ldr	r7, [sp, #32]
 80061f0:	3219      	adds	r2, #25
 80061f2:	47b8      	blx	r7
 80061f4:	3001      	adds	r0, #1
 80061f6:	d1f0      	bne.n	80061da <_printf_common+0x8a>
 80061f8:	2001      	movs	r0, #1
 80061fa:	4240      	negs	r0, r0
 80061fc:	bdfe      	pop	{r1, r2, r3, r4, r5, r6, r7, pc}
 80061fe:	2030      	movs	r0, #48	@ 0x30
 8006200:	18e1      	adds	r1, r4, r3
 8006202:	3143      	adds	r1, #67	@ 0x43
 8006204:	7008      	strb	r0, [r1, #0]
 8006206:	0021      	movs	r1, r4
 8006208:	1c5a      	adds	r2, r3, #1
 800620a:	3145      	adds	r1, #69	@ 0x45
 800620c:	7809      	ldrb	r1, [r1, #0]
 800620e:	18a2      	adds	r2, r4, r2
 8006210:	3243      	adds	r2, #67	@ 0x43
 8006212:	3302      	adds	r3, #2
 8006214:	7011      	strb	r1, [r2, #0]
 8006216:	e7c1      	b.n	800619c <_printf_common+0x4c>
 8006218:	0022      	movs	r2, r4
 800621a:	2301      	movs	r3, #1
 800621c:	9901      	ldr	r1, [sp, #4]
 800621e:	9800      	ldr	r0, [sp, #0]
 8006220:	9f08      	ldr	r7, [sp, #32]
 8006222:	321a      	adds	r2, #26
 8006224:	47b8      	blx	r7
 8006226:	3001      	adds	r0, #1
 8006228:	d0e6      	beq.n	80061f8 <_printf_common+0xa8>
 800622a:	3601      	adds	r6, #1
 800622c:	e7d1      	b.n	80061d2 <_printf_common+0x82>
	...

08006230 <_printf_i>:
 8006230:	b5f0      	push	{r4, r5, r6, r7, lr}
 8006232:	b08b      	sub	sp, #44	@ 0x2c
 8006234:	9206      	str	r2, [sp, #24]
 8006236:	000a      	movs	r2, r1
 8006238:	3243      	adds	r2, #67	@ 0x43
 800623a:	9307      	str	r3, [sp, #28]
 800623c:	9005      	str	r0, [sp, #20]
 800623e:	9203      	str	r2, [sp, #12]
 8006240:	7e0a      	ldrb	r2, [r1, #24]
 8006242:	000c      	movs	r4, r1
 8006244:	9b10      	ldr	r3, [sp, #64]	@ 0x40
 8006246:	2a78      	cmp	r2, #120	@ 0x78
 8006248:	d809      	bhi.n	800625e <_printf_i+0x2e>
 800624a:	2a62      	cmp	r2, #98	@ 0x62
 800624c:	d80b      	bhi.n	8006266 <_printf_i+0x36>
 800624e:	2a00      	cmp	r2, #0
 8006250:	d100      	bne.n	8006254 <_printf_i+0x24>
 8006252:	e0ba      	b.n	80063ca <_printf_i+0x19a>
 8006254:	497a      	ldr	r1, [pc, #488]	@ (8006440 <_printf_i+0x210>)
 8006256:	9104      	str	r1, [sp, #16]
 8006258:	2a58      	cmp	r2, #88	@ 0x58
 800625a:	d100      	bne.n	800625e <_printf_i+0x2e>
 800625c:	e08e      	b.n	800637c <_printf_i+0x14c>
 800625e:	0025      	movs	r5, r4
 8006260:	3542      	adds	r5, #66	@ 0x42
 8006262:	702a      	strb	r2, [r5, #0]
 8006264:	e022      	b.n	80062ac <_printf_i+0x7c>
 8006266:	0010      	movs	r0, r2
 8006268:	3863      	subs	r0, #99	@ 0x63
 800626a:	2815      	cmp	r0, #21
 800626c:	d8f7      	bhi.n	800625e <_printf_i+0x2e>
 800626e:	f7f9 ff53 	bl	8000118 <__gnu_thumb1_case_shi>
 8006272:	0016      	.short	0x0016
 8006274:	fff6001f 	.word	0xfff6001f
 8006278:	fff6fff6 	.word	0xfff6fff6
 800627c:	001ffff6 	.word	0x001ffff6
 8006280:	fff6fff6 	.word	0xfff6fff6
 8006284:	fff6fff6 	.word	0xfff6fff6
 8006288:	0036009f 	.word	0x0036009f
 800628c:	fff6007e 	.word	0xfff6007e
 8006290:	00b0fff6 	.word	0x00b0fff6
 8006294:	0036fff6 	.word	0x0036fff6
 8006298:	fff6fff6 	.word	0xfff6fff6
 800629c:	0082      	.short	0x0082
 800629e:	0025      	movs	r5, r4
 80062a0:	681a      	ldr	r2, [r3, #0]
 80062a2:	3542      	adds	r5, #66	@ 0x42
 80062a4:	1d11      	adds	r1, r2, #4
 80062a6:	6019      	str	r1, [r3, #0]
 80062a8:	6813      	ldr	r3, [r2, #0]
 80062aa:	702b      	strb	r3, [r5, #0]
 80062ac:	2301      	movs	r3, #1
 80062ae:	e09e      	b.n	80063ee <_printf_i+0x1be>
 80062b0:	6818      	ldr	r0, [r3, #0]
 80062b2:	6809      	ldr	r1, [r1, #0]
 80062b4:	1d02      	adds	r2, r0, #4
 80062b6:	060d      	lsls	r5, r1, #24
 80062b8:	d50b      	bpl.n	80062d2 <_printf_i+0xa2>
 80062ba:	6806      	ldr	r6, [r0, #0]
 80062bc:	601a      	str	r2, [r3, #0]
 80062be:	2e00      	cmp	r6, #0
 80062c0:	da03      	bge.n	80062ca <_printf_i+0x9a>
 80062c2:	232d      	movs	r3, #45	@ 0x2d
 80062c4:	9a03      	ldr	r2, [sp, #12]
 80062c6:	4276      	negs	r6, r6
 80062c8:	7013      	strb	r3, [r2, #0]
 80062ca:	4b5d      	ldr	r3, [pc, #372]	@ (8006440 <_printf_i+0x210>)
 80062cc:	270a      	movs	r7, #10
 80062ce:	9304      	str	r3, [sp, #16]
 80062d0:	e018      	b.n	8006304 <_printf_i+0xd4>
 80062d2:	6806      	ldr	r6, [r0, #0]
 80062d4:	601a      	str	r2, [r3, #0]
 80062d6:	0649      	lsls	r1, r1, #25
 80062d8:	d5f1      	bpl.n	80062be <_printf_i+0x8e>
 80062da:	b236      	sxth	r6, r6
 80062dc:	e7ef      	b.n	80062be <_printf_i+0x8e>
 80062de:	6808      	ldr	r0, [r1, #0]
 80062e0:	6819      	ldr	r1, [r3, #0]
 80062e2:	c940      	ldmia	r1!, {r6}
 80062e4:	0605      	lsls	r5, r0, #24
 80062e6:	d402      	bmi.n	80062ee <_printf_i+0xbe>
 80062e8:	0640      	lsls	r0, r0, #25
 80062ea:	d500      	bpl.n	80062ee <_printf_i+0xbe>
 80062ec:	b2b6      	uxth	r6, r6
 80062ee:	6019      	str	r1, [r3, #0]
 80062f0:	4b53      	ldr	r3, [pc, #332]	@ (8006440 <_printf_i+0x210>)
 80062f2:	270a      	movs	r7, #10
 80062f4:	9304      	str	r3, [sp, #16]
 80062f6:	2a6f      	cmp	r2, #111	@ 0x6f
 80062f8:	d100      	bne.n	80062fc <_printf_i+0xcc>
 80062fa:	3f02      	subs	r7, #2
 80062fc:	0023      	movs	r3, r4
 80062fe:	2200      	movs	r2, #0
 8006300:	3343      	adds	r3, #67	@ 0x43
 8006302:	701a      	strb	r2, [r3, #0]
 8006304:	6863      	ldr	r3, [r4, #4]
 8006306:	60a3      	str	r3, [r4, #8]
 8006308:	2b00      	cmp	r3, #0
 800630a:	db06      	blt.n	800631a <_printf_i+0xea>
 800630c:	2104      	movs	r1, #4
 800630e:	6822      	ldr	r2, [r4, #0]
 8006310:	9d03      	ldr	r5, [sp, #12]
 8006312:	438a      	bics	r2, r1
 8006314:	6022      	str	r2, [r4, #0]
 8006316:	4333      	orrs	r3, r6
 8006318:	d00c      	beq.n	8006334 <_printf_i+0x104>
 800631a:	9d03      	ldr	r5, [sp, #12]
 800631c:	0030      	movs	r0, r6
 800631e:	0039      	movs	r1, r7
 8006320:	f7f9 ff8a 	bl	8000238 <__aeabi_uidivmod>
 8006324:	9b04      	ldr	r3, [sp, #16]
 8006326:	3d01      	subs	r5, #1
 8006328:	5c5b      	ldrb	r3, [r3, r1]
 800632a:	702b      	strb	r3, [r5, #0]
 800632c:	0033      	movs	r3, r6
 800632e:	0006      	movs	r6, r0
 8006330:	429f      	cmp	r7, r3
 8006332:	d9f3      	bls.n	800631c <_printf_i+0xec>
 8006334:	2f08      	cmp	r7, #8
 8006336:	d109      	bne.n	800634c <_printf_i+0x11c>
 8006338:	6823      	ldr	r3, [r4, #0]
 800633a:	07db      	lsls	r3, r3, #31
 800633c:	d506      	bpl.n	800634c <_printf_i+0x11c>
 800633e:	6862      	ldr	r2, [r4, #4]
 8006340:	6923      	ldr	r3, [r4, #16]
 8006342:	429a      	cmp	r2, r3
 8006344:	dc02      	bgt.n	800634c <_printf_i+0x11c>
 8006346:	2330      	movs	r3, #48	@ 0x30
 8006348:	3d01      	subs	r5, #1
 800634a:	702b      	strb	r3, [r5, #0]
 800634c:	9b03      	ldr	r3, [sp, #12]
 800634e:	1b5b      	subs	r3, r3, r5
 8006350:	6123      	str	r3, [r4, #16]
 8006352:	9b07      	ldr	r3, [sp, #28]
 8006354:	0021      	movs	r1, r4
 8006356:	9300      	str	r3, [sp, #0]
 8006358:	9805      	ldr	r0, [sp, #20]
 800635a:	9b06      	ldr	r3, [sp, #24]
 800635c:	aa09      	add	r2, sp, #36	@ 0x24
 800635e:	f7ff fef7 	bl	8006150 <_printf_common>
 8006362:	3001      	adds	r0, #1
 8006364:	d148      	bne.n	80063f8 <_printf_i+0x1c8>
 8006366:	2001      	movs	r0, #1
 8006368:	4240      	negs	r0, r0
 800636a:	b00b      	add	sp, #44	@ 0x2c
 800636c:	bdf0      	pop	{r4, r5, r6, r7, pc}
 800636e:	2220      	movs	r2, #32
 8006370:	6809      	ldr	r1, [r1, #0]
 8006372:	430a      	orrs	r2, r1
 8006374:	6022      	str	r2, [r4, #0]
 8006376:	2278      	movs	r2, #120	@ 0x78
 8006378:	4932      	ldr	r1, [pc, #200]	@ (8006444 <_printf_i+0x214>)
 800637a:	9104      	str	r1, [sp, #16]
 800637c:	0021      	movs	r1, r4
 800637e:	3145      	adds	r1, #69	@ 0x45
 8006380:	700a      	strb	r2, [r1, #0]
 8006382:	6819      	ldr	r1, [r3, #0]
 8006384:	6822      	ldr	r2, [r4, #0]
 8006386:	c940      	ldmia	r1!, {r6}
 8006388:	0610      	lsls	r0, r2, #24
 800638a:	d402      	bmi.n	8006392 <_printf_i+0x162>
 800638c:	0650      	lsls	r0, r2, #25
 800638e:	d500      	bpl.n	8006392 <_printf_i+0x162>
 8006390:	b2b6      	uxth	r6, r6
 8006392:	6019      	str	r1, [r3, #0]
 8006394:	07d3      	lsls	r3, r2, #31
 8006396:	d502      	bpl.n	800639e <_printf_i+0x16e>
 8006398:	2320      	movs	r3, #32
 800639a:	4313      	orrs	r3, r2
 800639c:	6023      	str	r3, [r4, #0]
 800639e:	2e00      	cmp	r6, #0
 80063a0:	d001      	beq.n	80063a6 <_printf_i+0x176>
 80063a2:	2710      	movs	r7, #16
 80063a4:	e7aa      	b.n	80062fc <_printf_i+0xcc>
 80063a6:	2220      	movs	r2, #32
 80063a8:	6823      	ldr	r3, [r4, #0]
 80063aa:	4393      	bics	r3, r2
 80063ac:	6023      	str	r3, [r4, #0]
 80063ae:	e7f8      	b.n	80063a2 <_printf_i+0x172>
 80063b0:	681a      	ldr	r2, [r3, #0]
 80063b2:	680d      	ldr	r5, [r1, #0]
 80063b4:	1d10      	adds	r0, r2, #4
 80063b6:	6949      	ldr	r1, [r1, #20]
 80063b8:	6018      	str	r0, [r3, #0]
 80063ba:	6813      	ldr	r3, [r2, #0]
 80063bc:	062e      	lsls	r6, r5, #24
 80063be:	d501      	bpl.n	80063c4 <_printf_i+0x194>
 80063c0:	6019      	str	r1, [r3, #0]
 80063c2:	e002      	b.n	80063ca <_printf_i+0x19a>
 80063c4:	066d      	lsls	r5, r5, #25
 80063c6:	d5fb      	bpl.n	80063c0 <_printf_i+0x190>
 80063c8:	8019      	strh	r1, [r3, #0]
 80063ca:	2300      	movs	r3, #0
 80063cc:	9d03      	ldr	r5, [sp, #12]
 80063ce:	6123      	str	r3, [r4, #16]
 80063d0:	e7bf      	b.n	8006352 <_printf_i+0x122>
 80063d2:	681a      	ldr	r2, [r3, #0]
 80063d4:	1d11      	adds	r1, r2, #4
 80063d6:	6019      	str	r1, [r3, #0]
 80063d8:	6815      	ldr	r5, [r2, #0]
 80063da:	2100      	movs	r1, #0
 80063dc:	0028      	movs	r0, r5
 80063de:	6862      	ldr	r2, [r4, #4]
 80063e0:	f000 f844 	bl	800646c <memchr>
 80063e4:	2800      	cmp	r0, #0
 80063e6:	d001      	beq.n	80063ec <_printf_i+0x1bc>
 80063e8:	1b40      	subs	r0, r0, r5
 80063ea:	6060      	str	r0, [r4, #4]
 80063ec:	6863      	ldr	r3, [r4, #4]
 80063ee:	6123      	str	r3, [r4, #16]
 80063f0:	2300      	movs	r3, #0
 80063f2:	9a03      	ldr	r2, [sp, #12]
 80063f4:	7013      	strb	r3, [r2, #0]
 80063f6:	e7ac      	b.n	8006352 <_printf_i+0x122>
 80063f8:	002a      	movs	r2, r5
 80063fa:	6923      	ldr	r3, [r4, #16]
 80063fc:	9906      	ldr	r1, [sp, #24]
 80063fe:	9805      	ldr	r0, [sp, #20]
 8006400:	9d07      	ldr	r5, [sp, #28]
 8006402:	47a8      	blx	r5
 8006404:	3001      	adds	r0, #1
 8006406:	d0ae      	beq.n	8006366 <_printf_i+0x136>
 8006408:	6823      	ldr	r3, [r4, #0]
 800640a:	079b      	lsls	r3, r3, #30
 800640c:	d415      	bmi.n	800643a <_printf_i+0x20a>
 800640e:	9b09      	ldr	r3, [sp, #36]	@ 0x24
 8006410:	68e0      	ldr	r0, [r4, #12]
 8006412:	4298      	cmp	r0, r3
 8006414:	daa9      	bge.n	800636a <_printf_i+0x13a>
 8006416:	0018      	movs	r0, r3
 8006418:	e7a7      	b.n	800636a <_printf_i+0x13a>
 800641a:	0022      	movs	r2, r4
 800641c:	2301      	movs	r3, #1
 800641e:	9906      	ldr	r1, [sp, #24]
 8006420:	9805      	ldr	r0, [sp, #20]
 8006422:	9e07      	ldr	r6, [sp, #28]
 8006424:	3219      	adds	r2, #25
 8006426:	47b0      	blx	r6
 8006428:	3001      	adds	r0, #1
 800642a:	d09c      	beq.n	8006366 <_printf_i+0x136>
 800642c:	3501      	adds	r5, #1
 800642e:	68e3      	ldr	r3, [r4, #12]
 8006430:	9a09      	ldr	r2, [sp, #36]	@ 0x24
 8006432:	1a9b      	subs	r3, r3, r2
 8006434:	42ab      	cmp	r3, r5
 8006436:	dcf0      	bgt.n	800641a <_printf_i+0x1ea>
 8006438:	e7e9      	b.n	800640e <_printf_i+0x1de>
 800643a:	2500      	movs	r5, #0
 800643c:	e7f7      	b.n	800642e <_printf_i+0x1fe>
 800643e:	46c0      	nop			@ (mov r8, r8)
 8006440:	08006645 	.word	0x08006645
 8006444:	08006656 	.word	0x08006656

08006448 <memmove>:
 8006448:	b510      	push	{r4, lr}
 800644a:	4288      	cmp	r0, r1
 800644c:	d902      	bls.n	8006454 <memmove+0xc>
 800644e:	188b      	adds	r3, r1, r2
 8006450:	4298      	cmp	r0, r3
 8006452:	d308      	bcc.n	8006466 <memmove+0x1e>
 8006454:	2300      	movs	r3, #0
 8006456:	429a      	cmp	r2, r3
 8006458:	d007      	beq.n	800646a <memmove+0x22>
 800645a:	5ccc      	ldrb	r4, [r1, r3]
 800645c:	54c4      	strb	r4, [r0, r3]
 800645e:	3301      	adds	r3, #1
 8006460:	e7f9      	b.n	8006456 <memmove+0xe>
 8006462:	5c8b      	ldrb	r3, [r1, r2]
 8006464:	5483      	strb	r3, [r0, r2]
 8006466:	3a01      	subs	r2, #1
 8006468:	d2fb      	bcs.n	8006462 <memmove+0x1a>
 800646a:	bd10      	pop	{r4, pc}

0800646c <memchr>:
 800646c:	b2c9      	uxtb	r1, r1
 800646e:	1882      	adds	r2, r0, r2
 8006470:	4290      	cmp	r0, r2
 8006472:	d101      	bne.n	8006478 <memchr+0xc>
 8006474:	2000      	movs	r0, #0
 8006476:	4770      	bx	lr
 8006478:	7803      	ldrb	r3, [r0, #0]
 800647a:	428b      	cmp	r3, r1
 800647c:	d0fb      	beq.n	8006476 <memchr+0xa>
 800647e:	3001      	adds	r0, #1
 8006480:	e7f6      	b.n	8006470 <memchr+0x4>

08006482 <_realloc_r>:
 8006482:	b5f7      	push	{r0, r1, r2, r4, r5, r6, r7, lr}
 8006484:	0006      	movs	r6, r0
 8006486:	000c      	movs	r4, r1
 8006488:	0015      	movs	r5, r2
 800648a:	2900      	cmp	r1, #0
 800648c:	d105      	bne.n	800649a <_realloc_r+0x18>
 800648e:	0011      	movs	r1, r2
 8006490:	f7ff fb6e 	bl	8005b70 <_malloc_r>
 8006494:	0004      	movs	r4, r0
 8006496:	0020      	movs	r0, r4
 8006498:	bdfe      	pop	{r1, r2, r3, r4, r5, r6, r7, pc}
 800649a:	2a00      	cmp	r2, #0
 800649c:	d103      	bne.n	80064a6 <_realloc_r+0x24>
 800649e:	f7ff fcaf 	bl	8005e00 <_free_r>
 80064a2:	002c      	movs	r4, r5
 80064a4:	e7f7      	b.n	8006496 <_realloc_r+0x14>
 80064a6:	f000 f81c 	bl	80064e2 <_malloc_usable_size_r>
 80064aa:	0007      	movs	r7, r0
 80064ac:	4285      	cmp	r5, r0
 80064ae:	d802      	bhi.n	80064b6 <_realloc_r+0x34>
 80064b0:	0843      	lsrs	r3, r0, #1
 80064b2:	42ab      	cmp	r3, r5
 80064b4:	d3ef      	bcc.n	8006496 <_realloc_r+0x14>
 80064b6:	0029      	movs	r1, r5
 80064b8:	0030      	movs	r0, r6
 80064ba:	f7ff fb59 	bl	8005b70 <_malloc_r>
 80064be:	9001      	str	r0, [sp, #4]
 80064c0:	2800      	cmp	r0, #0
 80064c2:	d101      	bne.n	80064c8 <_realloc_r+0x46>
 80064c4:	9c01      	ldr	r4, [sp, #4]
 80064c6:	e7e6      	b.n	8006496 <_realloc_r+0x14>
 80064c8:	002a      	movs	r2, r5
 80064ca:	42bd      	cmp	r5, r7
 80064cc:	d900      	bls.n	80064d0 <_realloc_r+0x4e>
 80064ce:	003a      	movs	r2, r7
 80064d0:	0021      	movs	r1, r4
 80064d2:	9801      	ldr	r0, [sp, #4]
 80064d4:	f7ff fc8a 	bl	8005dec <memcpy>
 80064d8:	0021      	movs	r1, r4
 80064da:	0030      	movs	r0, r6
 80064dc:	f7ff fc90 	bl	8005e00 <_free_r>
 80064e0:	e7f0      	b.n	80064c4 <_realloc_r+0x42>

080064e2 <_malloc_usable_size_r>:
 80064e2:	1f0b      	subs	r3, r1, #4
 80064e4:	681b      	ldr	r3, [r3, #0]
 80064e6:	1f18      	subs	r0, r3, #4
 80064e8:	2b00      	cmp	r3, #0
 80064ea:	da01      	bge.n	80064f0 <_malloc_usable_size_r+0xe>
 80064ec:	580b      	ldr	r3, [r1, r0]
 80064ee:	18c0      	adds	r0, r0, r3
 80064f0:	4770      	bx	lr
	...

080064f4 <_init>:
 80064f4:	b5f8      	push	{r3, r4, r5, r6, r7, lr}
 80064f6:	46c0      	nop			@ (mov r8, r8)
 80064f8:	bcf8      	pop	{r3, r4, r5, r6, r7}
 80064fa:	bc08      	pop	{r3}
 80064fc:	469e      	mov	lr, r3
 80064fe:	4770      	bx	lr

08006500 <_fini>:
 8006500:	b5f8      	push	{r3, r4, r5, r6, r7, lr}
 8006502:	46c0      	nop			@ (mov r8, r8)
 8006504:	bcf8      	pop	{r3, r4, r5, r6, r7}
 8006506:	bc08      	pop	{r3}
 8006508:	469e      	mov	lr, r3
 800650a:	4770      	bx	lr
